 xerces-c_2_8

 Timestamp is 4abeb5dd (Sat Sep 26 17:46:21 2009)

 Preferred load address is 12000000

 Start         Length     Name                   Class
 0001:00000000 0009dda8H .text                   CODE
 0001:0009dda8 0000e1a5H .text$x                 CODE
 0001:000abf4d 000000adH .text$yc                CODE
 0001:000abffa 00000107H .text$yd                CODE
 0002:00000000 000001ccH .idata$5                DATA
 0002:000001cc 00000004H .CRT$XCA                DATA
 0002:000001d0 00000038H .CRT$XCU                DATA
 0002:00000208 00000004H .CRT$XCZ                DATA
 0002:0000020c 00000004H .CRT$XIA                DATA
 0002:00000210 00000004H .CRT$XIAA               DATA
 0002:00000214 00000004H .CRT$XIC                DATA
 0002:00000218 00000004H .CRT$XIZ                DATA
 0002:00000220 00034288H .rdata                  DATA
 0002:000344a8 00000075H .rdata$debug            DATA
 0002:00034520 00009d84H .rdata$r                DATA
 0002:0003e2b0 000012f8H .rdata$sxdata           DATA
 0002:0003f5a8 00000004H .rtc$IAA                DATA
 0002:0003f5ac 00000004H .rtc$IZZ                DATA
 0002:0003f5b0 00000004H .rtc$TAA                DATA
 0002:0003f5b4 00000004H .rtc$TZZ                DATA
 0002:0003f5b8 00012d54H .xdata$x                DATA
 0002:0005230c 0000003cH .idata$2                DATA
 0002:00052348 00000014H .idata$3                DATA
 0002:0005235c 000001ccH .idata$4                DATA
 0002:00052528 00000736H .idata$6                DATA
 0002:00052c60 0007eec3H .edata                  DATA
 0003:00000000 00027ec0H .data                   DATA
 0003:00027ec0 0000063cH .bss                    DATA
 0004:00000000 00000af0H .rsrc$01                DATA
 0004:00000af0 00016388H .rsrc$02                DATA

  Address         Publics by Value              Rva+Base       Lib:Object

 0000:00000000       __except_list              00000000     <absolute>
 0000:000004be       ___safe_se_handler_count   000004be     <absolute>
 0000:00009876       __fltused                  00009876     <absolute>
 0000:00009876       __ldused                   00009876     <absolute>
 0000:00000000       ___ImageBase               12000000     <linker-defined>
 0001:00000000       ??0MemoryManager@xercesc_2_8@@IAE@XZ 12001000 f i Base64.obj
 0001:00000009       ??_EMemoryManager@xercesc_2_8@@UAEPAXI@Z 12001009 f i Base64.obj
 0001:00000053       ?isPad@Base64@xercesc_2_8@@CA_NABE@Z 12001053 f i Base64.obj
 0001:00000060       ?set1stOctet@Base64@xercesc_2_8@@CAEABE0@Z 12001060 f i Base64.obj
 0001:00000077       ?set2ndOctet@Base64@xercesc_2_8@@CAEABE0@Z 12001077 f i Base64.obj
 0001:0000008e       ?set3rdOctet@Base64@xercesc_2_8@@CAEABE0@Z 1200108e f i Base64.obj
 0001:000000a2       ?split1stOctet@Base64@xercesc_2_8@@CAXABEAAE1@Z 120010a2 f i Base64.obj
 0001:000000bf       ?split2ndOctet@Base64@xercesc_2_8@@CAXABEAAE1@Z 120010bf f i Base64.obj
 0001:000000dc       ?split3rdOctet@Base64@xercesc_2_8@@CAXABEAAE1@Z 120010dc f i Base64.obj
 0001:000000f6       ??4XercesElementWildcard@xercesc_2_8@@QAEAAV01@ABV01@@Z 120010f6 f i AllContentModel.obj
 0001:000000f6       ??4XMLBufferFullHandler@xercesc_2_8@@QAEAAV01@ABV01@@Z 120010f6 f i Base64.obj
 0001:000000f6       ??4PSVIDefs@xercesc_2_8@@QAEAAV01@ABV01@@Z 120010f6 f i XMLElementDecl.obj
 0001:000000f6       ??4Base64@xercesc_2_8@@QAEAAV01@ABV01@@Z 120010f6 f i Base64.obj
 0001:000000f6       ??4XMLUni@xercesc_2_8@@QAEAAV01@ABV01@@Z 120010f6 f i Base64.obj
 0001:000000f6       ??4XMLUniCharacter@xercesc_2_8@@QAEAAV01@ABV01@@Z 120010f6 f i RegularExpression.obj
 0001:000000f6       ??4XMLChar1_0@xercesc_2_8@@QAEAAV01@ABV01@@Z 120010f6 f i Base64.obj
 0001:000000f6       ??4OutOfMemoryException@xercesc_2_8@@QAEAAV01@ABV01@@Z 120010f6 f i QName.obj
 0001:000000f6       ??4XMLChar1_1@xercesc_2_8@@QAEAAV01@ABV01@@Z 120010f6 f i Base64.obj
 0001:000000f6       ??4XUtil@xercesc_2_8@@QAEAAV01@ABV01@@Z 120010f6 f i SchemaInfo.obj
 0001:000000f6       ??4XMLPlatformUtils@xercesc_2_8@@QAEAAV01@ABV01@@Z 120010f6 f i Base64.obj
 0001:000000f6       ??4XMLScannerResolver@xercesc_2_8@@QAEAAV01@ABV01@@Z 120010f6 f i XMLScannerResolver.obj
 0001:000000f6       ??4DOMImplementationRegistry@xercesc_2_8@@QAEAAV01@ABV01@@Z 120010f6 f i AbstractDOMParser.obj
 0001:000000f6       ??4RegxUtil@xercesc_2_8@@QAEAAV01@ABV01@@Z 120010f6 f i RegularExpression.obj
 0001:000000f6       ??4XMemory@xercesc_2_8@@QAEAAV01@ABV01@@Z 120010f6 f i Base64.obj
 0001:000000f6       ??4XSConstants@xercesc_2_8@@QAEAAV01@ABV01@@Z 120010f6 f i XMLAttr.obj
 0001:000000f6       ??4XPathSymbols@xercesc_2_8@@QAEAAV01@ABV01@@Z 120010f6 f i XercesXPath.obj
 0001:000000f6       ??4XMLString@xercesc_2_8@@QAEAAV01@ABV01@@Z 120010f6 f i Base64.obj
 0001:000000f6       ??0OutOfMemoryException@xercesc_2_8@@QAE@ABV01@@Z 120010f6 f i QName.obj
 0001:000000f6       ??4SchemaSymbols@xercesc_2_8@@QAEAAV01@ABV01@@Z 120010f6 f i XMLAttr.obj
 0001:000000fb       ??0DOMError@xercesc_2_8@@IAE@XZ 120010fb f i Base64.obj
 0001:00000104       ??1DOMError@xercesc_2_8@@UAE@XZ 12001104 f i Base64.obj
 0001:0000010b       ??_EDOMError@xercesc_2_8@@UAEPAXI@Z 1200110b f i Base64.obj
 0001:00000155       ??1XMLErrorReporter@xercesc_2_8@@UAE@XZ 12001155 f i Base64.obj
 0001:0000015c       ??0XMLErrorReporter@xercesc_2_8@@IAE@XZ 1200115c f i Base64.obj
 0001:00000165       ??_EXMLErrorReporter@xercesc_2_8@@UAEPAXI@Z 12001165 f i Base64.obj
 0001:000001af       ?getSrcFile@XMLException@xercesc_2_8@@QBEPBDXZ 120011af f i Base64.obj
 0001:000001bc       ?getErrorType@XMLException@xercesc_2_8@@QBE?AW4ErrTypes@XMLErrorReporter@2@XZ 120011bc f i Base64.obj
 0001:000001f2       ??0ArrayIndexOutOfBoundsException@xercesc_2_8@@QAE@QBDIW4Codes@XMLExcepts@1@PAVMemoryManager@1@@Z 120011f2 f i Base64.obj
 0001:0000022f       ??0ArrayIndexOutOfBoundsException@xercesc_2_8@@QAE@ABV01@@Z 1200122f f i Base64.obj
 0001:00000247       ??0ArrayIndexOutOfBoundsException@xercesc_2_8@@QAE@QBDIW4Codes@XMLExcepts@1@QB_W222PAVMemoryManager@1@@Z 12001247 f i Base64.obj
 0001:00000290       ??0ArrayIndexOutOfBoundsException@xercesc_2_8@@QAE@QBDIW4Codes@XMLExcepts@1@0000PAVMemoryManager@1@@Z 12001290 f i Base64.obj
 0001:000002d9       ??1ArrayIndexOutOfBoundsException@xercesc_2_8@@UAE@XZ 120012d9 f i Base64.obj
 0001:000002e4       ?duplicate@ArrayIndexOutOfBoundsException@xercesc_2_8@@UBEPAVXMLException@2@XZ 120012e4 f i Base64.obj
 0001:0000031b       ?getType@ArrayIndexOutOfBoundsException@xercesc_2_8@@UBEPB_WXZ 1200131b f i Base64.obj
 0001:00000321       ??_EArrayIndexOutOfBoundsException@xercesc_2_8@@UAEPAXI@Z 12001321 f i Base64.obj
 0001:00000370       ??0PanicHandler@xercesc_2_8@@IAE@XZ 12001370 f i Base64.obj
 0001:00000379       ??_EPanicHandler@xercesc_2_8@@UAEPAXI@Z 12001379 f i Base64.obj
 0001:000003c3       ??_EXMLDeleter@xercesc_2_8@@UAEPAXI@Z 120013c3 f i Base64.obj
 0001:0000040d       ??0XMLPlatformUtilsException@xercesc_2_8@@QAE@QBDIW4Codes@XMLExcepts@1@PAVMemoryManager@1@@Z 1200140d f i Base64.obj
 0001:0000044a       ??0XMLPlatformUtilsException@xercesc_2_8@@QAE@ABV01@@Z 1200144a f i Base64.obj
 0001:00000462       ??0XMLPlatformUtilsException@xercesc_2_8@@QAE@QBDIW4Codes@XMLExcepts@1@QB_W222PAVMemoryManager@1@@Z 12001462 f i Base64.obj
 0001:000004ab       ??0XMLPlatformUtilsException@xercesc_2_8@@QAE@QBDIW4Codes@XMLExcepts@1@0000PAVMemoryManager@1@@Z 120014ab f i Base64.obj
 0001:000004f4       ??1XMLPlatformUtilsException@xercesc_2_8@@UAE@XZ 120014f4 f i Base64.obj
 0001:000004ff       ?duplicate@XMLPlatformUtilsException@xercesc_2_8@@UBEPAVXMLException@2@XZ 120014ff f i Base64.obj
 0001:00000536       ?getType@XMLPlatformUtilsException@xercesc_2_8@@UBEPB_WXZ 12001536 f i Base64.obj
 0001:0000053c       ??_EXMLPlatformUtilsException@xercesc_2_8@@UAEPAXI@Z 1200153c f i Base64.obj
 0001:0000058b       ?alignPointerForNewBlockAllocation@XMLPlatformUtils@xercesc_2_8@@SAII@Z 1200158b f i Base64.obj
 0001:0000059c       ??1XMLDeleter@xercesc_2_8@@UAE@XZ 1200159c f i Base64.obj
 0001:000005a3       ??0XMLDeleter@xercesc_2_8@@IAE@XZ 120015a3 f i Base64.obj
 0001:000005ac       ??0XMLBuffer@xercesc_2_8@@QAE@IQAVMemoryManager@1@@Z 120015ac f i Base64.obj
 0001:000005e5       ??1XMLBuffer@xercesc_2_8@@QAE@XZ 120015e5 f i Base64.obj
 0001:000005f3       ?setFullHandler@XMLBuffer@xercesc_2_8@@QAEXPAVXMLBufferFullHandler@2@I@Z 120015f3 f i Base64.obj
 0001:00000625       ?append@XMLBuffer@xercesc_2_8@@QAEX_W@Z 12001625 f i Base64.obj
 0001:0000064c       ?append@XMLBuffer@xercesc_2_8@@QAEXQB_WI@Z 1200164c f i Base64.obj
 0001:00000694       ?append@XMLBuffer@xercesc_2_8@@QAEXQB_W@Z 12001694 f i Base64.obj
 0001:000006e0       ?set@XMLBuffer@xercesc_2_8@@QAEXQB_WI@Z 120016e0 f i Base64.obj
 0001:000006f5       ?set@XMLBuffer@xercesc_2_8@@QAEXQB_W@Z 120016f5 f i Base64.obj
 0001:000006fd       ?getRawBuffer@XMLBuffer@xercesc_2_8@@QAEPA_WXZ 120016fd f i Base64.obj
 0001:000006fd       ?getRawBuffer@XMLBuffer@xercesc_2_8@@QBEPB_WXZ 120016fd f i Base64.obj
 0001:0000070b       ?reset@XMLBuffer@xercesc_2_8@@QAEXXZ 1200170b f i Base64.obj
 0001:00000716       ?isEmpty@XMLBuffer@xercesc_2_8@@QBE_NXZ 12001716 f i Base64.obj
 0001:0000071e       ??_FXMLBuffer@xercesc_2_8@@QAEXXZ 1200171e f i Base64.obj
 0001:0000072f       ??1XMLBufferFullHandler@xercesc_2_8@@UAE@XZ 1200172f f i Base64.obj
 0001:00000736       ??0XMLBufferFullHandler@xercesc_2_8@@QAE@XZ 12001736 f i Base64.obj
 0001:0000073f       ??0XMLBufferFullHandler@xercesc_2_8@@QAE@ABV01@@Z 1200173f f i Base64.obj
 0001:0000074a       ??_EXMLBufferFullHandler@xercesc_2_8@@UAEPAXI@Z 1200174a f i Base64.obj
 0001:00000794       ?moveChars@XMLString@xercesc_2_8@@SAXQA_WQB_WI@Z 12001794 f i Base64.obj
 0001:000007ac       ?stringLen@XMLString@xercesc_2_8@@SAIQB_W@Z 120017ac f i Base64.obj
 0001:000007cf       ?replicate@XMLString@xercesc_2_8@@SAPA_WQB_WQAVMemoryManager@2@@Z 120017cf f i Base64.obj
 0001:00000806       ?startsWith@XMLString@xercesc_2_8@@SA_NQB_W0@Z 12001806 f i Base64.obj
 0001:00000826       ?startsWithI@XMLString@xercesc_2_8@@SA_NQB_W0@Z 12001826 f i Base64.obj
 0001:00000846       ?endsWith@XMLString@xercesc_2_8@@SA_NQB_W0@Z 12001846 f i Base64.obj
 0001:00000875       ?validateRegion@XMLString@xercesc_2_8@@CA_NQB_WH0HI@Z 12001875 f i Base64.obj
 0001:000008b5       ?equals@XMLString@xercesc_2_8@@SA_NQB_W0@Z 120018b5 f i Base64.obj
 0001:000008fa       ?equals@XMLString@xercesc_2_8@@SA_NQBD0@Z 120018fa f i Base64.obj
 0001:00000934       ?lastIndexOf@XMLString@xercesc_2_8@@SAHQB_W_W@Z 12001934 f i Base64.obj
 0001:0000094f       ?hash@XMLString@xercesc_2_8@@SAIQB_WIQAVMemoryManager@2@@Z 1200194f f i Base64.obj
 0001:00000994       ?isXMLLetter@XMLChar1_0@xercesc_2_8@@SA_N_W0@Z 12001994 f i Base64.obj
 0001:000009c0       ?isFirstNameChar@XMLChar1_0@xercesc_2_8@@SA_N_W0@Z 120019c0 f i Base64.obj
 0001:000009dd       ?isFirstNCNameChar@XMLChar1_0@xercesc_2_8@@SA_N_W0@Z 120019dd f i Base64.obj
 0001:00000a01       ?isNameChar@XMLChar1_0@xercesc_2_8@@SA_N_W0@Z 12001a01 f i Base64.obj
 0001:00000a1f       ?isNCNameChar@XMLChar1_0@xercesc_2_8@@SA_N_W0@Z 12001a1f f i Base64.obj
 0001:00000a3a       ?isPlainContentChar@XMLChar1_0@xercesc_2_8@@SA_N_W0@Z 12001a3a f i Base64.obj
 0001:00000a78       ?isSpecialStartTagChar@XMLChar1_0@xercesc_2_8@@SA_N_W0@Z 12001a78 f i Base64.obj
 0001:00000a96       ?isXMLChar@XMLChar1_0@xercesc_2_8@@SA_N_W0@Z 12001a96 f i Base64.obj
 0001:00000ad4       ?isWhitespace@XMLChar1_0@xercesc_2_8@@SA_N_W@Z 12001ad4 f i Base64.obj
 0001:00000ae4       ?isWhitespace@XMLChar1_0@xercesc_2_8@@SA_N_W0@Z 12001ae4 f i Base64.obj
 0001:00000aff       ?isControlChar@XMLChar1_0@xercesc_2_8@@SA_N_W0@Z 12001aff f i Base64.obj
 0001:00000b1d       ?isNELRecognized@XMLPlatformUtils@xercesc_2_8@@SA_NXZ 12001b1d f i PlatformUtils.obj
 0001:00000b1d       ?isNELRecognized@XMLChar1_0@xercesc_2_8@@SA_NXZ 12001b1d f i Base64.obj
 0001:00000b23       ?isXMLLetter@XMLChar1_1@xercesc_2_8@@SA_N_W0@Z 12001b23 f i Base64.obj
 0001:00000b28       ?isFirstNameChar@XMLChar1_1@xercesc_2_8@@SA_N_W0@Z 12001b28 f i Base64.obj
 0001:00000b65       ?isFirstNCNameChar@XMLChar1_1@xercesc_2_8@@SA_N_W0@Z 12001b65 f i Base64.obj
 0001:00000bad       ?isNameChar@XMLChar1_1@xercesc_2_8@@SA_N_W0@Z 12001bad f i Base64.obj
 0001:00000beb       ?isNCNameChar@XMLChar1_1@xercesc_2_8@@SA_N_W0@Z 12001beb f i Base64.obj
 0001:00000c26       ?isPlainContentChar@XMLChar1_1@xercesc_2_8@@SA_N_W0@Z 12001c26 f i Base64.obj
 0001:00000c64       ?isSpecialStartTagChar@XMLChar1_1@xercesc_2_8@@SA_N_W0@Z 12001c64 f i Base64.obj
 0001:00000c82       ?isXMLChar@XMLChar1_1@xercesc_2_8@@SA_N_W0@Z 12001c82 f i Base64.obj
 0001:00000cc0       ?isWhitespace@XMLChar1_1@xercesc_2_8@@SA_N_W0@Z 12001cc0 f i Base64.obj
 0001:00000cdb       ?isControlChar@XMLChar1_1@xercesc_2_8@@SA_N_W0@Z 12001cdb f i Base64.obj
 0001:00000cf9       ??0TranscodingException@xercesc_2_8@@QAE@QBDIW4Codes@XMLExcepts@1@PAVMemoryManager@1@@Z 12001cf9 f i Base64.obj
 0001:00000d36       ??0TranscodingException@xercesc_2_8@@QAE@ABV01@@Z 12001d36 f i Base64.obj
 0001:00000d4e       ??0TranscodingException@xercesc_2_8@@QAE@QBDIW4Codes@XMLExcepts@1@QB_W222PAVMemoryManager@1@@Z 12001d4e f i Base64.obj
 0001:00000d97       ??0TranscodingException@xercesc_2_8@@QAE@QBDIW4Codes@XMLExcepts@1@0000PAVMemoryManager@1@@Z 12001d97 f i Base64.obj
 0001:00000de0       ??1TranscodingException@xercesc_2_8@@UAE@XZ 12001de0 f i Base64.obj
 0001:00000deb       ?duplicate@TranscodingException@xercesc_2_8@@UBEPAVXMLException@2@XZ 12001deb f i Base64.obj
 0001:00000e22       ?getType@TranscodingException@xercesc_2_8@@UBEPB_WXZ 12001e22 f i Base64.obj
 0001:00000e28       ??_ETranscodingException@xercesc_2_8@@UAEPAXI@Z 12001e28 f i Base64.obj
 0001:00000e77       ?isNameChar@XMLReader@xercesc_2_8@@QBE_N_W@Z 12001e77 f i Base64.obj
 0001:00000e8f       ?isNCNameChar@XMLReader@xercesc_2_8@@QBE_N_W@Z 12001e8f f i Base64.obj
 0001:00000ea4       ?isPlainContentChar@XMLReader@xercesc_2_8@@QBE_N_W@Z 12001ea4 f i Base64.obj
 0001:00000ebc       ?isFirstNameChar@XMLReader@xercesc_2_8@@QBE_N_W@Z 12001ebc f i Base64.obj
 0001:00000ed3       ?isFirstNCNameChar@XMLReader@xercesc_2_8@@QBE_N_W@Z 12001ed3 f i Base64.obj
 0001:00000ef6       ?isSpecialStartTagChar@XMLReader@xercesc_2_8@@QBE_N_W@Z 12001ef6 f i Base64.obj
 0001:00000f0e       ?isXMLChar@XMLReader@xercesc_2_8@@QBE_N_W@Z 12001f0e f i Base64.obj
 0001:00000f26       ?isXMLLetter@XMLReader@xercesc_2_8@@QBE_N_W@Z 12001f26 f i Base64.obj
 0001:00000f50       ?isWhitespace@XMLReader@xercesc_2_8@@QBE_N_W@Z 12001f50 f i Base64.obj
 0001:00000f65       ?isControlChar@XMLReader@xercesc_2_8@@QBE_N_W@Z 12001f65 f i Base64.obj
 0001:00000f7d       ?charsLeftInBuffer@XMLReader@xercesc_2_8@@QBEKXZ 12001f7d f i Base64.obj
 0001:00000f86       ?getColumnNumber@XMLReader@xercesc_2_8@@QBEJXZ 12001f86 f i Base64.obj
 0001:00000f8d       ?getEncodingStr@XMLReader@xercesc_2_8@@QBEPB_WXZ 12001f8d f i Base64.obj
 0001:00000f94       ?getLineNumber@XMLReader@xercesc_2_8@@QBEJXZ 12001f94 f i Base64.obj
 0001:00000f9b       ?getNoMoreFlag@XMLReader@xercesc_2_8@@QBE_NXZ 12001f9b f i Base64.obj
 0001:00000fa2       ?getPublicId@XMLReader@xercesc_2_8@@QBEPB_WXZ 12001fa2 f i Base64.obj
 0001:00000fa9       ?getReaderNum@XMLReader@xercesc_2_8@@QBEIXZ 12001fa9 f i Base64.obj
 0001:00000fb0       ?getRefFrom@XMLReader@xercesc_2_8@@QBE?AW4RefFrom@12@XZ 12001fb0 f i Base64.obj
 0001:00000fb7       ?getSource@XMLReader@xercesc_2_8@@QBE?AW4Sources@12@XZ 12001fb7 f i Base64.obj
 0001:00000fbe       ?getSystemId@XMLReader@xercesc_2_8@@QBEPB_WXZ 12001fbe f i Base64.obj
 0001:00000fc5       ?getThrowAtEnd@XMLReader@xercesc_2_8@@QBE_NXZ 12001fc5 f i Base64.obj
 0001:00000fcc       ?getType@XMLReader@xercesc_2_8@@QBE?AW4Types@12@XZ 12001fcc f i Base64.obj
 0001:00000fd3       ?setReaderNum@XMLReader@xercesc_2_8@@QAEXI@Z 12001fd3 f i Base64.obj
 0001:00000fe0       ?setThrowAtEnd@XMLReader@xercesc_2_8@@QAEX_N@Z 12001fe0 f i Base64.obj
 0001:00000fed       ?setXMLVersion@XMLReader@xercesc_2_8@@QAEXW4XMLVersion@12@@Z 12001fed f i Base64.obj
 0001:00001026       ?movePlainContentChars@XMLReader@xercesc_2_8@@QAEXAAVXMLBuffer@2@@Z 12002026 f i Base64.obj
 0001:00001078       ?getNextCharIfNot@XMLReader@xercesc_2_8@@QAE_N_WAA_W@Z 12002078 f i Base64.obj
 0001:000010d9       ?getNextChar@XMLReader@xercesc_2_8@@QAE_NAA_W@Z 120020d9 f i Base64.obj
 0001:00001134       ?peekNextChar@XMLReader@xercesc_2_8@@QAE_NAA_W@Z 12002134 f i Base64.obj
 0001:000011bb       ?encode@Base64@xercesc_2_8@@SAPAEQBEIPAIQAVMemoryManager@2@@Z 120021bb f   Base64.obj
 0001:0000136c       ?getDataLength@Base64@xercesc_2_8@@SAHQB_WQAVMemoryManager@2@W4Conformance@12@@Z 1200236c f   Base64.obj
 0001:000013a1       ?decode@Base64@xercesc_2_8@@SAPAEQBEPAIQAVMemoryManager@2@W4Conformance@12@@Z 120023a1 f   Base64.obj
 0001:000013d9       ?decode@Base64@xercesc_2_8@@SAPA_WQB_WPAIQAVMemoryManager@2@W4Conformance@12@@Z 120023d9 f   Base64.obj
 0001:0000149b       ?decodeToXMLByte@Base64@xercesc_2_8@@SAPAEQB_WPAIQAVMemoryManager@2@W4Conformance@12@@Z 1200249b f   Base64.obj
 0001:00001526       ?getCanonicalRepresentation@Base64@xercesc_2_8@@SAPA_WQB_WQAVMemoryManager@2@W4Conformance@12@@Z 12002526 f   Base64.obj
 0001:00001617       ?decode@Base64@xercesc_2_8@@CAPAEQBEPAIAAPAEQAVMemoryManager@2@W4Conformance@12@@Z 12002617 f   Base64.obj
 0001:000018db       ?isData@Base64@xercesc_2_8@@CA_NABE@Z 120028db f   Base64.obj
 0001:000018f1       ??_EBinFileInputStream@xercesc_2_8@@UAEPAXI@Z 120028f1 f i BinFileInputStream.obj
 0001:0000193a       ?hasChildNodes@DOMParentNode@xercesc_2_8@@QBE_NXZ 1200293a f i DOMParentNode.obj
 0001:0000193a       ?getIsOpen@BinFileOutputStream@xercesc_2_8@@QBE_NXZ 1200293a f i BinFileOutputStream.obj
 0001:0000193a       ?getIsOpen@BinFileInputStream@xercesc_2_8@@QBE_NXZ 1200293a f i BinFileInputStream.obj
 0001:00001943       ??0BinFileInputStream@xercesc_2_8@@QAE@QB_WQAVMemoryManager@1@@Z 12002943 f   BinFileInputStream.obj
 0001:0000197c       ??0BinFileInputStream@xercesc_2_8@@QAE@QBDQAVMemoryManager@1@@Z 1200297c f   BinFileInputStream.obj
 0001:000019a3       ??0BinFileInputStream@xercesc_2_8@@QAE@QAXQAVMemoryManager@1@@Z 120029a3 f   BinFileInputStream.obj
 0001:000019bc       ??1BinFileInputStream@xercesc_2_8@@UAE@XZ 120029bc f   BinFileInputStream.obj
 0001:000019f5       ?curPos@BinFileOutputStream@xercesc_2_8@@UBEIXZ 120029f5 f   BinFileOutputStream.obj
 0001:000019f5       ?curPos@BinFileInputStream@xercesc_2_8@@UBEIXZ 120029f5 f   BinFileInputStream.obj
 0001:00001a03       ?readBytes@BinFileInputStream@xercesc_2_8@@UAEIQAEI@Z 12002a03 f   BinFileInputStream.obj
 0001:00001a1c       ??_EBinInputStream@xercesc_2_8@@UAEPAXI@Z 12002a1c f i BinInputStream.obj
 0001:00001a66       ??1BinInputStream@xercesc_2_8@@UAE@XZ 12002a66 f   BinInputStream.obj
 0001:00001a6d       ??0BinInputStream@xercesc_2_8@@IAE@XZ 12002a6d f   BinInputStream.obj
 0001:00001a76       ??_EBinMemInputStream@xercesc_2_8@@UAEPAXI@Z 12002a76 f i BinMemInputStream.obj
 0001:00001abf       ?reset@BinMemInputStream@xercesc_2_8@@QAEXXZ 12002abf f i BinMemInputStream.obj
 0001:00001abf       ?reset@PSVIAttributeList@xercesc_2_8@@QAEXXZ 12002abf f i PSVIAttributeList.obj
 0001:00001ac4       ??0BinMemInputStream@xercesc_2_8@@QAE@QBEIW4BufOpts@01@QAVMemoryManager@1@@Z 12002ac4 f   BinMemInputStream.obj
 0001:00001b27       ??1BinMemInputStream@xercesc_2_8@@UAE@XZ 12002b27 f   BinMemInputStream.obj
 0001:00001b65       ?readBytes@BinMemInputStream@xercesc_2_8@@UAEIQAEI@Z 12002b65 f   BinMemInputStream.obj
 0001:00001b9e       ??0BitSet@xercesc_2_8@@QAE@IQAVMemoryManager@1@@Z 12002b9e f   BitSet.obj
 0001:00001bbe       ??0BitSet@xercesc_2_8@@QAE@ABV01@@Z 12002bbe f   BitSet.obj
 0001:00001c02       ??1BitSet@xercesc_2_8@@QAE@XZ 12002c02 f   BitSet.obj
 0001:00001c0f       ?equals@BitSet@xercesc_2_8@@QBE_NABV12@@Z 12002c0f f   BitSet.obj
 0001:00001c51       ?get@BitSet@xercesc_2_8@@QBE_NI@Z 12002c51 f   BitSet.obj
 0001:00001c7c       ?size@BitSet@xercesc_2_8@@QBEIXZ 12002c7c f   BitSet.obj
 0001:00001c83       ?allAreCleared@BitSet@xercesc_2_8@@QBE_NXZ 12002c83 f   BitSet.obj
 0001:00001ca2       ?allAreSet@BitSet@xercesc_2_8@@QBE_NXZ 12002ca2 f   BitSet.obj
 0001:00001cc1       ?clearAll@BitSet@xercesc_2_8@@QAEXXZ 12002cc1 f   BitSet.obj
 0001:00001cd6       ?clear@BitSet@xercesc_2_8@@QAEXI@Z 12002cd6 f   BitSet.obj
 0001:00001d05       ?set@BitSet@xercesc_2_8@@QAEXI@Z 12002d05 f   BitSet.obj
 0001:00001d32       ?andWith@BitSet@xercesc_2_8@@QAEXABV12@@Z 12002d32 f   BitSet.obj
 0001:00001d6b       ?orWith@BitSet@xercesc_2_8@@QAEXABV12@@Z 12002d6b f   BitSet.obj
 0001:00001da4       ?xorWith@BitSet@xercesc_2_8@@QAEXABV12@@Z 12002da4 f   BitSet.obj
 0001:00001ddd       ?hash@BitSet@xercesc_2_8@@QBEII@Z 12002ddd f   BitSet.obj
 0001:00001e00       ?ensureCapacity@BitSet@xercesc_2_8@@AAEXI@Z 12002e00 f   BitSet.obj
 0001:00001e72       ??0DefaultPanicHandler@xercesc_2_8@@QAE@XZ 12002e72 f i DefaultPanicHandler.obj
 0001:00001e7b       ??1PanicHandler@xercesc_2_8@@UAE@XZ 12002e7b f i Base64.obj
 0001:00001e7b       ??1DefaultPanicHandler@xercesc_2_8@@UAE@XZ 12002e7b f i DefaultPanicHandler.obj
 0001:00001e82       ??_EDefaultPanicHandler@xercesc_2_8@@UAEPAXI@Z 12002e82 f i DefaultPanicHandler.obj
 0001:00001ecc       ?panic@DefaultPanicHandler@xercesc_2_8@@UAEXW4PanicReasons@PanicHandler@2@@Z 12002ecc f   DefaultPanicHandler.obj
 0001:00001efa       ??0HashBase@xercesc_2_8@@QAE@XZ 12002efa f i EncodingValidator.obj
 0001:00001f03       ??0IllegalArgumentException@xercesc_2_8@@QAE@QBDIW4Codes@XMLExcepts@1@PAVMemoryManager@1@@Z 12002f03 f i EncodingValidator.obj
 0001:00001f40       ??0IllegalArgumentException@xercesc_2_8@@QAE@ABV01@@Z 12002f40 f i EncodingValidator.obj
 0001:00001f58       ??0IllegalArgumentException@xercesc_2_8@@QAE@QBDIW4Codes@XMLExcepts@1@QB_W222PAVMemoryManager@1@@Z 12002f58 f i EncodingValidator.obj
 0001:00001fa1       ??0IllegalArgumentException@xercesc_2_8@@QAE@QBDIW4Codes@XMLExcepts@1@0000PAVMemoryManager@1@@Z 12002fa1 f i EncodingValidator.obj
 0001:00001fea       ??1IllegalArgumentException@xercesc_2_8@@UAE@XZ 12002fea f i EncodingValidator.obj
 0001:00001ff5       ?duplicate@IllegalArgumentException@xercesc_2_8@@UBEPAVXMLException@2@XZ 12002ff5 f i EncodingValidator.obj
 0001:0000202c       ?getType@IllegalArgumentException@xercesc_2_8@@UBEPB_WXZ 1200302c f i EncodingValidator.obj
 0001:00002032       ??_EIllegalArgumentException@xercesc_2_8@@UAEPAXI@Z 12003032 f i EncodingValidator.obj
 0001:00002081       ??0NoSuchElementException@xercesc_2_8@@QAE@QBDIW4Codes@XMLExcepts@1@PAVMemoryManager@1@@Z 12003081 f i EncodingValidator.obj
 0001:000020be       ??0NoSuchElementException@xercesc_2_8@@QAE@ABV01@@Z 120030be f i EncodingValidator.obj
 0001:000020d6       ??0NoSuchElementException@xercesc_2_8@@QAE@QBDIW4Codes@XMLExcepts@1@QB_W222PAVMemoryManager@1@@Z 120030d6 f i EncodingValidator.obj
 0001:0000211f       ??0NoSuchElementException@xercesc_2_8@@QAE@QBDIW4Codes@XMLExcepts@1@0000PAVMemoryManager@1@@Z 1200311f f i EncodingValidator.obj
 0001:00002168       ??1NoSuchElementException@xercesc_2_8@@UAE@XZ 12003168 f i EncodingValidator.obj
 0001:00002173       ?duplicate@NoSuchElementException@xercesc_2_8@@UBEPAVXMLException@2@XZ 12003173 f i EncodingValidator.obj
 0001:000021aa       ?getType@NoSuchElementException@xercesc_2_8@@UBEPB_WXZ 120031aa f i EncodingValidator.obj
 0001:000021b0       ??_ENoSuchElementException@xercesc_2_8@@UAEPAXI@Z 120031b0 f i EncodingValidator.obj
 0001:000021ff       ??0RuntimeException@xercesc_2_8@@QAE@QBDIW4Codes@XMLExcepts@1@PAVMemoryManager@1@@Z 120031ff f i EncodingValidator.obj
 0001:0000223c       ??0RuntimeException@xercesc_2_8@@QAE@ABV01@@Z 1200323c f i EncodingValidator.obj
 0001:00002254       ??0RuntimeException@xercesc_2_8@@QAE@QBDIW4Codes@XMLExcepts@1@QB_W222PAVMemoryManager@1@@Z 12003254 f i EncodingValidator.obj
 0001:0000229d       ??0RuntimeException@xercesc_2_8@@QAE@QBDIW4Codes@XMLExcepts@1@0000PAVMemoryManager@1@@Z 1200329d f i EncodingValidator.obj
 0001:000022e6       ??1RuntimeException@xercesc_2_8@@UAE@XZ 120032e6 f i EncodingValidator.obj
 0001:000022f1       ?duplicate@RuntimeException@xercesc_2_8@@UBEPAVXMLException@2@XZ 120032f1 f i EncodingValidator.obj
 0001:00002328       ?getType@RuntimeException@xercesc_2_8@@UBEPB_WXZ 12003328 f i EncodingValidator.obj
 0001:0000232e       ??_ERuntimeException@xercesc_2_8@@UAEPAXI@Z 1200332e f i EncodingValidator.obj
 0001:0000237d       ??0NullPointerException@xercesc_2_8@@QAE@QBDIW4Codes@XMLExcepts@1@PAVMemoryManager@1@@Z 1200337d f i EncodingValidator.obj
 0001:000023ba       ??0NullPointerException@xercesc_2_8@@QAE@ABV01@@Z 120033ba f i EncodingValidator.obj
 0001:000023d2       ??0NullPointerException@xercesc_2_8@@QAE@QBDIW4Codes@XMLExcepts@1@QB_W222PAVMemoryManager@1@@Z 120033d2 f i EncodingValidator.obj
 0001:0000241b       ??0NullPointerException@xercesc_2_8@@QAE@QBDIW4Codes@XMLExcepts@1@0000PAVMemoryManager@1@@Z 1200341b f i EncodingValidator.obj
 0001:00002464       ??1NullPointerException@xercesc_2_8@@UAE@XZ 12003464 f i EncodingValidator.obj
 0001:0000246f       ?duplicate@NullPointerException@xercesc_2_8@@UBEPAVXMLException@2@XZ 1200346f f i EncodingValidator.obj
 0001:000024a6       ?getType@NullPointerException@xercesc_2_8@@UBEPB_WXZ 120034a6 f i EncodingValidator.obj
 0001:000024ac       ??_ENullPointerException@xercesc_2_8@@UAEPAXI@Z 120034ac f i EncodingValidator.obj
 0001:000024fb       ??4EncodingValidator@xercesc_2_8@@QAEAAV01@ABV01@@Z 120034fb f i EncodingValidator.obj
 0001:00002508       ??_FXMLMutex@xercesc_2_8@@QAEXXZ 12003508 f i EncodingValidator.obj
 0001:000025b4       ?initializeEncodingValidator@XMLInitializer@xercesc_2_8@@CAXXZ 120035b4 f   EncodingValidator.obj
 0001:000025fc       ??0EncodingValidator@xercesc_2_8@@AAE@XZ 120035fc f   EncodingValidator.obj
 0001:0000260b       ??1EncodingValidator@xercesc_2_8@@AAE@XZ 1200360b f   EncodingValidator.obj
 0001:00002620       ?isValidEncoding@EncodingValidator@xercesc_2_8@@QAE_NQB_W@Z 12003620 f   EncodingValidator.obj
 0001:00002660       ?initializeRegistry@EncodingValidator@xercesc_2_8@@AAEXXZ 12003660 f   EncodingValidator.obj
 0001:000026b4       ?instance@EncodingValidator@xercesc_2_8@@SAPAV12@XZ 120036b4 f   EncodingValidator.obj
 0001:0000272c       ?reinitInstance@EncodingValidator@xercesc_2_8@@SAXXZ 1200372c f   EncodingValidator.obj
 0001:0000274e       ??0?$ValueHashTableOf@_N@xercesc_2_8@@QAE@IQAVMemoryManager@1@@Z 1200374e f i EncodingValidator.obj
 0001:0000278c       ?put@?$ValueHashTableOf@_N@xercesc_2_8@@QAEXPAXAB_N@Z 1200378c f i EncodingValidator.obj
 0001:000027db       ?initialize@?$ValueHashTableOf@_N@xercesc_2_8@@AAEXI@Z 120037db f i EncodingValidator.obj
 0001:000027ff       ??_EHashXMLCh@xercesc_2_8@@UAEPAXI@Z 120037ff f i HashXMLCh.obj
 0001:000027ff       ??_EHashPtr@xercesc_2_8@@UAEPAXI@Z 120037ff f i HashPtr.obj
 0001:000027ff       ??_EHashBase@xercesc_2_8@@UAEPAXI@Z 120037ff f i EncodingValidator.obj
 0001:00002849       ??0HashPtr@xercesc_2_8@@QAE@XZ 12003849 f   HashPtr.obj
 0001:00002852       ??1HashBase@xercesc_2_8@@UAE@XZ 12003852 f   EncodingValidator.obj
 0001:00002852       ??1HashPtr@xercesc_2_8@@UAE@XZ 12003852 f   HashPtr.obj
 0001:00002852       ??1HashCMStateSet@xercesc_2_8@@UAE@XZ 12003852 f   DFAContentModel.obj
 0001:00002852       ??1HashXMLCh@xercesc_2_8@@UAE@XZ 12003852 f   HashXMLCh.obj
 0001:00002859       ?getHashVal@HashPtr@xercesc_2_8@@UAEIQBXIQAVMemoryManager@2@@Z 12003859 f   HashPtr.obj
 0001:00002868       ?equals@HashPtr@xercesc_2_8@@UAE_NQBX0@Z 12003868 f   HashPtr.obj
 0001:00002878       ??0HashXMLCh@xercesc_2_8@@QAE@XZ 12003878 f   HashXMLCh.obj
 0001:00002881       ?getHashVal@HashXMLCh@xercesc_2_8@@UAEIQBXIQAVMemoryManager@2@@Z 12003881 f   HashXMLCh.obj
 0001:00002898       ?equals@HashXMLCh@xercesc_2_8@@UAE_NQBX0@Z 12003898 f   HashXMLCh.obj
 0001:000028af       ?swapBytes@BitOps@xercesc_2_8@@SA_WG@Z 120038af f i HeaderDummy.obj
 0001:000028bf       ?swapBytes@BitOps@xercesc_2_8@@SAII@Z 120038bf f i HeaderDummy.obj
 0001:000028e7       ??0EmptyStackException@xercesc_2_8@@QAE@QBDIW4Codes@XMLExcepts@1@PAVMemoryManager@1@@Z 120038e7 f i HeaderDummy.obj
 0001:00002924       ??0EmptyStackException@xercesc_2_8@@QAE@ABV01@@Z 12003924 f i HeaderDummy.obj
 0001:0000293c       ??0EmptyStackException@xercesc_2_8@@QAE@QBDIW4Codes@XMLExcepts@1@QB_W222PAVMemoryManager@1@@Z 1200393c f i HeaderDummy.obj
 0001:00002985       ??0EmptyStackException@xercesc_2_8@@QAE@QBDIW4Codes@XMLExcepts@1@0000PAVMemoryManager@1@@Z 12003985 f i HeaderDummy.obj
 0001:000029ce       ??1EmptyStackException@xercesc_2_8@@UAE@XZ 120039ce f i HeaderDummy.obj
 0001:000029d9       ?duplicate@EmptyStackException@xercesc_2_8@@UBEPAVXMLException@2@XZ 120039d9 f i HeaderDummy.obj
 0001:00002a10       ?getType@EmptyStackException@xercesc_2_8@@UBEPB_WXZ 12003a10 f i HeaderDummy.obj
 0001:00002a16       ??_EEmptyStackException@xercesc_2_8@@UAEPAXI@Z 12003a16 f i HeaderDummy.obj
 0001:00002a65       ??0InvalidCastException@xercesc_2_8@@QAE@QBDIW4Codes@XMLExcepts@1@PAVMemoryManager@1@@Z 12003a65 f i HeaderDummy.obj
 0001:00002aa2       ??0InvalidCastException@xercesc_2_8@@QAE@ABV01@@Z 12003aa2 f i HeaderDummy.obj
 0001:00002aba       ??0InvalidCastException@xercesc_2_8@@QAE@QBDIW4Codes@XMLExcepts@1@QB_W222PAVMemoryManager@1@@Z 12003aba f i HeaderDummy.obj
 0001:00002b03       ??0InvalidCastException@xercesc_2_8@@QAE@QBDIW4Codes@XMLExcepts@1@0000PAVMemoryManager@1@@Z 12003b03 f i HeaderDummy.obj
 0001:00002b4c       ??1InvalidCastException@xercesc_2_8@@UAE@XZ 12003b4c f i HeaderDummy.obj
 0001:00002b57       ?duplicate@InvalidCastException@xercesc_2_8@@UBEPAVXMLException@2@XZ 12003b57 f i HeaderDummy.obj
 0001:00002b8e       ?getType@InvalidCastException@xercesc_2_8@@UBEPB_WXZ 12003b8e f i HeaderDummy.obj
 0001:00002b94       ??_EInvalidCastException@xercesc_2_8@@UAEPAXI@Z 12003b94 f i HeaderDummy.obj
 0001:00002be3       ??0IOException@xercesc_2_8@@QAE@QBDIW4Codes@XMLExcepts@1@PAVMemoryManager@1@@Z 12003be3 f i HeaderDummy.obj
 0001:00002c20       ??0IOException@xercesc_2_8@@QAE@ABV01@@Z 12003c20 f i HeaderDummy.obj
 0001:00002c38       ??0IOException@xercesc_2_8@@QAE@QBDIW4Codes@XMLExcepts@1@QB_W222PAVMemoryManager@1@@Z 12003c38 f i HeaderDummy.obj
 0001:00002c81       ??0IOException@xercesc_2_8@@QAE@QBDIW4Codes@XMLExcepts@1@0000PAVMemoryManager@1@@Z 12003c81 f i HeaderDummy.obj
 0001:00002cca       ??1IOException@xercesc_2_8@@UAE@XZ 12003cca f i HeaderDummy.obj
 0001:00002cd5       ?duplicate@IOException@xercesc_2_8@@UBEPAVXMLException@2@XZ 12003cd5 f i HeaderDummy.obj
 0001:00002d0c       ?getType@IOException@xercesc_2_8@@UBEPB_WXZ 12003d0c f i HeaderDummy.obj
 0001:00002d12       ??_EIOException@xercesc_2_8@@UAEPAXI@Z 12003d12 f i HeaderDummy.obj
 0001:00002d61       ??0UnexpectedEOFException@xercesc_2_8@@QAE@QBDIW4Codes@XMLExcepts@1@PAVMemoryManager@1@@Z 12003d61 f i HeaderDummy.obj
 0001:00002d9e       ??0UnexpectedEOFException@xercesc_2_8@@QAE@ABV01@@Z 12003d9e f i HeaderDummy.obj
 0001:00002db6       ??0UnexpectedEOFException@xercesc_2_8@@QAE@QBDIW4Codes@XMLExcepts@1@QB_W222PAVMemoryManager@1@@Z 12003db6 f i HeaderDummy.obj
 0001:00002dff       ??0UnexpectedEOFException@xercesc_2_8@@QAE@QBDIW4Codes@XMLExcepts@1@0000PAVMemoryManager@1@@Z 12003dff f i HeaderDummy.obj
 0001:00002e48       ??1UnexpectedEOFException@xercesc_2_8@@UAE@XZ 12003e48 f i HeaderDummy.obj
 0001:00002e53       ?duplicate@UnexpectedEOFException@xercesc_2_8@@UBEPAVXMLException@2@XZ 12003e53 f i HeaderDummy.obj
 0001:00002e8a       ?getType@UnexpectedEOFException@xercesc_2_8@@UBEPB_WXZ 12003e8a f i HeaderDummy.obj
 0001:00002e90       ??_EUnexpectedEOFException@xercesc_2_8@@UAEPAXI@Z 12003e90 f i HeaderDummy.obj
 0001:00002edf       ??0UnsupportedEncodingException@xercesc_2_8@@QAE@QBDIW4Codes@XMLExcepts@1@PAVMemoryManager@1@@Z 12003edf f i HeaderDummy.obj
 0001:00002f1c       ??0UnsupportedEncodingException@xercesc_2_8@@QAE@ABV01@@Z 12003f1c f i HeaderDummy.obj
 0001:00002f34       ??0UnsupportedEncodingException@xercesc_2_8@@QAE@QBDIW4Codes@XMLExcepts@1@QB_W222PAVMemoryManager@1@@Z 12003f34 f i HeaderDummy.obj
 0001:00002f7d       ??0UnsupportedEncodingException@xercesc_2_8@@QAE@QBDIW4Codes@XMLExcepts@1@0000PAVMemoryManager@1@@Z 12003f7d f i HeaderDummy.obj
 0001:00002fc6       ??1UnsupportedEncodingException@xercesc_2_8@@UAE@XZ 12003fc6 f i HeaderDummy.obj
 0001:00002fd1       ?duplicate@UnsupportedEncodingException@xercesc_2_8@@UBEPAVXMLException@2@XZ 12003fd1 f i HeaderDummy.obj
 0001:00003008       ?getType@UnsupportedEncodingException@xercesc_2_8@@UBEPB_WXZ 12004008 f i HeaderDummy.obj
 0001:0000300e       ??_EUnsupportedEncodingException@xercesc_2_8@@UAEPAXI@Z 1200400e f i HeaderDummy.obj
 0001:0000305d       ??0UTFDataFormatException@xercesc_2_8@@QAE@QBDIW4Codes@XMLExcepts@1@PAVMemoryManager@1@@Z 1200405d f i HeaderDummy.obj
 0001:0000309a       ??0UTFDataFormatException@xercesc_2_8@@QAE@ABV01@@Z 1200409a f i HeaderDummy.obj
 0001:000030b2       ??0UTFDataFormatException@xercesc_2_8@@QAE@QBDIW4Codes@XMLExcepts@1@QB_W222PAVMemoryManager@1@@Z 120040b2 f i HeaderDummy.obj
 0001:000030fb       ??0UTFDataFormatException@xercesc_2_8@@QAE@QBDIW4Codes@XMLExcepts@1@0000PAVMemoryManager@1@@Z 120040fb f i HeaderDummy.obj
 0001:00003144       ??1UTFDataFormatException@xercesc_2_8@@UAE@XZ 12004144 f i HeaderDummy.obj
 0001:0000314f       ?duplicate@UTFDataFormatException@xercesc_2_8@@UBEPAVXMLException@2@XZ 1200414f f i HeaderDummy.obj
 0001:00003186       ?getType@UTFDataFormatException@xercesc_2_8@@UBEPB_WXZ 12004186 f i HeaderDummy.obj
 0001:0000318c       ??_EUTFDataFormatException@xercesc_2_8@@UAEPAXI@Z 1200418c f i HeaderDummy.obj
 0001:000031db       ?getDataLength@HexBin@xercesc_2_8@@SAHQB_W@Z 120041db f   HexBin.obj
 0001:000031fa       ?isArrayByteHex@HexBin@xercesc_2_8@@SA_NQB_W@Z 120041fa f   HexBin.obj
 0001:00003241       ?getCanonicalRepresentation@HexBin@xercesc_2_8@@SAPA_WQB_WQAVMemoryManager@2@@Z 12004241 f   HexBin.obj
 0001:0000326e       ?decode@HexBin@xercesc_2_8@@SAPA_WQB_WQAVMemoryManager@2@@Z 1200426e f   HexBin.obj
 0001:0000333e       ?decodeToXMLByte@HexBin@xercesc_2_8@@SAPAEQB_WQAVMemoryManager@2@@Z 1200433e f   HexBin.obj
 0001:000033f4       ?isHex@HexBin@xercesc_2_8@@CA_NAB_W@Z 120043f4 f   HexBin.obj
 0001:00003416       ??1?$ArrayJanitor@_W@xercesc_2_8@@QAE@XZ 12004416 f i HexBin.obj
 0001:00003416       ??1?$ArrayJanitor@E@xercesc_2_8@@QAE@XZ 12004416 f i Base64.obj
 0001:00003439       ??0XSerializationException@xercesc_2_8@@QAE@QBDIW4Codes@XMLExcepts@1@PAVMemoryManager@1@@Z 12004439 f i KVStringPair.obj
 0001:00003476       ??0XSerializationException@xercesc_2_8@@QAE@ABV01@@Z 12004476 f i KVStringPair.obj
 0001:0000348e       ??0XSerializationException@xercesc_2_8@@QAE@QBDIW4Codes@XMLExcepts@1@QB_W222PAVMemoryManager@1@@Z 1200448e f i KVStringPair.obj
 0001:000034d7       ??0XSerializationException@xercesc_2_8@@QAE@QBDIW4Codes@XMLExcepts@1@0000PAVMemoryManager@1@@Z 120044d7 f i KVStringPair.obj
 0001:00003520       ??1XSerializationException@xercesc_2_8@@UAE@XZ 12004520 f i KVStringPair.obj
 0001:0000352b       ?duplicate@XSerializationException@xercesc_2_8@@UBEPAVXMLException@2@XZ 1200452b f i KVStringPair.obj
 0001:00003562       ?getType@XSerializationException@xercesc_2_8@@UBEPB_WXZ 12004562 f i KVStringPair.obj
 0001:00003568       ??_EXSerializationException@xercesc_2_8@@UAEPAXI@Z 12004568 f i KVStringPair.obj
 0001:000035b7       ?isStoring@XSerializeEngine@xercesc_2_8@@QBE_NXZ 120045b7 f i KVStringPair.obj
 0001:000035c0       ?isLoading@XSerializeEngine@xercesc_2_8@@QBE_NXZ 120045c0 f i KVStringPair.obj
 0001:000035ca       ?ensureStoring@XSerializeEngine@xercesc_2_8@@ABEXXZ 120045ca f i KVStringPair.obj
 0001:000035df       ?ensureLoading@XSerializeEngine@xercesc_2_8@@ABEXXZ 120045df f i KVStringPair.obj
 0001:000035f4       ?Assert@XSerializeEngine@xercesc_2_8@@ABEX_NW4Codes@XMLExcepts@2@@Z 120045f4 f i KVStringPair.obj
 0001:0000362d       ?readString@XSerializeEngine@xercesc_2_8@@QAEXAAPA_WAAH@Z 1200462d f i KVStringPair.obj
 0001:00003645       ?readString@XSerializeEngine@xercesc_2_8@@QAEXAAPA_W@Z 12004645 f i KVStringPair.obj
 0001:0000365f       ?readString@XSerializeEngine@xercesc_2_8@@QAEXAAPAEAAH@Z 1200465f f i KVStringPair.obj
 0001:00003677       ?readString@XSerializeEngine@xercesc_2_8@@QAEXAAPAE@Z 12004677 f i KVStringPair.obj
 0001:00003691       ?getBufCur@XSerializeEngine@xercesc_2_8@@QBEKXZ 12004691 f i KVStringPair.obj
 0001:00003698       ?getBufCurAccumulated@XSerializeEngine@xercesc_2_8@@QBEKXZ 12004698 f i KVStringPair.obj
 0001:000036b0       ??0XSerializable@xercesc_2_8@@IAE@XZ 120046b0 f i KVStringPair.obj
 0001:000036b9       ??0XSerializable@xercesc_2_8@@IAE@ABV01@@Z 120046b9 f i KVStringPair.obj
 0001:000036c4       ??_EXSerializable@xercesc_2_8@@UAEPAXI@Z 120046c4 f i KVStringPair.obj
 0001:0000370e       ??_FKVStringPair@xercesc_2_8@@QAEXXZ 1200470e f i KVStringPair.obj
 0001:0000371a       ??_EKVStringPair@xercesc_2_8@@UAEPAXI@Z 1200471a f i KVStringPair.obj
 0001:00003763       ?setKey@KVStringPair@xercesc_2_8@@QAEXQB_W@Z 12004763 f i KVStringPair.obj
 0001:00003780       ?setValue@KVStringPair@xercesc_2_8@@QAEXQB_W@Z 12004780 f i KVStringPair.obj
 0001:0000379d       ?setKey@KVStringPair@xercesc_2_8@@QAEXQB_WI@Z 1200479d f i KVStringPair.obj
 0001:000037e6       ?setValue@KVStringPair@xercesc_2_8@@QAEXQB_WI@Z 120047e6 f i KVStringPair.obj
 0001:0000382f       ?set@KVStringPair@xercesc_2_8@@QAEXQB_W0@Z 1200482f f i KVStringPair.obj
 0001:00003862       ?set@KVStringPair@xercesc_2_8@@QAEXQB_WI0I@Z 12004862 f i KVStringPair.obj
 0001:00003885       ??0KVStringPair@xercesc_2_8@@QAE@QAVMemoryManager@1@@Z 12004885 f   KVStringPair.obj
 0001:000038a5       ??0KVStringPair@xercesc_2_8@@QAE@QB_W0QAVMemoryManager@1@@Z 120048a5 f   KVStringPair.obj
 0001:000038e8       ??0KVStringPair@xercesc_2_8@@QAE@QB_W0IQAVMemoryManager@1@@Z 120048e8 f   KVStringPair.obj
 0001:00003935       ??0KVStringPair@xercesc_2_8@@QAE@QB_WI0IQAVMemoryManager@1@@Z 12004935 f   KVStringPair.obj
 0001:00003985       ??0KVStringPair@xercesc_2_8@@QAE@ABV01@@Z 12004985 f   KVStringPair.obj
 0001:000039cd       ??1KVStringPair@xercesc_2_8@@UAE@XZ 120049cd f   KVStringPair.obj
 0001:00003a0a       ?createObject@KVStringPair@xercesc_2_8@@SAPAVXSerializable@2@PAVMemoryManager@2@@Z 12004a0a f   KVStringPair.obj
 0001:00003a2a       ?getProtoType@KVStringPair@xercesc_2_8@@UBEPAVXProtoType@2@XZ 12004a2a f   KVStringPair.obj
 0001:00003a30       ?serialize@KVStringPair@xercesc_2_8@@UAEXAAVXSerializeEngine@2@@Z 12004a30 f   KVStringPair.obj
 0001:00003a90       ??0XMLMutex@xercesc_2_8@@QAE@QAVMemoryManager@1@@Z 12004a90 f   Mutexes.obj
 0001:00003aa8       ??1XMLMutex@xercesc_2_8@@QAE@XZ 12004aa8 f   Mutexes.obj
 0001:00003abd       ?lock@XMLMutex@xercesc_2_8@@QAEXXZ 12004abd f   Mutexes.obj
 0001:00003ac6       ?unlock@XMLMutex@xercesc_2_8@@QAEXXZ 12004ac6 f   Mutexes.obj
 0001:00003acf       ??0XMLMutexLock@xercesc_2_8@@QAE@QAVXMLMutex@1@@Z 12004acf f   Mutexes.obj
 0001:00003ae6       ??1XMLMutexLock@xercesc_2_8@@QAE@XZ 12004ae6 f   Mutexes.obj
 0001:00003af1       ?getPanicReasonString@PanicHandler@xercesc_2_8@@SAPBDW4PanicReasons@12@@Z 12004af1 f   PanicHandler.obj
 0001:00003b5d       ??_EXMLMsgLoader@xercesc_2_8@@UAEPAXI@Z 12004b5d f i PlatformUtils.obj
 0001:00003ba7       ??1XMLMsgLoader@xercesc_2_8@@UAE@XZ 12004ba7 f i PlatformUtils.obj
 0001:00003bae       ??0XMLMsgLoader@xercesc_2_8@@IAE@XZ 12004bae f i PlatformUtils.obj
 0001:00003bb7       ??_FXMLURL@xercesc_2_8@@QAEXXZ 12004bb7 f i PlatformUtils.obj
 0001:00003bc3       ??9XMLURL@xercesc_2_8@@QBE_NABV01@@Z 12004bc3 f i PlatformUtils.obj
 0001:00003bd4       ?getURLText@XMLURL@xercesc_2_8@@QBEPB_WXZ 12004bd4 f i PlatformUtils.obj
 0001:00003be7       ??0MalformedURLException@xercesc_2_8@@QAE@QBDIW4Codes@XMLExcepts@1@PAVMemoryManager@1@@Z 12004be7 f i PlatformUtils.obj
 0001:00003c24       ??0MalformedURLException@xercesc_2_8@@QAE@ABV01@@Z 12004c24 f i PlatformUtils.obj
 0001:00003c3c       ??0MalformedURLException@xercesc_2_8@@QAE@QBDIW4Codes@XMLExcepts@1@QB_W222PAVMemoryManager@1@@Z 12004c3c f i PlatformUtils.obj
 0001:00003c85       ??0MalformedURLException@xercesc_2_8@@QAE@QBDIW4Codes@XMLExcepts@1@0000PAVMemoryManager@1@@Z 12004c85 f i PlatformUtils.obj
 0001:00003cce       ??1MalformedURLException@xercesc_2_8@@UAE@XZ 12004cce f i PlatformUtils.obj
 0001:00003cd9       ?duplicate@MalformedURLException@xercesc_2_8@@UBEPAVXMLException@2@XZ 12004cd9 f i PlatformUtils.obj
 0001:00003d10       ?getType@MalformedURLException@xercesc_2_8@@UBEPB_WXZ 12004d10 f i PlatformUtils.obj
 0001:00003d16       ??_EMalformedURLException@xercesc_2_8@@UAEPAXI@Z 12004d16 f i PlatformUtils.obj
 0001:00003d65       ??4XMLNetHTTPInfo@xercesc_2_8@@QAEAAV01@ABV01@@Z 12004d65 f i PlatformUtils.obj
 0001:00003d79       ??0XMLNetHTTPInfo@xercesc_2_8@@QAE@XZ 12004d79 f i PlatformUtils.obj
 0001:00003d8c       ??1XMLNetAccessor@xercesc_2_8@@UAE@XZ 12004d8c f i PlatformUtils.obj
 0001:00003d93       ??0XMLNetAccessor@xercesc_2_8@@IAE@XZ 12004d93 f i PlatformUtils.obj
 0001:00003d9c       ??_EXMLNetAccessor@xercesc_2_8@@UAEPAXI@Z 12004d9c f i PlatformUtils.obj
 0001:00003de6       ??0NetAccessorException@xercesc_2_8@@QAE@QBDIW4Codes@XMLExcepts@1@PAVMemoryManager@1@@Z 12004de6 f i PlatformUtils.obj
 0001:00003e23       ??0NetAccessorException@xercesc_2_8@@QAE@ABV01@@Z 12004e23 f i PlatformUtils.obj
 0001:00003e3b       ??0NetAccessorException@xercesc_2_8@@QAE@QBDIW4Codes@XMLExcepts@1@QB_W222PAVMemoryManager@1@@Z 12004e3b f i PlatformUtils.obj
 0001:00003e84       ??0NetAccessorException@xercesc_2_8@@QAE@QBDIW4Codes@XMLExcepts@1@0000PAVMemoryManager@1@@Z 12004e84 f i PlatformUtils.obj
 0001:00003ecd       ??1NetAccessorException@xercesc_2_8@@UAE@XZ 12004ecd f i PlatformUtils.obj
 0001:00003ed8       ?duplicate@NetAccessorException@xercesc_2_8@@UBEPAVXMLException@2@XZ 12004ed8 f i PlatformUtils.obj
 0001:00003f0f       ?getType@NetAccessorException@xercesc_2_8@@UBEPB_WXZ 12004f0f f i PlatformUtils.obj
 0001:00003f15       ??_ENetAccessorException@xercesc_2_8@@UAEPAXI@Z 12004f15 f i PlatformUtils.obj
 0001:00003f64       ??0MemoryManagerImpl@xercesc_2_8@@QAE@XZ 12004f64 f i PlatformUtils.obj
 0001:00003f6d       ??_EMemoryManagerImpl@xercesc_2_8@@UAEPAXI@Z 12004f6d f i PlatformUtils.obj
 0001:00003f6d       ??_EMemoryManagerArrayImpl@xercesc_2_8@@UAEPAXI@Z 12004f6d f i PlatformUtils.obj
 0001:00003fb7       ??0MemoryManagerArrayImpl@xercesc_2_8@@QAE@XZ 12004fb7 f i PlatformUtils.obj
 0001:00003fc0       ??1MemoryManagerImpl@xercesc_2_8@@UAE@XZ 12004fc0 f i PlatformUtils.obj
 0001:00003fc0       ??1MemoryManager@xercesc_2_8@@UAE@XZ 12004fc0 f i Base64.obj
 0001:00003fc0       ??1MemoryManagerArrayImpl@xercesc_2_8@@UAE@XZ 12004fc0 f i PlatformUtils.obj
 0001:00003fc7       ?Initialize@XMLPlatformUtils@xercesc_2_8@@SAXQBD0QAVPanicHandler@2@QAVMemoryManager@2@_N@Z 12004fc7 f   PlatformUtils.obj
 0001:00004158       ?Terminate@XMLPlatformUtils@xercesc_2_8@@SAXXZ 12005158 f   PlatformUtils.obj
 0001:00004270       ?loadMsgSet@XMLPlatformUtils@xercesc_2_8@@SAPAVXMLMsgLoader@2@QB_W@Z 12005270 f   PlatformUtils.obj
 0001:00004275       ?recognizeNEL@XMLPlatformUtils@xercesc_2_8@@SAX_NQAVMemoryManager@2@@Z 12005275 f   PlatformUtils.obj
 0001:000042ca       ?strictIANAEncoding@XMLPlatformUtils@xercesc_2_8@@SAX_N@Z 120052ca f   PlatformUtils.obj
 0001:000042dd       ?isStrictIANAEncoding@XMLPlatformUtils@xercesc_2_8@@SA_NXZ 120052dd f   PlatformUtils.obj
 0001:000042f0       ??_FQName@xercesc_2_8@@QAEXXZ 120052f0 f i QName.obj
 0001:000042fc       ??_EQName@xercesc_2_8@@UAEPAXI@Z 120052fc f i QName.obj
 0001:00004345       ?setURI@QName@xercesc_2_8@@QAEXI@Z 12005345 f i QName.obj
 0001:00004345       ?setMax@ClosureToken@xercesc_2_8@@UAEXH@Z 12005345 f i ClosureToken.obj
 0001:00004345       ?setBlockSet@ComplexTypeInfo@xercesc_2_8@@QAEXH@Z 12005345 f i XMLElementDecl.obj
 0001:00004345       ?setErrorHandler@DOMWriterImpl@xercesc_2_8@@UAEXPAVDOMErrorHandler@2@@Z 12005345 f i DOMWriterImpl.obj
 0001:00004345       ?setErrorNode@DOMLocatorImpl@xercesc_2_8@@UAEXQAVDOMNode@2@@Z 12005345 f i DOMBuilderImpl.obj
 0001:00004345       ?setScanner@ValueStoreCache@xercesc_2_8@@QAEXQAVXMLScanner@2@@Z 12005345 f i IGXMLScanner.obj
 0001:00004345       ?setId@XMLElementDecl@xercesc_2_8@@QAEXI@Z 12005345 f i XMLDTDDescription.obj
 0001:00004345       ?setSchemaLocation@DOMConfigurationImpl@xercesc_2_8@@QAEXPB_W@Z 12005345 f i DOMConfigurationImpl.obj
 0001:00004345       ?setId@XSObject@xercesc_2_8@@QAEXI@Z 12005345 f i XSObject.obj
 0001:00004345       ?setChild@ChildOp@xercesc_2_8@@QAEXQBVOp@2@@Z 12005345 f i Op.obj
 0001:00004345       ?setType@DOMErrorImpl@xercesc_2_8@@UAEXPB_W@Z 12005345 f i DOMBuilderImpl.obj
 0001:00004345       ?setScopeCount@SchemaInfo@xercesc_2_8@@QAEXH@Z 12005345 f i IGXMLScanner2.obj
 0001:0000434f       ?getCode@OutOfMemoryException@xercesc_2_8@@QBE?AW4Codes@XMLExcepts@2@XZ 1200534f f i QName.obj
 0001:00004355       ?getMessage@OutOfMemoryException@xercesc_2_8@@QBEPB_WXZ 12005355 f i QName.obj
 0001:00004355       ?getType@OutOfMemoryException@xercesc_2_8@@QBEPB_WXZ 12005355 f i QName.obj
 0001:0000435b       ?getSrcFile@OutOfMemoryException@xercesc_2_8@@QBEPBDXZ 1200535b f i QName.obj
 0001:00004361       ??0QName@xercesc_2_8@@QAE@QAVMemoryManager@1@@Z 12005361 f   QName.obj
 0001:0000438a       ??0QName@xercesc_2_8@@QAE@QB_W0IQAVMemoryManager@1@@Z 1200538a f   QName.obj
 0001:00004402       ??0QName@xercesc_2_8@@QAE@QB_WIQAVMemoryManager@1@@Z 12005402 f   QName.obj
 0001:00004477       ??1QName@xercesc_2_8@@UAE@XZ 12005477 f   QName.obj
 0001:000044a3       ??0QName@xercesc_2_8@@QAE@ABV01@@Z 120054a3 f   QName.obj
 0001:0000454a       ?getRawName@QName@xercesc_2_8@@QBEPB_WXZ 1200554a f   QName.obj
 0001:0000454a       ?getRawName@QName@xercesc_2_8@@QAEPA_WXZ 1200554a f   QName.obj
 0001:000045da       ?setName@QName@xercesc_2_8@@QAEXQB_W0I@Z 120055da f   QName.obj
 0001:00004607       ?setName@QName@xercesc_2_8@@QAEXQB_WI@Z 12005607 f   QName.obj
 0001:000046b0       ?setPrefix@QName@xercesc_2_8@@QAEXPB_W@Z 120056b0 f   QName.obj
 0001:000046cd       ?setNPrefix@QName@xercesc_2_8@@QAEXPB_WI@Z 120056cd f   QName.obj
 0001:00004722       ?setLocalPart@QName@xercesc_2_8@@QAEXPB_W@Z 12005722 f   QName.obj
 0001:00004778       ?setNLocalPart@QName@xercesc_2_8@@QAEXPB_WI@Z 12005778 f   QName.obj
 0001:000047cd       ?setValues@QName@xercesc_2_8@@QAEXABV12@@Z 120057cd f   QName.obj
 0001:000047f2       ??8QName@xercesc_2_8@@QBE_NABV01@@Z 120057f2 f   QName.obj
 0001:00004838       ?cleanUp@QName@xercesc_2_8@@QAEXXZ 12005838 f   QName.obj
 0001:00004869       ?createObject@QName@xercesc_2_8@@SAPAVXSerializable@2@PAVMemoryManager@2@@Z 12005869 f   QName.obj
 0001:00004889       ?getProtoType@QName@xercesc_2_8@@UBEPAVXProtoType@2@XZ 12005889 f   QName.obj
 0001:0000488f       ?serialize@QName@xercesc_2_8@@UAEXAAVXSerializeEngine@2@@Z 1200588f f   QName.obj
 0001:0000490c       ??_FXMLStringPool@xercesc_2_8@@QAEXXZ 1200590c f i StringPool.obj
 0001:0000491a       ??_EXMLStringPool@xercesc_2_8@@UAEPAXI@Z 1200591a f i StringPool.obj
 0001:00004963       ?addOrFind@XMLStringPool@xercesc_2_8@@UAEIQB_W@Z 12005963 f i StringPool.obj
 0001:00004998       ?getId@XMLStringPool@xercesc_2_8@@UBEIQB_W@Z 12005998 f i StringPool.obj
 0001:000049c2       ?exists@XMLStringPool@xercesc_2_8@@UBE_NQB_W@Z 120059c2 f i StringPool.obj
 0001:00004a05       ?exists@XMLStringPool@xercesc_2_8@@UBE_NI@Z 12005a05 f i StringPool.obj
 0001:00004a1b       ?getValueForId@XMLStringPool@xercesc_2_8@@UBEPB_WI@Z 12005a1b f i StringPool.obj
 0001:00004a60       ?getStringCount@XMLStringPool@xercesc_2_8@@UBEIXZ 12005a60 f i StringPool.obj
 0001:00004a65       ??0XMLStringPool@xercesc_2_8@@QAE@IQAVMemoryManager@1@@Z 12005a65 f   StringPool.obj
 0001:00004af4       ??1XMLStringPool@xercesc_2_8@@UAE@XZ 12005af4 f   StringPool.obj
 0001:00004b82       ?flushAll@XMLStringPool@xercesc_2_8@@UAEXXZ 12005b82 f   StringPool.obj
 0001:00004bc5       ?addNewEntry@XMLStringPool@xercesc_2_8@@AAEIQB_W@Z 12005bc5 f   StringPool.obj
 0001:00004c74       ?createObject@XMLStringPool@xercesc_2_8@@SAPAVXSerializable@2@PAVMemoryManager@2@@Z 12005c74 f   StringPool.obj
 0001:00004ca8       ?getProtoType@XMLStringPool@xercesc_2_8@@UBEPAVXProtoType@2@XZ 12005ca8 f   StringPool.obj
 0001:00004cae       ?serialize@XMLStringPool@xercesc_2_8@@UAEXAAVXSerializeEngine@2@@Z 12005cae f   StringPool.obj
 0001:00004d2b       ??0XMLStringPool@xercesc_2_8@@QAE@QAVMemoryManager@1@@Z 12005d2b f   StringPool.obj
 0001:00004dba       ??0?$RefHashTableOf@UPoolElem@XMLStringPool@xercesc_2_8@@@xercesc_2_8@@QAE@I_NQAVMemoryManager@1@@Z 12005dba f i StringPool.obj
 0001:00004e3b       ?removeAll@?$RefHashTableOf@UPoolElem@XMLStringPool@xercesc_2_8@@@xercesc_2_8@@QAEXXZ 12005e3b f i StringPool.obj
 0001:00004e3b       ?removeAll@?$RefHashTableOf@I@xercesc_2_8@@QAEXXZ 12005e3b f i DGXMLScanner.obj
 0001:00004e8d       ?put@?$RefHashTableOf@UPoolElem@XMLStringPool@xercesc_2_8@@@xercesc_2_8@@QAEXPAXQAUPoolElem@XMLStringPool@2@@Z 12005e8d f i StringPool.obj
 0001:00004f06       ?rehash@?$RefHashTableOf@UPoolElem@XMLStringPool@xercesc_2_8@@@xercesc_2_8@@AAEXXZ 12005f06 f i StringPool.obj
 0001:00004faf       ??_EXMLSynchronizedStringPool@xercesc_2_8@@UAEPAXI@Z 12005faf f i SynchronizedStringPool.obj
 0001:00004ff8       ??0XMLSynchronizedStringPool@xercesc_2_8@@QAE@PBVXMLStringPool@1@IQAVMemoryManager@1@@Z 12005ff8 f   SynchronizedStringPool.obj
 0001:00005039       ??1XMLSynchronizedStringPool@xercesc_2_8@@UAE@XZ 12006039 f   SynchronizedStringPool.obj
 0001:0000506d       ?addOrFind@XMLSynchronizedStringPool@xercesc_2_8@@UAEIQB_W@Z 1200606d f   SynchronizedStringPool.obj
 0001:000050c7       ?exists@XMLSynchronizedStringPool@xercesc_2_8@@UBE_NQB_W@Z 120060c7 f   SynchronizedStringPool.obj
 0001:000050ed       ?exists@XMLSynchronizedStringPool@xercesc_2_8@@UBE_NI@Z 120060ed f   SynchronizedStringPool.obj
 0001:00005112       ?flushAll@XMLSynchronizedStringPool@xercesc_2_8@@UAEXXZ 12006112 f   SynchronizedStringPool.obj
 0001:00005117       ?getId@XMLSynchronizedStringPool@xercesc_2_8@@UBEIQB_W@Z 12006117 f   SynchronizedStringPool.obj
 0001:00005149       ?getValueForId@XMLSynchronizedStringPool@xercesc_2_8@@UBEPB_WI@Z 12006149 f   SynchronizedStringPool.obj
 0001:0000517a       ?getStringCount@XMLSynchronizedStringPool@xercesc_2_8@@UBEIXZ 1200617a f   SynchronizedStringPool.obj
 0001:0000518e       ??_EXMLTransService@xercesc_2_8@@UAEPAXI@Z 1200618e f i TransService.obj
 0001:000051d8       ??_EXMLTranscoder@xercesc_2_8@@UAEPAXI@Z 120061d8 f i TransService.obj
 0001:00005221       ?checkTrailingBytes@XMLUTF8Transcoder@xercesc_2_8@@ABEXEII@Z 12006221 f i TransService.obj
 0001:00005286       ??1ENameMap@xercesc_2_8@@UAE@XZ 12006286 f i TransService.obj
 0001:0000529d       ??0ENameMap@xercesc_2_8@@IAE@QB_W@Z 1200629d f i TransService.obj
 0001:000052bc       ??_GENameMap@xercesc_2_8@@UAEPAXI@Z 120062bc f i TransService.obj
 0001:000052bc       ??_EENameMap@xercesc_2_8@@UAEPAXI@Z 120062bc f i  CIL library: CIL module
 0001:000052d8       ?reinitMappings@XMLTransService@xercesc_2_8@@CAXXZ 120062d8 f   TransService.obj
 0001:000052fc       ?reinitMappingsRecognizer@XMLTransService@xercesc_2_8@@CAXXZ 120062fc f   TransService.obj
 0001:00005314       ??0XMLTransService@xercesc_2_8@@IAE@XZ 12006314 f   TransService.obj
 0001:00005404       ??1XMLTransService@xercesc_2_8@@UAE@XZ 12006404 f   TransService.obj
 0001:0000540b       ?addEncoding@XMLTransService@xercesc_2_8@@SAXQB_WQAVENameMap@2@@Z 1200640b f   TransService.obj
 0001:0000541b       ?makeNewTranscoderFor@XMLTransService@xercesc_2_8@@QAEPAVXMLTranscoder@2@QBDAAW4Codes@12@IQAVMemoryManager@2@@Z 1200641b f   TransService.obj
 0001:00005468       ?makeNewTranscoderFor@XMLTransService@xercesc_2_8@@QAEPAVXMLTranscoder@2@QB_WAAW4Codes@12@IQAVMemoryManager@2@@Z 12006468 f   TransService.obj
 0001:0000555d       ?makeNewTranscoderFor@XMLTransService@xercesc_2_8@@QAEPAVXMLTranscoder@2@W4Encodings@XMLRecognizer@2@AAW4Codes@12@IQAVMemoryManager@2@@Z 1200655d f   TransService.obj
 0001:000055fa       ?initTransService@XMLTransService@xercesc_2_8@@MAEXXZ 120065fa f   TransService.obj
 0001:0000606c       ?strictIANAEncoding@XMLTransService@xercesc_2_8@@AAEX_N@Z 1200706c f   TransService.obj
 0001:00006078       ?isStrictIANAEncoding@XMLTransService@xercesc_2_8@@AAE_NXZ 12007078 f   TransService.obj
 0001:0000607e       ??1XMLTranscoder@xercesc_2_8@@UAE@XZ 1200707e f   TransService.obj
 0001:00006092       ??0XMLTranscoder@xercesc_2_8@@IAE@QB_WIQAVMemoryManager@1@@Z 12007092 f   TransService.obj
 0001:000060c2       ??0XMLLCPTranscoder@xercesc_2_8@@IAE@XZ 120070c2 f   TransService.obj
 0001:000060cb       ??0?$RefHashTableOf@VENameMap@xercesc_2_8@@@xercesc_2_8@@QAE@IQAVMemoryManager@1@@Z 120070cb f i TransService.obj
 0001:0000612d       ?put@?$RefHashTableOf@VENameMap@xercesc_2_8@@@xercesc_2_8@@QAEXPAXQAVENameMap@2@@Z 1200712d f i TransService.obj
 0001:000061ae       ??0?$RefVectorOf@VENameMap@xercesc_2_8@@@xercesc_2_8@@QAE@I_NQAVMemoryManager@1@@Z 120071ae f i TransService.obj
 0001:000061f4       ??1?$BaseRefVectorOf@VENameMap@xercesc_2_8@@@xercesc_2_8@@UAE@XZ 120071f4 f i TransService.obj
 0001:000061fb       ?makeNew@?$ENameMapFor@VXMLChTranscoder@xercesc_2_8@@@xercesc_2_8@@UBEPAVXMLTranscoder@2@IQAVMemoryManager@2@@Z 120071fb f i TransService.obj
 0001:0000623a       ??0?$ENameMapFor@VXMLASCIITranscoder@xercesc_2_8@@@xercesc_2_8@@QAE@QB_W@Z 1200723a f i TransService.obj
 0001:00006252       ?makeNew@?$ENameMapFor@VXMLASCIITranscoder@xercesc_2_8@@@xercesc_2_8@@UBEPAVXMLTranscoder@2@IQAVMemoryManager@2@@Z 12007252 f i TransService.obj
 0001:00006291       ??0?$ENameMapFor@VXMLUTF8Transcoder@xercesc_2_8@@@xercesc_2_8@@QAE@QB_W@Z 12007291 f i TransService.obj
 0001:000062a9       ?makeNew@?$ENameMapFor@VXMLUTF8Transcoder@xercesc_2_8@@@xercesc_2_8@@UBEPAVXMLTranscoder@2@IQAVMemoryManager@2@@Z 120072a9 f i TransService.obj
 0001:000062e8       ??0?$ENameMapFor@VXML88591Transcoder@xercesc_2_8@@@xercesc_2_8@@QAE@QB_W@Z 120072e8 f i TransService.obj
 0001:00006300       ?makeNew@?$ENameMapFor@VXML88591Transcoder@xercesc_2_8@@@xercesc_2_8@@UBEPAVXMLTranscoder@2@IQAVMemoryManager@2@@Z 12007300 f i TransService.obj
 0001:0000633f       ??0?$EEndianNameMapFor@VXMLUTF16Transcoder@xercesc_2_8@@@xercesc_2_8@@QAE@QB_W_N@Z 1200733f f i TransService.obj
 0001:0000635e       ?makeNew@?$EEndianNameMapFor@VXMLUTF16Transcoder@xercesc_2_8@@@xercesc_2_8@@UBEPAVXMLTranscoder@2@IQAVMemoryManager@2@@Z 1200735e f i TransService.obj
 0001:000063a2       ??0?$EEndianNameMapFor@VXMLUCS4Transcoder@xercesc_2_8@@@xercesc_2_8@@QAE@QB_W_N@Z 120073a2 f i TransService.obj
 0001:000063c1       ?makeNew@?$EEndianNameMapFor@VXMLUCS4Transcoder@xercesc_2_8@@@xercesc_2_8@@UBEPAVXMLTranscoder@2@IQAVMemoryManager@2@@Z 120073c1 f i TransService.obj
 0001:00006405       ??0?$ENameMapFor@VXMLEBCDICTranscoder@xercesc_2_8@@@xercesc_2_8@@QAE@QB_W@Z 12007405 f i TransService.obj
 0001:0000641d       ?makeNew@?$ENameMapFor@VXMLEBCDICTranscoder@xercesc_2_8@@@xercesc_2_8@@UBEPAVXMLTranscoder@2@IQAVMemoryManager@2@@Z 1200741d f i TransService.obj
 0001:0000645c       ?makeNew@?$ENameMapFor@VXMLIBM1047Transcoder@xercesc_2_8@@@xercesc_2_8@@UBEPAVXMLTranscoder@2@IQAVMemoryManager@2@@Z 1200745c f i TransService.obj
 0001:0000649b       ??0?$ENameMapFor@VXMLIBM1140Transcoder@xercesc_2_8@@@xercesc_2_8@@QAE@QB_W@Z 1200749b f i TransService.obj
 0001:000064b3       ?makeNew@?$ENameMapFor@VXMLIBM1140Transcoder@xercesc_2_8@@@xercesc_2_8@@UBEPAVXMLTranscoder@2@IQAVMemoryManager@2@@Z 120074b3 f i TransService.obj
 0001:000064f2       ?makeNew@?$ENameMapFor@VXMLWin1252Transcoder@xercesc_2_8@@@xercesc_2_8@@UBEPAVXMLTranscoder@2@IQAVMemoryManager@2@@Z 120074f2 f i TransService.obj
 0001:00006531       ??_G?$RefVectorOf@VENameMap@xercesc_2_8@@@xercesc_2_8@@UAEPAXI@Z 12007531 f i TransService.obj
 0001:00006531       ??_E?$RefVectorOf@VENameMap@xercesc_2_8@@@xercesc_2_8@@UAEPAXI@Z 12007531 f i  CIL library: CIL module
 0001:0000659b       ??_E?$BaseRefVectorOf@VENameMap@xercesc_2_8@@@xercesc_2_8@@UAEPAXI@Z 1200759b f i  CIL library: CIL module
 0001:0000659b       ??_G?$BaseRefVectorOf@VENameMap@xercesc_2_8@@@xercesc_2_8@@UAEPAXI@Z 1200759b f i TransService.obj
 0001:000065b8       ??_G?$ENameMapFor@VXMLChTranscoder@xercesc_2_8@@@xercesc_2_8@@UAEPAXI@Z 120075b8 f i TransService.obj
 0001:000065b8       ??_E?$ENameMapFor@VXMLChTranscoder@xercesc_2_8@@@xercesc_2_8@@UAEPAXI@Z 120075b8 f i  CIL library: CIL module
 0001:000065da       ??_E?$ENameMapFor@VXMLASCIITranscoder@xercesc_2_8@@@xercesc_2_8@@UAEPAXI@Z 120075da f i  CIL library: CIL module
 0001:000065da       ??_G?$ENameMapFor@VXMLASCIITranscoder@xercesc_2_8@@@xercesc_2_8@@UAEPAXI@Z 120075da f i TransService.obj
 0001:000065fc       ??_E?$ENameMapFor@VXMLUTF8Transcoder@xercesc_2_8@@@xercesc_2_8@@UAEPAXI@Z 120075fc f i  CIL library: CIL module
 0001:000065fc       ??_G?$ENameMapFor@VXMLUTF8Transcoder@xercesc_2_8@@@xercesc_2_8@@UAEPAXI@Z 120075fc f i TransService.obj
 0001:0000661e       ??_G?$ENameMapFor@VXML88591Transcoder@xercesc_2_8@@@xercesc_2_8@@UAEPAXI@Z 1200761e f i TransService.obj
 0001:0000661e       ??_E?$ENameMapFor@VXML88591Transcoder@xercesc_2_8@@@xercesc_2_8@@UAEPAXI@Z 1200761e f i  CIL library: CIL module
 0001:00006640       ??_G?$EEndianNameMapFor@VXMLUTF16Transcoder@xercesc_2_8@@@xercesc_2_8@@UAEPAXI@Z 12007640 f i TransService.obj
 0001:00006640       ??_E?$EEndianNameMapFor@VXMLUTF16Transcoder@xercesc_2_8@@@xercesc_2_8@@UAEPAXI@Z 12007640 f i  CIL library: CIL module
 0001:00006662       ??_G?$EEndianNameMapFor@VXMLUCS4Transcoder@xercesc_2_8@@@xercesc_2_8@@UAEPAXI@Z 12007662 f i TransService.obj
 0001:00006662       ??_E?$EEndianNameMapFor@VXMLUCS4Transcoder@xercesc_2_8@@@xercesc_2_8@@UAEPAXI@Z 12007662 f i  CIL library: CIL module
 0001:00006684       ??_G?$ENameMapFor@VXMLEBCDICTranscoder@xercesc_2_8@@@xercesc_2_8@@UAEPAXI@Z 12007684 f i TransService.obj
 0001:00006684       ??_E?$ENameMapFor@VXMLEBCDICTranscoder@xercesc_2_8@@@xercesc_2_8@@UAEPAXI@Z 12007684 f i  CIL library: CIL module
 0001:000066a6       ??_E?$ENameMapFor@VXMLIBM1047Transcoder@xercesc_2_8@@@xercesc_2_8@@UAEPAXI@Z 120076a6 f i  CIL library: CIL module
 0001:000066a6       ??_G?$ENameMapFor@VXMLIBM1047Transcoder@xercesc_2_8@@@xercesc_2_8@@UAEPAXI@Z 120076a6 f i TransService.obj
 0001:000066c8       ??_E?$ENameMapFor@VXMLIBM1140Transcoder@xercesc_2_8@@@xercesc_2_8@@UAEPAXI@Z 120076c8 f i  CIL library: CIL module
 0001:000066c8       ??_G?$ENameMapFor@VXMLIBM1140Transcoder@xercesc_2_8@@@xercesc_2_8@@UAEPAXI@Z 120076c8 f i TransService.obj
 0001:000066ea       ??_E?$ENameMapFor@VXMLWin1252Transcoder@xercesc_2_8@@@xercesc_2_8@@UAEPAXI@Z 120076ea f i  CIL library: CIL module
 0001:000066ea       ??_G?$ENameMapFor@VXMLWin1252Transcoder@xercesc_2_8@@@xercesc_2_8@@UAEPAXI@Z 120076ea f i TransService.obj
 0001:0000670c       ?rehash@?$RefHashTableOf@VENameMap@xercesc_2_8@@@xercesc_2_8@@AAEXXZ 1200770c f i TransService.obj
 0001:000067b5       ??2XMemory@xercesc_2_8@@SAPAXI@Z 120077b5 f   XMemory.obj
 0001:000067d4       ??2XMemory@xercesc_2_8@@SAPAXIPBDH@Z 120077d4 f   XMemory.obj
 0001:000067df       ??3XMemory@xercesc_2_8@@SAXPAXPBDH@Z 120077df f   XMemory.obj
 0001:000067ea       ??2XMemory@xercesc_2_8@@SAPAXIPAVMemoryManager@1@@Z 120077ea f   XMemory.obj
 0001:00006805       ??2XMemory@xercesc_2_8@@SAPAXIPAX@Z 12007805 f   XMemory.obj
 0001:0000680a       ??3XMemory@xercesc_2_8@@SAXPAX@Z 1200780a f   XMemory.obj
 0001:0000680a       ??3XMemory@xercesc_2_8@@SAXPAXPAVMemoryManager@1@@Z 1200780a f   XMemory.obj
 0001:0000681e       ?startDocument@HandlerBase@xercesc_2_8@@UAEXXZ 1200781e f   Dummy.obj
 0001:0000681e       ?resetDocument@HandlerBase@xercesc_2_8@@UAEXXZ 1200781e f   Dummy.obj
 0001:0000681e       ?endDTD@DefaultHandler@xercesc_2_8@@UAEXXZ 1200781e f   sax2Dummy.obj
 0001:0000681e       ?resetErrors@XercesDOMParser@xercesc_2_8@@UAEXXZ 1200781e f   XercesDOMParser.obj
 0001:0000681e       ??1XMLPScanToken@xercesc_2_8@@QAE@XZ 1200781e f   XSAnnotation.obj
 0001:0000681e       ?startIntSubset@SAX2XMLReaderImpl@xercesc_2_8@@UAEXXZ 1200781e f   SAX2XMLReaderImpl.obj
 0001:0000681e       ?resetDocument@DefaultHandler@xercesc_2_8@@UAEXXZ 1200781e f   sax2Dummy.obj
 0001:0000681e       ?normalize@DOMNodeImpl@xercesc_2_8@@QAEXXZ 1200781e f   DOMNodeImpl.obj
 0001:0000681e       ?startCDATA@DefaultHandler@xercesc_2_8@@UAEXXZ 1200781e f   sax2Dummy.obj
 0001:0000681e       ?resetErrors@HandlerBase@xercesc_2_8@@UAEXXZ 1200781e f   Dummy.obj
 0001:0000681e       ?resetEntities@XercesDOMParser@xercesc_2_8@@UAEXXZ 1200781e f   XSAnnotation.obj
 0001:0000681e       ??1XMLResourceIdentifier@xercesc_2_8@@QAE@XZ 1200781e f   DGXMLScanner.obj
 0001:0000681e       ?postParseValidation@DTDValidator@xercesc_2_8@@UAEXXZ 1200781e f   DTDValidator.obj
 0001:0000681e       ?flush@XMLFormatTarget@xercesc_2_8@@UAEXXZ 1200781e f   LocalFileFormatTarget.obj
 0001:0000681e       ?normalize@DOMCDATASectionImpl@xercesc_2_8@@UAEXXZ 1200781e f   DOMCDATASectionImpl.obj
 0001:0000681e       ?resetEntities@DOMBuilderImpl@xercesc_2_8@@UAEXXZ 1200781e f   DOMBuilderImpl.obj
 0001:0000681e       ?platformTerm@XMLPlatformUtils@xercesc_2_8@@CAXXZ 1200781e f   Win32PlatformUtils.obj
 0001:0000681e       ?resetEntities@SAXParser@xercesc_2_8@@UAEXXZ 1200781e f   SAXParser.obj
 0001:0000681e       ??1OutOfMemoryException@xercesc_2_8@@QAE@XZ 1200781e f   QName.obj
 0001:0000681e       ??1XMLInteger@xercesc_2_8@@QAE@XZ 1200781e f   DFAContentModel.obj
 0001:0000681e       ?normalize@DOMNotationImpl@xercesc_2_8@@UAEXXZ 1200781e f   DOMNotationImpl.obj
 0001:0000681e       ??1XMLCanRepGroup@xercesc_2_8@@QAE@XZ 1200781e f   XMLCanRepGroup.obj
 0001:0000681e       ?startExtSubset@AbstractDOMParser@xercesc_2_8@@UAEXXZ 1200781e f   AbstractDOMParser.obj
 0001:0000681e       ?endCDATA@DefaultHandler@xercesc_2_8@@UAEXXZ 1200781e f   sax2Dummy.obj
 0001:0000681e       ??1XMLUniCharacter@xercesc_2_8@@QAE@XZ 1200781e f   RegularExpression.obj
 0001:0000681e       ?startExtSubset@SAXParser@xercesc_2_8@@UAEXXZ 1200781e f   SAXParser.obj
 0001:0000681e       ?normalize@DOMTextImpl@xercesc_2_8@@UAEXXZ 1200781e f   DOMTextImpl.obj
 0001:0000681e       ??3@YAXPAXPAVDOMDocument@xercesc_2_8@@@Z 1200781e f   AbstractDOMParser.obj
 0001:0000681e       ??1DOMChildNode@xercesc_2_8@@QAE@XZ 1200781e f   DOMChildNode.obj
 0001:0000681e       ??1EndOfEntityException@xercesc_2_8@@QAE@XZ 1200781e f   DGXMLScanner.obj
 0001:0000681e       ?endExtSubset@AbstractDOMParser@xercesc_2_8@@UAEXXZ 1200781e f   AbstractDOMParser.obj
 0001:0000681e       ?startIntSubset@SAXParser@xercesc_2_8@@UAEXXZ 1200781e f   SAXParser.obj
 0001:0000681e       ?resetErrors@DOMBuilderImpl@xercesc_2_8@@UAEXXZ 1200781e f   DOMBuilderImpl.obj
 0001:0000681e       ?init@HexBin@xercesc_2_8@@CAXXZ 1200781e f   HexBin.obj
 0001:0000681e       ??1DOMCharacterDataImpl@xercesc_2_8@@QAE@XZ 1200781e f   DOMCharacterDataImpl.obj
 0001:0000681e       ?reset@DTDAttDef@xercesc_2_8@@UAEXXZ 1200781e f   XMLElementDecl.obj
 0001:0000681e       ?normalize@DOMProcessingInstructionImpl@xercesc_2_8@@UAEXXZ 1200781e f   DOMProcessingInstructionImpl.obj
 0001:0000681e       ?inheritAdditionalFacet@AbstractStringValidator@xercesc_2_8@@MAEXXZ 1200781e f   AbstractStringValidator.obj
 0001:0000681e       ?endExtSubset@SAXParser@xercesc_2_8@@UAEXXZ 1200781e f   SAXParser.obj
 0001:0000681e       ??3XMemory@xercesc_2_8@@SAXPAX0@Z 1200781e f   XMemory.obj
 0001:0000681e       ??1RegxUtil@xercesc_2_8@@QAE@XZ 1200781e f   RegularExpression.obj
 0001:0000681e       ?normalize@DOMCommentImpl@xercesc_2_8@@UAEXXZ 1200781e f   DOMCommentImpl.obj
 0001:0000681e       ?resetEntities@SAX2XMLReaderImpl@xercesc_2_8@@UAEXXZ 1200781e f   SAX2XMLReaderImpl.obj
 0001:0000681e       ?endDocument@ValueStoreCache@xercesc_2_8@@QAEXXZ 1200781e f   IGXMLScanner.obj
 0001:0000681e       ?release@DOMTreeWalkerImpl@xercesc_2_8@@UAEXXZ 1200781e f   DOMTreeWalkerImpl.obj
 0001:0000681e       ?postParseValidation@SchemaValidator@xercesc_2_8@@UAEXXZ 1200781e f   SchemaValidator.obj
 0001:0000681e       ?endDocument@DefaultHandler@xercesc_2_8@@UAEXXZ 1200781e f   sax2Dummy.obj
 0001:0000681e       ??1XUtil@xercesc_2_8@@AAE@XZ 1200781e f   SchemaInfo.obj
 0001:0000681e       ?inheritAdditionalFacet@AbstractNumericFacetValidator@xercesc_2_8@@MAEXXZ 1200781e f   AbstractNumericFacetValidator.obj
 0001:0000681e       ?resetDocType@DefaultHandler@xercesc_2_8@@UAEXXZ 1200781e f   sax2Dummy.obj
 0001:0000681e       ?init@Base64@xercesc_2_8@@CAXXZ 1200781e f   Base64.obj
 0001:0000681e       ?endDocument@IdentityConstraintHandler@xercesc_2_8@@QAEXXZ 1200781e f   IGXMLScanner.obj
 0001:0000681e       ??1RangeTokenElemMap@xercesc_2_8@@QAE@XZ 1200781e f   RangeTokenMap.obj
 0001:0000681e       ??1?$XMLHolder@U_RTL_CRITICAL_SECTION@@@xercesc_2_8@@QAE@XZ 1200781e f   Win32PlatformUtils.obj
 0001:0000681e       ??1SubstitutionGroupComparator@xercesc_2_8@@QAE@XZ 1200781e f   IGXMLScanner2.obj
 0001:0000681e       ?resetDocType@HandlerBase@xercesc_2_8@@UAEXXZ 1200781e f   Dummy.obj
 0001:0000681e       ??3@YAXPAXPAVDOMDocument@xercesc_2_8@@W4NodeObjectType@DOMDocumentImpl@1@@Z 1200781e f   DOMAttrImpl.obj
 0001:0000681e       ??1DOMNodeImpl@xercesc_2_8@@QAE@XZ 1200781e f   DOMNodeImpl.obj
 0001:0000681e       ?resetErrors@DefaultHandler@xercesc_2_8@@UAEXXZ 1200781e f   sax2Dummy.obj
 0001:0000681e       ?startDocument@DefaultHandler@xercesc_2_8@@UAEXXZ 1200781e f   sax2Dummy.obj
 0001:0000681e       ?endDocument@HandlerBase@xercesc_2_8@@UAEXXZ 1200781e f   Dummy.obj
 0001:0000681e       ?reset@DTDValidator@xercesc_2_8@@UAEXXZ 1200781e f   DTDValidator.obj
 0001:0000681e       ?endIntSubset@SAXParser@xercesc_2_8@@UAEXXZ 1200781e f   SAXParser.obj
 0001:0000681f       ??1XMLIBM1140Transcoder@xercesc_2_8@@UAE@XZ 1200781f f   XMLIBM1140Transcoder.obj
 0001:0000681f       ??1XML256TableTranscoder@xercesc_2_8@@UAE@XZ 1200781f f   XML256TableTranscoder.obj
 0001:0000681f       ??1XMLEBCDICTranscoder@xercesc_2_8@@UAE@XZ 1200781f f   XMLEBCDICTranscoder.obj
 0001:0000681f       ??1XMLWin1252Transcoder@xercesc_2_8@@UAE@XZ 1200781f f   XMLWin1252Transcoder.obj
 0001:0000681f       ??1XMLIBM1047Transcoder@xercesc_2_8@@UAE@XZ 1200781f f   XMLIBM1047Transcoder.obj
 0001:0000682a       ?transcodeFrom@XML256TableTranscoder@xercesc_2_8@@UAEIQBEIQA_WIAAIQAE@Z 1200782a f   XML256TableTranscoder.obj
 0001:00006887       ?transcodeTo@XML256TableTranscoder@xercesc_2_8@@UAEIQB_WIQAEIAAIW4UnRepOpts@XMLTranscoder@2@@Z 12007887 f   XML256TableTranscoder.obj
 0001:00006963       ?canTranscodeTo@XML256TableTranscoder@xercesc_2_8@@UBE_NI@Z 12007963 f   XML256TableTranscoder.obj
 0001:00006975       ??0XML256TableTranscoder@xercesc_2_8@@IAE@QB_WI0QBUTransRec@XMLTransService@1@IQAVMemoryManager@1@@Z 12007975 f   XML256TableTranscoder.obj
 0001:000069a8       ?xlatOneTo@XML256TableTranscoder@xercesc_2_8@@IBEE_W@Z 120079a8 f   XML256TableTranscoder.obj
 0001:000069f4       ??_EXML88591Transcoder@xercesc_2_8@@UAEPAXI@Z 120079f4 f i XML88591Transcoder.obj
 0001:00006a43       ??0XML88591Transcoder@xercesc_2_8@@QAE@QB_WIQAVMemoryManager@1@@Z 12007a43 f   XML88591Transcoder.obj
 0001:00006a63       ??1XML88591Transcoder@xercesc_2_8@@UAE@XZ 12007a63 f   XML88591Transcoder.obj
 0001:00006a6e       ?transcodeFrom@XML88591Transcoder@xercesc_2_8@@UAEIQBEIQA_WIAAIQAE@Z 12007a6e f   XML88591Transcoder.obj
 0001:00006ab4       ?transcodeTo@XML88591Transcoder@xercesc_2_8@@UAEIQB_WIQAEIAAIW4UnRepOpts@XMLTranscoder@2@@Z 12007ab4 f   XML88591Transcoder.obj
 0001:00006b6e       ?canTranscodeTo@XML88591Transcoder@xercesc_2_8@@UBE_NI@Z 12007b6e f   XML88591Transcoder.obj
 0001:00006b7d       ??_FXMLAbstractDoubleFloat@xercesc_2_8@@QAEXXZ 12007b7d f i XMLAbstractDoubleFloat.obj
 0001:00006b89       ??_EXMLAbstractDoubleFloat@xercesc_2_8@@UAEPAXI@Z 12007b89 f i XMLAbstractDoubleFloat.obj
 0001:00006bd2       ?isSpecialValue@XMLAbstractDoubleFloat@xercesc_2_8@@ABE_NXZ 12007bd2 f i XMLAbstractDoubleFloat.obj
 0001:00006bdc       ?getNodeName@DOMEntityReferenceImpl@xercesc_2_8@@UBEPB_WXZ 12007bdc f i DOMEntityReferenceImpl.obj
 0001:00006bdc       ?getContentSpec@DTDElementDecl@xercesc_2_8@@UBEPBVContentSpecNode@2@XZ 12007bdc f i XMLElementDecl.obj
 0001:00006bdc       ?getNamespaceURI@DOMAttrNSImpl@xercesc_2_8@@UBEPB_WXZ 12007bdc f i DOMAttrNSImpl.obj
 0001:00006bdc       ?getName@DOMDocumentTypeImpl@xercesc_2_8@@UBEPB_WXZ 12007bdc f i DOMDocumentTypeImpl.obj
 0001:00006bdc       ?getMemoryManager@XMLEntityDecl@xercesc_2_8@@QBEPAVMemoryManager@2@XZ 12007bdc f i XMLDTDDescription.obj
 0001:00006bdc       ?getUser@XMLURL@xercesc_2_8@@QBEPB_WXZ 12007bdc f i PlatformUtils.obj
 0001:00006bdc       ?getEnclosingCTDefinition@XSAttributeDeclaration@xercesc_2_8@@QAEPAVXSComplexTypeDefinition@2@XZ 12007bdc f i PSVIAttributeList.obj
 0001:00006bdc       ?getElemId@SchemaAttDef@xercesc_2_8@@QBEIXZ 12007bdc f i XMLElementDecl.obj
 0001:00006bdc       ?getCharData@RegxParser@xercesc_2_8@@QBEHXZ 12007bdc f i ParserForXMLSchema.obj
 0001:00006bdc       ?getNodeName@DOMDocumentTypeImpl@xercesc_2_8@@UBEPB_WXZ 12007bdc f i DOMDocumentTypeImpl.obj
 0001:00006bdc       ?getInitialDepth@SelectorMatcher@xercesc_2_8@@UBEHXZ 12007bdc f i XSIDCDefinition.obj
 0001:00006bdc       ?getErrorHandler@SAX2XMLFilterImpl@xercesc_2_8@@UBEPAVErrorHandler@2@XZ 12007bdc f i SAX2XMLFilterImpl.obj
 0001:00006bdc       ?getSystemId@DOMEntityImpl@xercesc_2_8@@UBEPB_WXZ 12007bdc f i DOMEntityImpl.obj
 0001:00006bdc       ?getElemId@DTDAttDef@xercesc_2_8@@QBEIXZ 12007bdc f i XMLElementDecl.obj
 0001:00006bdc       ?getFixedFacets@XSSimpleTypeDefinition@xercesc_2_8@@QBEHXZ 12007bdc f i XMLAttr.obj
 0001:00006bdc       ?getMaxOccurs@ContentSpecNode@xercesc_2_8@@QBEHXZ 12007bdc f i XSWildcard.obj
 0001:00006bdc       ?getEnclosingCTDefinition@XSElementDeclaration@xercesc_2_8@@QBEPAVXSComplexTypeDefinition@2@XZ 12007bdc f i PSVIElement.obj
 0001:00006bdc       ?getAttributeWildcard@XSComplexTypeDefinition@xercesc_2_8@@QBEPAVXSWildcard@2@XZ 12007bdc f i PSVIElement.obj
 0001:00006bdc       ?getAttributes@DOMElementImpl@xercesc_2_8@@UBEPAVDOMNamedNodeMap@2@XZ 12007bdc f i DOMElementImpl.obj
 0001:00006bdc       ?getTypeDefinition@PSVIAttribute@xercesc_2_8@@UAEPAVXSTypeDefinition@2@XZ 12007bdc f i PSVIAttribute.obj
 0001:00006bdc       ?getTypeDefinition@PSVIElement@xercesc_2_8@@UAEPAVXSTypeDefinition@2@XZ 12007bdc f i PSVIElement.obj
 0001:00006bdc       ?getMemoryManager@XMLAbstractDoubleFloat@xercesc_2_8@@QBEPAVMemoryManager@2@XZ 12007bdc f i XMLAbstractDoubleFloat.obj
 0001:00006bdc       ?getAttGroupInfoRegistry@SchemaGrammar@xercesc_2_8@@QBEPAV?$RefHashTableOf@VXercesAttGroupInfo@xercesc_2_8@@@2@XZ 12007bdc f i XSAttributeDeclaration.obj
 0001:00006bdc       ?getValueStore@FieldMatcher@xercesc_2_8@@QBEPAVValueStore@2@XZ 12007bdc f i XMLElementDecl.obj
 0001:00006bdc       ?getContentSpec@DTDElementDecl@xercesc_2_8@@UAEPAVContentSpecNode@2@XZ 12007bdc f i XMLElementDecl.obj
 0001:00006bdc       ?getGrammarsToAddToXSModel@GrammarResolver@xercesc_2_8@@QAEPAV?$ValueVectorOf@PAVSchemaGrammar@xercesc_2_8@@@2@XZ 12007bdc f i XMLValidator.obj
 0001:00006bdc       ?getFacets@DatatypeValidator@xercesc_2_8@@QBEPAV?$RefHashTableOf@VKVStringPair@xercesc_2_8@@@2@XZ 12007bdc f i XMLAttr.obj
 0001:00006be0       ?isCachingGrammarFromParse@XMLScanner@xercesc_2_8@@QBE_NXZ 12007be0 f i XMLValidator.obj
 0001:00006be0       ?getIncludeIgnorableWhitespace@AbstractDOMParser@xercesc_2_8@@QBE_NXZ 12007be0 f i XSAnnotation.obj
 0001:00006be0       ?isDataOverflowed@XMLAbstractDoubleFloat@xercesc_2_8@@QBE_NXZ 12007be0 f i XMLAbstractDoubleFloat.obj
 0001:00006be4       ?getValue@XMLAbstractDoubleFloat@xercesc_2_8@@QBENXZ 12007be4 f i XMLAbstractDoubleFloat.obj
 0001:00006be8       ??_FXMLBigDecimal@xercesc_2_8@@QAEXXZ 12007be8 f i XMLAbstractDoubleFloat.obj
 0001:00006bf4       ?getMemoryManager@XMLBigDecimal@xercesc_2_8@@QBEPAVMemoryManager@2@XZ 12007bf4 f i XMLAbstractDoubleFloat.obj
 0001:00006bf4       ?getNoFlow@ConditionOp@xercesc_2_8@@UBEPBVOp@2@XZ 12007bf4 f i Op.obj
 0001:00006bf4       ?getLexicalFacetValues@XSMultiValueFacet@xercesc_2_8@@QAEPAV?$RefArrayVectorOf@_W@2@XZ 12007bf4 f i XSMultiValueFacet.obj
 0001:00006bf4       ?getIdentityConstraint@XPathMatcher@xercesc_2_8@@QBEPAVIdentityConstraint@2@XZ 12007bf4 f i XMLElementDecl.obj
 0001:00006bf4       ?getBaseType@XSSimpleTypeDefinition@xercesc_2_8@@UAEPAVXSTypeDefinition@2@XZ 12007bf4 f i XSSimpleTypeDefinition.obj
 0001:00006bf4       ?getOrdered@DatatypeValidator@xercesc_2_8@@QBE?AW4ORDERING@XSSimpleTypeDefinition@2@XZ 12007bf4 f i XMLAttr.obj
 0001:00006bf4       ?getConstraintValue@XSAttributeUse@xercesc_2_8@@QAEPB_WXZ 12007bf4 f i XSAttributeGroupDefinition.obj
 0001:00006bf4       ?getTarget@DOMProcessingInstructionImpl@xercesc_2_8@@UBEPB_WXZ 12007bf4 f i DOMProcessingInstructionImpl.obj
 0001:00006bf4       ?getSystemId@XMLEntityDecl@xercesc_2_8@@QBEPB_WXZ 12007bf4 f i XMLDTDDescription.obj
 0001:00006bf4       ?getNodeName@DOMAttrImpl@xercesc_2_8@@UBEPB_WXZ 12007bf4 f i DOMAttrImpl.obj
 0001:00006bf4       ?getScanner@AbstractDOMParser@xercesc_2_8@@IBEPAVXMLScanner@2@XZ 12007bf4 f i XSAnnotation.obj
 0001:00006bf4       ?getAttributes@XMLSchemaDescriptionImpl@xercesc_2_8@@UBEPBVXMLAttDef@2@XZ 12007bf4 f i XMLSchemaDescriptionImpl.obj
 0001:00006bf4       ?getPSVIScope@SchemaElementDecl@xercesc_2_8@@QBE?AW4PSVIScope@PSVIDefs@2@XZ 12007bf4 f i XMLElementDecl.obj
 0001:00006bf4       ?getNodeName@DOMEntityImpl@xercesc_2_8@@UBEPB_WXZ 12007bf4 f i DOMEntityImpl.obj
 0001:00006bf4       ?getRootElemId@DTDGrammar@xercesc_2_8@@QBEIXZ 12007bf4 f i DGXMLScanner.obj
 0001:00006bf4       ?getDTDHandler@SAX2XMLFilterImpl@xercesc_2_8@@UBEPAVDTDHandler@2@XZ 12007bf4 f i SAX2XMLFilterImpl.obj
 0001:00006bf4       ?getAnnotation@XSModelGroup@xercesc_2_8@@QBEPAVXSAnnotation@2@XZ 12007bf4 f i XSModelGroup.obj
 0001:00006bf4       ?getValidationAttempted@PSVIItem@xercesc_2_8@@QBE?AW4ASSESSMENT_TYPE@12@XZ 12007bf4 f i PSVIAttribute.obj
 0001:00006bf4       ?getFieldStrs@XSIDCDefinition@xercesc_2_8@@QAEPAV?$RefArrayVectorOf@_W@2@XZ 12007bf4 f i XSElementDeclaration.obj
 0001:00006bf4       ?getAttributeWildcard@XSAttributeGroupDefinition@xercesc_2_8@@QBEPAVXSWildcard@2@XZ 12007bf4 f i XSAttributeGroupDefinition.obj
 0001:00006bf4       ?getMemoryManager@XMLNotationDecl@xercesc_2_8@@QBEPAVMemoryManager@2@XZ 12007bf4 f i XMLDTDDescription.obj
 0001:00006bf4       ?getRawData@XMLAbstractDoubleFloat@xercesc_2_8@@UBEPA_WXZ 12007bf4 f i XMLAbstractDoubleFloat.obj
 0001:00006bf4       ?getBaseType@XSComplexTypeDefinition@xercesc_2_8@@UAEPAVXSTypeDefinition@2@XZ 12007bf4 f i XSComplexTypeDefinition.obj
 0001:00006bf4       ?getTargetNSURIString@SchemaInfo@xercesc_2_8@@QBEQB_WXZ 12007bf4 f i IGXMLScanner2.obj
 0001:00006bf4       ?getComplexTypeRegistry@SchemaGrammar@xercesc_2_8@@QBEPAV?$RefHashTableOf@VComplexTypeInfo@xercesc_2_8@@@2@XZ 12007bf4 f i XSAttributeDeclaration.obj
 0001:00006bf4       ?getNsConstraintList@XSWildcard@xercesc_2_8@@QAEPAV?$RefArrayVectorOf@_W@2@XZ 12007bf4 f i XSComplexTypeDefinition.obj
 0001:00006bf4       ?getAnnotation@XSModelGroupDefinition@xercesc_2_8@@QBEPAVXSAnnotation@2@XZ 12007bf4 f i XSModel.obj
 0001:00006bf4       ?getNodeName@DOMProcessingInstructionImpl@xercesc_2_8@@UBEPB_WXZ 12007bf4 f i DOMProcessingInstructionImpl.obj
 0001:00006bf4       ?getName@DOMAttrImpl@xercesc_2_8@@UBEPB_WXZ 12007bf4 f i DOMAttrImpl.obj
 0001:00006bf4       ?getQueryString@XMLUri@xercesc_2_8@@QBEPB_WXZ 12007bf4 f i XMLString.obj
 0001:00006bf4       ?getNext@XSAnnotation@xercesc_2_8@@QAEPAV12@XZ 12007bf4 f i XSAnnotation.obj
 0001:00006bf4       ?getEnumeration@XMLAttDef@xercesc_2_8@@QBEPB_WXZ 12007bf4 f i XMLAttDef.obj
 0001:00006bf4       ?getLexicalFacetValue@XSFacet@xercesc_2_8@@QBEPB_WXZ 12007bf4 f i XSFacet.obj
 0001:00006bf4       ?getMaxOccurs@XSParticle@xercesc_2_8@@QBEHXZ 12007bf4 f i XSComplexTypeDefinition.obj
 0001:00006bf4       ?getContentType@ComplexTypeInfo@xercesc_2_8@@QBEHXZ 12007bf4 f i XMLElementDecl.obj
 0001:00006bf4       ?getAnnotation@XSAttributeDeclaration@xercesc_2_8@@QBEPAVXSAnnotation@2@XZ 12007bf4 f i PSVIAttributeList.obj
 0001:00006bf4       ?getKey@IC_KeyRef@xercesc_2_8@@QBEPAVIdentityConstraint@2@XZ 12007bf4 f i XSIDCDefinition.obj
 0001:00006bf4       ?getProtocol@XMLURL@xercesc_2_8@@QBE?AW4Protocols@12@XZ 12007bf4 f i PlatformUtils.obj
 0001:00006bf4       ?getBaseGroup@XercesGroupInfo@xercesc_2_8@@QBEPAV12@XZ 12007bf4 f i XSModel.obj
 0001:00006bf8       ?toString@XMLBigDecimal@xercesc_2_8@@UBEPA_WXZ 12007bf8 f i XMLAbstractDoubleFloat.obj
 0001:00006c02       ??0NumberFormatException@xercesc_2_8@@QAE@QBDIW4Codes@XMLExcepts@1@PAVMemoryManager@1@@Z 12007c02 f i XMLAbstractDoubleFloat.obj
 0001:00006c3f       ??0NumberFormatException@xercesc_2_8@@QAE@ABV01@@Z 12007c3f f i XMLAbstractDoubleFloat.obj
 0001:00006c57       ??0NumberFormatException@xercesc_2_8@@QAE@QBDIW4Codes@XMLExcepts@1@QB_W222PAVMemoryManager@1@@Z 12007c57 f i XMLAbstractDoubleFloat.obj
 0001:00006ca0       ??0NumberFormatException@xercesc_2_8@@QAE@QBDIW4Codes@XMLExcepts@1@0000PAVMemoryManager@1@@Z 12007ca0 f i XMLAbstractDoubleFloat.obj
 0001:00006ce9       ??1NumberFormatException@xercesc_2_8@@UAE@XZ 12007ce9 f i XMLAbstractDoubleFloat.obj
 0001:00006cf4       ?duplicate@NumberFormatException@xercesc_2_8@@UBEPAVXMLException@2@XZ 12007cf4 f i XMLAbstractDoubleFloat.obj
 0001:00006d2b       ?getType@NumberFormatException@xercesc_2_8@@UBEPB_WXZ 12007d2b f i XMLAbstractDoubleFloat.obj
 0001:00006d31       ??_ENumberFormatException@xercesc_2_8@@UAEPAXI@Z 12007d31 f i XMLAbstractDoubleFloat.obj
 0001:00006d80       ??0XMLAbstractDoubleFloat@xercesc_2_8@@IAE@QAVMemoryManager@1@@Z 12007d80 f   XMLAbstractDoubleFloat.obj
 0001:00006daf       ??1XMLAbstractDoubleFloat@xercesc_2_8@@UAE@XZ 12007daf f   XMLAbstractDoubleFloat.obj
 0001:00006dec       ?init@XMLAbstractDoubleFloat@xercesc_2_8@@IAEXQB_W@Z 12007dec f   XMLAbstractDoubleFloat.obj
 0001:00007069       ?toString@XMLAbstractDoubleFloat@xercesc_2_8@@UBEPA_WXZ 12008069 f   XMLAbstractDoubleFloat.obj
 0001:00007073       ?getFormattedString@XMLAbstractDoubleFloat@xercesc_2_8@@UBEPB_WXZ 12008073 f   XMLAbstractDoubleFloat.obj
 0001:00007091       ?formatString@XMLAbstractDoubleFloat@xercesc_2_8@@AAEXXZ 12008091 f   XMLAbstractDoubleFloat.obj
 0001:0000712f       ?compareValues@XMLAbstractDoubleFloat@xercesc_2_8@@KAHQBV12@0QAVMemoryManager@2@@Z 1200812f f   XMLAbstractDoubleFloat.obj
 0001:000071c8       ?compareSpecial@XMLAbstractDoubleFloat@xercesc_2_8@@CAHQBV12@QAVMemoryManager@2@@Z 120081c8 f   XMLAbstractDoubleFloat.obj
 0001:0000725e       ?normalizeZero@XMLAbstractDoubleFloat@xercesc_2_8@@AAEXQA_W@Z 1200825e f   XMLAbstractDoubleFloat.obj
 0001:000073a1       ?normalizeDecimalPoint@XMLAbstractDoubleFloat@xercesc_2_8@@SAXQAD@Z 120083a1 f   XMLAbstractDoubleFloat.obj
 0001:000073c7       ?convert@XMLAbstractDoubleFloat@xercesc_2_8@@IAEXQAD@Z 120083c7 f   XMLAbstractDoubleFloat.obj
 0001:0000748a       ?getCanonicalRepresentation@XMLAbstractDoubleFloat@xercesc_2_8@@SAPA_WQB_WQAVMemoryManager@2@@Z 1200848a f   XMLAbstractDoubleFloat.obj
 0001:0000770e       ?getProtoType@XMLAbstractDoubleFloat@xercesc_2_8@@UBEPAVXProtoType@2@XZ 1200870e f   XMLAbstractDoubleFloat.obj
 0001:00007714       ?serialize@XMLAbstractDoubleFloat@xercesc_2_8@@UAEXAAVXSerializeEngine@2@@Z 12008714 f   XMLAbstractDoubleFloat.obj
 0001:000077cd       ??_EXMLASCIITranscoder@xercesc_2_8@@UAEPAXI@Z 120087cd f i XMLASCIITranscoder.obj
 0001:0000781c       ??0XMLASCIITranscoder@xercesc_2_8@@QAE@QB_WIQAVMemoryManager@1@@Z 1200881c f   XMLASCIITranscoder.obj
 0001:0000783c       ??1XMLASCIITranscoder@xercesc_2_8@@UAE@XZ 1200883c f   XMLASCIITranscoder.obj
 0001:00007847       ?transcodeFrom@XMLASCIITranscoder@xercesc_2_8@@UAEIQBEIQA_WIAAIQAE@Z 12008847 f   XMLASCIITranscoder.obj
 0001:00007914       ?transcodeTo@XMLASCIITranscoder@xercesc_2_8@@UAEIQB_WIQAEIAAIW4UnRepOpts@XMLTranscoder@2@@Z 12008914 f   XMLASCIITranscoder.obj
 0001:000079d0       ?canTranscodeTo@XMLASCIITranscoder@xercesc_2_8@@UBE_NI@Z 120089d0 f   XMLASCIITranscoder.obj
 0001:000079df       ??_EXMLBigDecimal@xercesc_2_8@@UAEPAXI@Z 120089df f i XMLBigDecimal.obj
 0001:00007a28       ?getTotalDigit@XMLBigInteger@xercesc_2_8@@QBEHXZ 12008a28 f i XMLBigDecimal.obj
 0001:00007a38       ??8XMLBigInteger@xercesc_2_8@@QBE_NABV01@@Z 12008a38 f i XMLBigDecimal.obj
 0001:00007a51       ?toString@XMLBigInteger@xercesc_2_8@@QBEPA_WXZ 12008a51 f i XMLBigDecimal.obj
 0001:00007a5f       ??0XMLBigDecimal@xercesc_2_8@@QAE@QB_WQAVMemoryManager@1@@Z 12008a5f f   XMLBigDecimal.obj
 0001:00007b56       ??1XMLBigDecimal@xercesc_2_8@@UAE@XZ 12008b56 f   XMLBigDecimal.obj
 0001:00007b82       ?cleanUp@XMLBigDecimal@xercesc_2_8@@AAEXXZ 12008b82 f   XMLBigDecimal.obj
 0001:00007b93       ?setDecimalValue@XMLBigDecimal@xercesc_2_8@@QAEXQB_W@Z 12008b93 f   XMLBigDecimal.obj
 0001:00007c16       ?getCanonicalRepresentation@XMLBigDecimal@xercesc_2_8@@SAPA_WQB_WQAVMemoryManager@2@@Z 12008c16 f   XMLBigDecimal.obj
 0001:00007d62       ?parseDecimal@XMLBigDecimal@xercesc_2_8@@SAXQB_WQA_WAAH22QAVMemoryManager@2@@Z 12008d62 f   XMLBigDecimal.obj
 0001:00007f45       ?parseDecimal@XMLBigDecimal@xercesc_2_8@@SAXQB_WQAVMemoryManager@2@@Z 12008f45 f   XMLBigDecimal.obj
 0001:000080a9       ?compareValues@XMLBigDecimal@xercesc_2_8@@SAHQBV12@0QAVMemoryManager@2@@Z 120090a9 f   XMLBigDecimal.obj
 0001:000080ef       ?toCompare@XMLBigDecimal@xercesc_2_8@@QBEHABV12@@Z 120090ef f   XMLBigDecimal.obj
 0001:0000815b       ?createObject@XMLBigDecimal@xercesc_2_8@@SAPAVXSerializable@2@PAVMemoryManager@2@@Z 1200915b f   XMLBigDecimal.obj
 0001:0000817b       ?getProtoType@XMLBigDecimal@xercesc_2_8@@UBEPAVXProtoType@2@XZ 1200917b f   XMLBigDecimal.obj
 0001:00008181       ??0XMLBigDecimal@xercesc_2_8@@QAE@QAVMemoryManager@1@@Z 12009181 f   XMLBigDecimal.obj
 0001:000081a7       ?serialize@XMLBigDecimal@xercesc_2_8@@UAEXAAVXSerializeEngine@2@@Z 120091a7 f   XMLBigDecimal.obj
 0001:00008329       ?getCanonicalRepresentation@XMLBigInteger@xercesc_2_8@@SAPA_WQB_WQAVMemoryManager@2@_N@Z 12009329 f   XMLBigInteger.obj
 0001:000083e1       ?parseBigInteger@XMLBigInteger@xercesc_2_8@@SAXQB_WQA_WAAHQAVMemoryManager@2@@Z 120093e1 f   XMLBigInteger.obj
 0001:00008564       ??0XMLBigInteger@xercesc_2_8@@QAE@QB_WQAVMemoryManager@1@@Z 12009564 f   XMLBigInteger.obj
 0001:00008653       ??1XMLBigInteger@xercesc_2_8@@QAE@XZ 12009653 f   XMLBigInteger.obj
 0001:00008673       ??0XMLBigInteger@xercesc_2_8@@QAE@ABV01@@Z 12009673 f   XMLBigInteger.obj
 0001:000086b1       ?compareValues@XMLBigInteger@xercesc_2_8@@SAHQBV12@0QAVMemoryManager@2@@Z 120096b1 f   XMLBigInteger.obj
 0001:0000875b       ?compareValues@XMLBigInteger@xercesc_2_8@@SAHQB_WABH01QAVMemoryManager@2@@Z 1200975b f   XMLBigInteger.obj
 0001:00008804       ?multiply@XMLBigInteger@xercesc_2_8@@QAEXI@Z 12009804 f   XMLBigInteger.obj
 0001:0000887d       ?divide@XMLBigInteger@xercesc_2_8@@QAEXI@Z 1200987d f   XMLBigInteger.obj
 0001:000088d2       ?intValue@XMLBigInteger@xercesc_2_8@@QBEHXZ 120098d2 f   XMLBigInteger.obj
 0001:000088f4       ?isAllSpaces@XMLChar1_0@xercesc_2_8@@SA_NQB_WI@Z 120098f4 f   XMLChar.obj
 0001:0000891d       ?containsWhiteSpace@XMLChar1_0@xercesc_2_8@@SA_NQB_WI@Z 1200991d f   XMLChar.obj
 0001:00008946       ?isValidNCName@XMLChar1_0@xercesc_2_8@@SA_NQB_WI@Z 12009946 f   XMLChar.obj
 0001:00008985       ?isValidNmtoken@XMLChar1_0@xercesc_2_8@@SA_NQB_WI@Z 12009985 f   XMLChar.obj
 0001:000089ae       ?isValidName@XMLChar1_0@xercesc_2_8@@SA_NQB_WI@Z 120099ae f   XMLChar.obj
 0001:000089e4       ?isValidName@XMLChar1_0@xercesc_2_8@@SA_NQB_W@Z 120099e4 f   XMLChar.obj
 0001:00008a11       ?isValidQName@XMLChar1_0@xercesc_2_8@@SA_NQB_WI@Z 12009a11 f   XMLChar.obj
 0001:00008a5d       ?isPublicIdChar@XMLChar1_0@xercesc_2_8@@SA_N_W0@Z 12009a5d f   XMLChar.obj
 0001:00008a5d       ?isPublicIdChar@XMLChar1_1@xercesc_2_8@@SA_N_W0@Z 12009a5d f   XMLChar.obj
 0001:00008ab0       ?enableNELWS@XMLChar1_0@xercesc_2_8@@SAXXZ 12009ab0 f   XMLChar.obj
 0001:00008ad0       ?isAllSpaces@XMLChar1_1@xercesc_2_8@@SA_NQB_WI@Z 12009ad0 f   XMLChar.obj
 0001:00008af9       ?containsWhiteSpace@XMLChar1_1@xercesc_2_8@@SA_NQB_WI@Z 12009af9 f   XMLChar.obj
 0001:00008b22       ?isValidNCName@XMLChar1_1@xercesc_2_8@@SA_NQB_WI@Z 12009b22 f   XMLChar.obj
 0001:00008bb4       ?isValidNmtoken@XMLChar1_1@xercesc_2_8@@SA_NQB_WI@Z 12009bb4 f   XMLChar.obj
 0001:00008c19       ?isValidName@XMLChar1_1@xercesc_2_8@@SA_NQB_WI@Z 12009c19 f   XMLChar.obj
 0001:00008caf       ?isValidName@XMLChar1_1@xercesc_2_8@@SA_NQB_W@Z 12009caf f   XMLChar.obj
 0001:00008d3c       ?isValidQName@XMLChar1_1@xercesc_2_8@@SA_NQB_WI@Z 12009d3c f   XMLChar.obj
 0001:00008d88       ??_EXMLChTranscoder@xercesc_2_8@@UAEPAXI@Z 12009d88 f i XMLChTranscoder.obj
 0001:00008dd7       ??0XMLChTranscoder@xercesc_2_8@@QAE@QB_WIQAVMemoryManager@1@@Z 12009dd7 f   XMLChTranscoder.obj
 0001:00008df7       ??1XMLChTranscoder@xercesc_2_8@@UAE@XZ 12009df7 f   XMLChTranscoder.obj
 0001:00008e02       ?transcodeFrom@XMLChTranscoder@xercesc_2_8@@UAEIQBEIQA_WIAAIQAE@Z 12009e02 f   XMLChTranscoder.obj
 0001:00008e3f       ?transcodeTo@XMLChTranscoder@xercesc_2_8@@UAEIQB_WIQAEIAAIW4UnRepOpts@XMLTranscoder@2@@Z 12009e3f f   XMLChTranscoder.obj
 0001:00008e71       ??0SchemaDateTimeException@xercesc_2_8@@QAE@QBDIW4Codes@XMLExcepts@1@PAVMemoryManager@1@@Z 12009e71 f i XMLDateTime.obj
 0001:00008eae       ??0SchemaDateTimeException@xercesc_2_8@@QAE@ABV01@@Z 12009eae f i XMLDateTime.obj
 0001:00008ec6       ??0SchemaDateTimeException@xercesc_2_8@@QAE@QBDIW4Codes@XMLExcepts@1@QB_W222PAVMemoryManager@1@@Z 12009ec6 f i XMLDateTime.obj
 0001:00008f0f       ??0SchemaDateTimeException@xercesc_2_8@@QAE@QBDIW4Codes@XMLExcepts@1@0000PAVMemoryManager@1@@Z 12009f0f f i XMLDateTime.obj
 0001:00008f58       ??1SchemaDateTimeException@xercesc_2_8@@UAE@XZ 12009f58 f i XMLDateTime.obj
 0001:00008f63       ??4ArrayIndexOutOfBoundsException@xercesc_2_8@@QAEAAV01@ABV01@@Z 12009f63 f i Base64.obj
 0001:00008f63       ??4InvalidDatatypeValueException@xercesc_2_8@@QAEAAV01@ABV01@@Z 12009f63 f i ValidationContextImpl.obj
 0001:00008f63       ??4IOException@xercesc_2_8@@QAEAAV01@ABV01@@Z 12009f63 f i HeaderDummy.obj
 0001:00008f63       ??4NetAccessorException@xercesc_2_8@@QAEAAV01@ABV01@@Z 12009f63 f i PlatformUtils.obj
 0001:00008f63       ??4NoSuchElementException@xercesc_2_8@@QAEAAV01@ABV01@@Z 12009f63 f i EncodingValidator.obj
 0001:00008f63       ??4TranscodingException@xercesc_2_8@@QAEAAV01@ABV01@@Z 12009f63 f i Base64.obj
 0001:00008f63       ??4ParseException@xercesc_2_8@@QAEAAV01@ABV01@@Z 12009f63 f i ParserForXMLSchema.obj
 0001:00008f63       ??4InvalidCastException@xercesc_2_8@@QAEAAV01@ABV01@@Z 12009f63 f i HeaderDummy.obj
 0001:00008f63       ??4XSerializationException@xercesc_2_8@@QAEAAV01@ABV01@@Z 12009f63 f i KVStringPair.obj
 0001:00008f63       ??4XMLPlatformUtilsException@xercesc_2_8@@QAEAAV01@ABV01@@Z 12009f63 f i Base64.obj
 0001:00008f63       ??4XPathException@xercesc_2_8@@QAEAAV01@ABV01@@Z 12009f63 f i TraverseSchema.obj
 0001:00008f63       ??4RuntimeException@xercesc_2_8@@QAEAAV01@ABV01@@Z 12009f63 f i EncodingValidator.obj
 0001:00008f63       ??4EmptyStackException@xercesc_2_8@@QAEAAV01@ABV01@@Z 12009f63 f i HeaderDummy.obj
 0001:00008f63       ??4NumberFormatException@xercesc_2_8@@QAEAAV01@ABV01@@Z 12009f63 f i XMLAbstractDoubleFloat.obj
 0001:00008f63       ??4MalformedURLException@xercesc_2_8@@QAEAAV01@ABV01@@Z 12009f63 f i PlatformUtils.obj
 0001:00008f63       ??4SchemaDateTimeException@xercesc_2_8@@QAEAAV01@ABV01@@Z 12009f63 f i XMLDateTime.obj
 0001:00008f63       ??4NullPointerException@xercesc_2_8@@QAEAAV01@ABV01@@Z 12009f63 f i EncodingValidator.obj
 0001:00008f63       ??4UTFDataFormatException@xercesc_2_8@@QAEAAV01@ABV01@@Z 12009f63 f i HeaderDummy.obj
 0001:00008f63       ??4UnsupportedEncodingException@xercesc_2_8@@QAEAAV01@ABV01@@Z 12009f63 f i HeaderDummy.obj
 0001:00008f63       ??4IllegalArgumentException@xercesc_2_8@@QAEAAV01@ABV01@@Z 12009f63 f i EncodingValidator.obj
 0001:00008f63       ??4UnexpectedEOFException@xercesc_2_8@@QAEAAV01@ABV01@@Z 12009f63 f i HeaderDummy.obj
 0001:00008f63       ??4InvalidDatatypeFacetException@xercesc_2_8@@QAEAAV01@ABV01@@Z 12009f63 f i AbstractNumericFacetValidator.obj
 0001:00008f75       ?duplicate@SchemaDateTimeException@xercesc_2_8@@UBEPAVXMLException@2@XZ 12009f75 f i XMLDateTime.obj
 0001:00008fac       ?getType@SchemaDateTimeException@xercesc_2_8@@UBEPB_WXZ 12009fac f i XMLDateTime.obj
 0001:00008fb2       ??_ESchemaDateTimeException@xercesc_2_8@@UAEPAXI@Z 12009fb2 f i XMLDateTime.obj
 0001:00009001       ??_FXMLDateTime@xercesc_2_8@@QAEXXZ 1200a001 f i XMLDateTime.obj
 0001:0000900d       ??_EXMLDateTime@xercesc_2_8@@UAEPAXI@Z 1200a00d f i XMLDateTime.obj
 0001:00009056       ?setBuffer@XMLDateTime@xercesc_2_8@@QAEXQB_W@Z 1200a056 f i XMLDateTime.obj
 0001:000090b3       ?reset@XMLDateTime@xercesc_2_8@@AAEXXZ 1200a0b3 f i XMLDateTime.obj
 0001:000090e0       ?copy@XMLDateTime@xercesc_2_8@@AAEXABV12@@Z 1200a0e0 f i XMLDateTime.obj
 0001:00009168       ?assertBuffer@XMLDateTime@xercesc_2_8@@ABEXXZ 1200a168 f i XMLDateTime.obj
 0001:000091a5       ?initParser@XMLDateTime@xercesc_2_8@@AAEXXZ 1200a1a5 f i XMLDateTime.obj
 0001:000091b3       ?isNormalized@XMLDateTime@xercesc_2_8@@ABE_NXZ 1200a1b3 f i XMLDateTime.obj
 0001:000091bb       ?getRetVal@XMLDateTime@xercesc_2_8@@CAHHH@Z 1200a1bb f i XMLDateTime.obj
 0001:00009270       ?compare@XMLDateTime@xercesc_2_8@@SAHQBV12@0_N@Z 1200a270 f   XMLDateTime.obj
 0001:00009435       ?addDuration@XMLDateTime@xercesc_2_8@@CAXPAV12@QBV12@H@Z 1200a435 f   XMLDateTime.obj
 0001:00009594       ?compareResult@XMLDateTime@xercesc_2_8@@CAHHH_N@Z 1200a594 f   XMLDateTime.obj
 0001:000095bc       ?compare@XMLDateTime@xercesc_2_8@@SAHQBV12@0@Z 1200a5bc f   XMLDateTime.obj
 0001:00009635       ?compareResult@XMLDateTime@xercesc_2_8@@CAHQBV12@0_NH@Z 1200a635 f   XMLDateTime.obj
 0001:000096d5       ?compareOrder@XMLDateTime@xercesc_2_8@@SAHQBV12@0@Z 1200a6d5 f   XMLDateTime.obj
 0001:000097be       ??1XMLDateTime@xercesc_2_8@@UAE@XZ 1200a7be f   XMLDateTime.obj
 0001:000097f5       ??0XMLDateTime@xercesc_2_8@@QAE@QAVMemoryManager@1@@Z 1200a7f5 f   XMLDateTime.obj
 0001:00009826       ??0XMLDateTime@xercesc_2_8@@QAE@QB_WQAVMemoryManager@1@@Z 1200a826 f   XMLDateTime.obj
 0001:0000986e       ??0XMLDateTime@xercesc_2_8@@QAE@ABV01@@Z 1200a86e f   XMLDateTime.obj
 0001:000098ab       ??4XMLDateTime@xercesc_2_8@@QAEAAV01@ABV01@@Z 1200a8ab f   XMLDateTime.obj
 0001:000098c3       ?toString@XMLDateTime@xercesc_2_8@@UBEPA_WXZ 1200a8c3 f   XMLDateTime.obj
 0001:000098d6       ?getRawData@XMLDateTime@xercesc_2_8@@UBEPA_WXZ 1200a8d6 f   XMLDateTime.obj
 0001:000098e3       ?getFormattedString@XMLDateTime@xercesc_2_8@@UBEPB_WXZ 1200a8e3 f   XMLDateTime.obj
 0001:000098e8       ?parseDateTime@XMLDateTime@xercesc_2_8@@QAEXXZ 1200a8e8 f   XMLDateTime.obj
 0001:00009967       ?parseDate@XMLDateTime@xercesc_2_8@@QAEXXZ 1200a967 f   XMLDateTime.obj
 0001:0000999b       ?parseTime@XMLDateTime@xercesc_2_8@@QAEXXZ 1200a99b f   XMLDateTime.obj
 0001:000099e1       ?parseDay@XMLDateTime@xercesc_2_8@@QAEXXZ 1200a9e1 f   XMLDateTime.obj
 0001:00009ad1       ?parseMonth@XMLDateTime@xercesc_2_8@@QAEXXZ 1200aad1 f   XMLDateTime.obj
 0001:00009bda       ?parseYear@XMLDateTime@xercesc_2_8@@QAEXXZ 1200abda f   XMLDateTime.obj
 0001:00009c4a       ?parseMonthDay@XMLDateTime@xercesc_2_8@@QAEXXZ 1200ac4a f   XMLDateTime.obj
 0001:00009d41       ?parseYearMonth@XMLDateTime@xercesc_2_8@@QAEXXZ 1200ad41 f   XMLDateTime.obj
 0001:00009d7c       ?parseDuration@XMLDateTime@xercesc_2_8@@QAEXXZ 1200ad7c f   XMLDateTime.obj
 0001:0000a107       ?getDate@XMLDateTime@xercesc_2_8@@AAEXXZ 1200b107 f   XMLDateTime.obj
 0001:0000a1ad       ?getTime@XMLDateTime@xercesc_2_8@@AAEXXZ 1200b1ad f   XMLDateTime.obj
 0001:0000a350       ?getYearMonth@XMLDateTime@xercesc_2_8@@AAEXXZ 1200b350 f   XMLDateTime.obj
 0001:0000a449       ?parseTimeZone@XMLDateTime@xercesc_2_8@@AAEXXZ 1200b449 f   XMLDateTime.obj
 0001:0000a4bb       ?getTimeZone@XMLDateTime@xercesc_2_8@@AAEXH@Z 1200b4bb f   XMLDateTime.obj
 0001:0000a571       ?normalize@XMLDateTime@xercesc_2_8@@AAEXXZ 1200b571 f   XMLDateTime.obj
 0001:0000a68c       ?validateDateTime@XMLDateTime@xercesc_2_8@@ABEXXZ 1200b68c f   XMLDateTime.obj
 0001:0000a8e5       ?indexOf@XMLDateTime@xercesc_2_8@@ABEHHH_W@Z 1200b8e5 f   XMLDateTime.obj
 0001:0000a90e       ?findUTCSign@XMLDateTime@xercesc_2_8@@AAEHH@Z 1200b90e f   XMLDateTime.obj
 0001:0000a952       ?parseInt@XMLDateTime@xercesc_2_8@@ABEHHH@Z 1200b952 f   XMLDateTime.obj
 0001:0000a9bc       ?parseMiliSecond@XMLDateTime@xercesc_2_8@@ABENHH@Z 1200b9bc f   XMLDateTime.obj
 0001:0000aa64       ?parseIntYear@XMLDateTime@xercesc_2_8@@ABEHH@Z 1200ba64 f   XMLDateTime.obj
 0001:0000aaf7       ?getDateTimeCanonicalRepresentation@XMLDateTime@xercesc_2_8@@QBEPA_WQAVMemoryManager@2@@Z 1200baf7 f   XMLDateTime.obj
 0001:0000ac71       ?getDateCanonicalRepresentation@XMLDateTime@xercesc_2_8@@QBEPA_WQAVMemoryManager@2@@Z 1200bc71 f   XMLDateTime.obj
 0001:0000af15       ?getTimeCanonicalRepresentation@XMLDateTime@xercesc_2_8@@QBEPA_WQAVMemoryManager@2@@Z 1200bf15 f   XMLDateTime.obj
 0001:0000afef       ?fillString@XMLDateTime@xercesc_2_8@@ABEXAAPA_WHH@Z 1200bfef f   XMLDateTime.obj
 0001:0000b063       ?fillYearString@XMLDateTime@xercesc_2_8@@ABEHAAPA_WH@Z 1200c063 f   XMLDateTime.obj
 0001:0000b0f6       ?searchMiliSeconds@XMLDateTime@xercesc_2_8@@ABEXAAPA_W0@Z 1200c0f6 f   XMLDateTime.obj
 0001:0000b153       ?createObject@XMLDateTime@xercesc_2_8@@SAPAVXSerializable@2@PAVMemoryManager@2@@Z 1200c153 f   XMLDateTime.obj
 0001:0000b173       ?getProtoType@XMLDateTime@xercesc_2_8@@UBEPAVXProtoType@2@XZ 1200c173 f   XMLDateTime.obj
 0001:0000b179       ?serialize@XMLDateTime@xercesc_2_8@@UAEXAAVXSerializeEngine@2@@Z 1200c179 f   XMLDateTime.obj
 0001:0000b24c       ??_FXMLDouble@xercesc_2_8@@QAEXXZ 1200c24c f i XMLDouble.obj
 0001:0000b258       ??_EXMLDouble@xercesc_2_8@@UAEPAXI@Z 1200c258 f i XMLDouble.obj
 0001:0000b2a7       ??0XMLDouble@xercesc_2_8@@QAE@QB_WQAVMemoryManager@1@@Z 1200c2a7 f   XMLDouble.obj
 0001:0000b2de       ??1XMLDouble@xercesc_2_8@@UAE@XZ 1200c2de f   XMLDouble.obj
 0001:0000b2e9       ?checkBoundary@XMLDouble@xercesc_2_8@@MAEXQAD@Z 1200c2e9 f   XMLDouble.obj
 0001:0000b2ee       ?createObject@XMLDouble@xercesc_2_8@@SAPAVXSerializable@2@PAVMemoryManager@2@@Z 1200c2ee f   XMLDouble.obj
 0001:0000b30e       ?getProtoType@XMLDouble@xercesc_2_8@@UBEPAVXProtoType@2@XZ 1200c30e f   XMLDouble.obj
 0001:0000b314       ??0XMLDouble@xercesc_2_8@@QAE@QAVMemoryManager@1@@Z 1200c314 f   XMLDouble.obj
 0001:0000b32a       ?serialize@XMLDouble@xercesc_2_8@@UAEXAAVXSerializeEngine@2@@Z 1200c32a f   XMLDouble.obj
 0001:0000b32a       ?serialize@XMLFloat@xercesc_2_8@@UAEXAAVXSerializeEngine@2@@Z 1200c32a f   XMLFloat.obj
 0001:0000b32f       ?xlatThisOne@XMLEBCDICTranscoder@xercesc_2_8@@SA_WE@Z 1200c32f f   XMLEBCDICTranscoder.obj
 0001:0000b33d       ??0XMLEBCDICTranscoder@xercesc_2_8@@QAE@QB_WIQAVMemoryManager@1@@Z 1200c33d f   XMLEBCDICTranscoder.obj
 0001:0000b36c       ??_EXMLException@xercesc_2_8@@UAEPAXI@Z 1200c36c f i XMLException.obj
 0001:0000b4ab       ?initializeExceptionMsgLoader@XMLInitializer@xercesc_2_8@@CAXXZ 1200c4ab f   XMLException.obj
 0001:0000b4cf       ??1XMLException@xercesc_2_8@@UAE@XZ 1200c4cf f   XMLException.obj
 0001:0000b4f0       ?setPosition@XMLException@xercesc_2_8@@QAEXQBDI@Z 1200c4f0 f   XMLException.obj
 0001:0000b51a       ??0XMLException@xercesc_2_8@@QAE@XZ 1200c51a f   XMLException.obj
 0001:0000b53a       ??0XMLException@xercesc_2_8@@QAE@QBDIQAVMemoryManager@1@@Z 1200c53a f   XMLException.obj
 0001:0000b57f       ??0XMLException@xercesc_2_8@@QAE@ABV01@@Z 1200c57f f   XMLException.obj
 0001:0000b5cd       ??4XMLException@xercesc_2_8@@QAEAAV01@ABV01@@Z 1200c5cd f   XMLException.obj
 0001:0000b63a       ?loadExceptText@XMLException@xercesc_2_8@@IAEXW4Codes@XMLExcepts@2@@Z 1200c63a f   XMLException.obj
 0001:0000b6a3       ?loadExceptText@XMLException@xercesc_2_8@@IAEXW4Codes@XMLExcepts@2@QB_W111@Z 1200c6a3 f   XMLException.obj
 0001:0000b739       ?loadExceptText@XMLException@xercesc_2_8@@IAEXW4Codes@XMLExcepts@2@QBD111@Z 1200c739 f   XMLException.obj
 0001:0000b7cf       ?reinitMsgMutex@XMLException@xercesc_2_8@@SAXXZ 1200c7cf f   XMLException.obj
 0001:0000b7f8       ?reinitMsgLoader@XMLException@xercesc_2_8@@SAXXZ 1200c7f8 f   XMLException.obj
 0001:0000b810       ??_FXMLFloat@xercesc_2_8@@QAEXXZ 1200c810 f i XMLFloat.obj
 0001:0000b81c       ??_EXMLFloat@xercesc_2_8@@UAEPAXI@Z 1200c81c f i XMLFloat.obj
 0001:0000b86b       ?compareValues@XMLFloat@xercesc_2_8@@SAHQBV12@0@Z 1200c86b f i XMLFloat.obj
 0001:0000b86b       ?compareValues@XMLDouble@xercesc_2_8@@SAHQBV12@0@Z 1200c86b f i XMLDouble.obj
 0001:0000b880       ??0XMLFloat@xercesc_2_8@@QAE@QB_WQAVMemoryManager@1@@Z 1200c880 f   XMLFloat.obj
 0001:0000b8b7       ??1XMLFloat@xercesc_2_8@@UAE@XZ 1200c8b7 f   XMLFloat.obj
 0001:0000b8c2       ?checkBoundary@XMLFloat@xercesc_2_8@@MAEXQAD@Z 1200c8c2 f   XMLFloat.obj
 0001:0000b94a       ?createObject@XMLFloat@xercesc_2_8@@SAPAVXSerializable@2@PAVMemoryManager@2@@Z 1200c94a f   XMLFloat.obj
 0001:0000b96a       ?getProtoType@XMLFloat@xercesc_2_8@@UBEPAVXProtoType@2@XZ 1200c96a f   XMLFloat.obj
 0001:0000b970       ??0XMLFloat@xercesc_2_8@@QAE@QAVMemoryManager@1@@Z 1200c970 f   XMLFloat.obj
 0001:0000b986       ??_EXML256TableTranscoder@xercesc_2_8@@UAEPAXI@Z 1200c986 f i XML256TableTranscoder.obj
 0001:0000b986       ??_EXMLIBM1047Transcoder@xercesc_2_8@@UAEPAXI@Z 1200c986 f i XMLIBM1047Transcoder.obj
 0001:0000b986       ??_EXMLWin1252Transcoder@xercesc_2_8@@UAEPAXI@Z 1200c986 f i XMLWin1252Transcoder.obj
 0001:0000b986       ??_EXMLEBCDICTranscoder@xercesc_2_8@@UAEPAXI@Z 1200c986 f i XMLEBCDICTranscoder.obj
 0001:0000b986       ??_EXMLIBM1140Transcoder@xercesc_2_8@@UAEPAXI@Z 1200c986 f i XMLIBM1140Transcoder.obj
 0001:0000b9d5       ?xlatThisOne@XMLIBM1047Transcoder@xercesc_2_8@@SA_WE@Z 1200c9d5 f   XMLIBM1047Transcoder.obj
 0001:0000b9e3       ??0XMLIBM1047Transcoder@xercesc_2_8@@QAE@QB_WIQAVMemoryManager@1@@Z 1200c9e3 f   XMLIBM1047Transcoder.obj
 0001:0000ba12       ?xlatThisOne@XMLIBM1140Transcoder@xercesc_2_8@@SA_WE@Z 1200ca12 f   XMLIBM1140Transcoder.obj
 0001:0000ba20       ??0XMLIBM1140Transcoder@xercesc_2_8@@QAE@QB_WIQAVMemoryManager@1@@Z 1200ca20 f   XMLIBM1140Transcoder.obj
 0001:0000ba4f       ?InitializeAllStaticData@XMLInitializer@xercesc_2_8@@KAXXZ 1200ca4f f   XMLInitializer.obj
 0001:0000bacb       ?setLocale@XMLMsgLoader@xercesc_2_8@@SAXQBD@Z 1200cacb f   XMLMsgLoader.obj
 0001:0000bb21       ?getLocale@XMLMsgLoader@xercesc_2_8@@SAPBDXZ 1200cb21 f   XMLMsgLoader.obj
 0001:0000bb27       ?setNLSHome@XMLMsgLoader@xercesc_2_8@@SAXQBD@Z 1200cb27 f   XMLMsgLoader.obj
 0001:0000bb61       ?getNLSHome@XMLMsgLoader@xercesc_2_8@@SAPBDXZ 1200cb61 f   XMLMsgLoader.obj
 0001:0000bb67       ?getLanguageName@XMLMsgLoader@xercesc_2_8@@UBEPB_WXZ 1200cb67 f   XMLMsgLoader.obj
 0001:0000bb6d       ??0XMLNumber@xercesc_2_8@@IAE@XZ 1200cb6d f   XMLNumber.obj
 0001:0000bb76       ??0XMLNumber@xercesc_2_8@@IAE@ABV01@@Z 1200cb76 f   XMLNumber.obj
 0001:0000bb81       ?getProtoType@XMLNumber@xercesc_2_8@@UBEPAVXProtoType@2@XZ 1200cb81 f   XMLNumber.obj
 0001:0000bb87       ?loadNumber@XMLNumber@xercesc_2_8@@SAPAV12@W4NumberType@12@AAVXSerializeEngine@2@@Z 1200cb87 f   XMLNumber.obj
 0001:0000bbc4       ??_FXMLUri@xercesc_2_8@@QAEXXZ 1200cbc4 f i XMLString.obj
 0001:0000bbd0       ?getUriText@XMLUri@xercesc_2_8@@QBEPB_WXZ 1200cbd0 f i XMLString.obj
 0001:0000bbe3       ?isReservedOrUnreservedCharacter@XMLUri@xercesc_2_8@@CA_N_W@Z 1200cbe3 f i XMLString.obj
 0001:0000bc0d       ?isReservedCharacter@XMLUri@xercesc_2_8@@CA_N_W@Z 1200cc0d f i XMLString.obj
 0001:0000bc28       ?isPathCharacter@XMLUri@xercesc_2_8@@CA_N_W@Z 1200cc28 f i XMLString.obj
 0001:0000bc43       ?isUnreservedCharacter@XMLUri@xercesc_2_8@@CA_N_W@Z 1200cc43 f i XMLString.obj
 0001:0000bc6d       ?binToText@XMLString@xercesc_2_8@@SAXKQADIIQAVMemoryManager@2@@Z 1200cc6d f   XMLString.obj
 0001:0000bd79       ?binToText@XMLString@xercesc_2_8@@SAXIQADIIQAVMemoryManager@2@@Z 1200cd79 f   XMLString.obj
 0001:0000bd82       ?binToText@XMLString@xercesc_2_8@@SAXJQADIIQAVMemoryManager@2@@Z 1200cd82 f   XMLString.obj
 0001:0000bd82       ?binToText@XMLString@xercesc_2_8@@SAXHQADIIQAVMemoryManager@2@@Z 1200cd82 f   XMLString.obj
 0001:0000bdae       ?catString@XMLString@xercesc_2_8@@SAXQADQBD@Z 1200cdae f   XMLString.obj
 0001:0000bdb3       ?compareIString@XMLString@xercesc_2_8@@SAHQBD0@Z 1200cdb3 f   XMLString.obj
 0001:0000bdb9       ?compareNString@XMLString@xercesc_2_8@@SAHQBD0I@Z 1200cdb9 f   XMLString.obj
 0001:0000bdc9       ?compareNIString@XMLString@xercesc_2_8@@SAHQBD0I@Z 1200cdc9 f   XMLString.obj
 0001:0000bdd9       ?compareString@XMLString@xercesc_2_8@@SAHQBD0@Z 1200cdd9 f   XMLString.obj
 0001:0000bdde       ?copyString@XMLString@xercesc_2_8@@SAXQADQBD@Z 1200cdde f   XMLString.obj
 0001:0000bde3       ?cut@XMLString@xercesc_2_8@@SAXQA_WI@Z 1200cde3 f   XMLString.obj
 0001:0000be14       ?hash@XMLString@xercesc_2_8@@SAIQBDIQAVMemoryManager@2@@Z 1200ce14 f   XMLString.obj
 0001:0000be47       ?indexOf@XMLString@xercesc_2_8@@SAHQBDD@Z 1200ce47 f   XMLString.obj
 0001:0000be6e       ?indexOf@XMLString@xercesc_2_8@@SAHQBDDIQAVMemoryManager@2@@Z 1200ce6e f   XMLString.obj
 0001:0000bec3       ?lastIndexOf@XMLString@xercesc_2_8@@SAHQBDD@Z 1200cec3 f   XMLString.obj
 0001:0000bee2       ?lastIndexOf@XMLString@xercesc_2_8@@SAHQBDDIQAVMemoryManager@2@@Z 1200cee2 f   XMLString.obj
 0001:0000bf37       ?replaceTokens@XMLString@xercesc_2_8@@SAIQA_WIQB_W111QAVMemoryManager@2@@Z 1200cf37 f   XMLString.obj
 0001:0000c025       ?replicate@XMLString@xercesc_2_8@@SAPA_WQB_W@Z 1200d025 f   XMLString.obj
 0001:0000c068       ?replicate@XMLString@xercesc_2_8@@SAPADQBD@Z 1200d068 f   XMLString.obj
 0001:0000c099       ?replicate@XMLString@xercesc_2_8@@SAPADQBDQAVMemoryManager@2@@Z 1200d099 f   XMLString.obj
 0001:0000c0d1       ?startsWith@XMLString@xercesc_2_8@@SA_NQBD0@Z 1200d0d1 f   XMLString.obj
 0001:0000c0f2       ?startsWithI@XMLString@xercesc_2_8@@SA_NQBD0@Z 1200d0f2 f   XMLString.obj
 0001:0000c113       ?stringLen@XMLString@xercesc_2_8@@SAIQBD@Z 1200d113 f   XMLString.obj
 0001:0000c118       ?transcode@XMLString@xercesc_2_8@@SAPADQB_W@Z 1200d118 f   XMLString.obj
 0001:0000c128       ?transcode@XMLString@xercesc_2_8@@SAPADQB_WQAVMemoryManager@2@@Z 1200d128 f   XMLString.obj
 0001:0000c13c       ?transcode@XMLString@xercesc_2_8@@SA_NQB_WQADIQAVMemoryManager@2@@Z 1200d13c f   XMLString.obj
 0001:0000c15d       ?transcode@XMLString@xercesc_2_8@@SAPA_WQBD@Z 1200d15d f   XMLString.obj
 0001:0000c16d       ?transcode@XMLString@xercesc_2_8@@SAPA_WQBDQAVMemoryManager@2@@Z 1200d16d f   XMLString.obj
 0001:0000c181       ?transcode@XMLString@xercesc_2_8@@SA_NQBDQA_WIQAVMemoryManager@2@@Z 1200d181 f   XMLString.obj
 0001:0000c1a2       ?trim@XMLString@xercesc_2_8@@SAXQAD@Z 1200d1a2 f   XMLString.obj
 0001:0000c216       ?subString@XMLString@xercesc_2_8@@SAXQADQBDHHQAVMemoryManager@2@@Z 1200d216 f   XMLString.obj
 0001:0000c2a8       ?isValidNOTATION@XMLString@xercesc_2_8@@SA_NQB_WQAVMemoryManager@2@@Z 1200d2a8 f   XMLString.obj
 0001:0000c364       ?isValidNCName@XMLString@xercesc_2_8@@SA_NQB_W@Z 1200d364 f   XMLString.obj
 0001:0000c37b       ?isValidName@XMLString@xercesc_2_8@@SA_NQB_W@Z 1200d37b f   XMLString.obj
 0001:0000c392       ?isValidEncName@XMLString@xercesc_2_8@@SA_NQB_W@Z 1200d392 f   XMLString.obj
 0001:0000c3f4       ?isValidQName@XMLString@xercesc_2_8@@SA_NQB_W@Z 1200d3f4 f   XMLString.obj
 0001:0000c40b       ?isAlpha@XMLString@xercesc_2_8@@SA_N_W@Z 1200d40b f   XMLString.obj
 0001:0000c42a       ?isDigit@XMLString@xercesc_2_8@@SA_N_W@Z 1200d42a f   XMLString.obj
 0001:0000c43d       ?isAlphaNum@XMLString@xercesc_2_8@@SA_N_W@Z 1200d43d f   XMLString.obj
 0001:0000c45e       ?isHex@XMLString@xercesc_2_8@@SA_N_W@Z 1200d45e f   XMLString.obj
 0001:0000c48a       ?isAllWhiteSpace@XMLString@xercesc_2_8@@SA_NQB_W@Z 1200d48a f   XMLString.obj
 0001:0000c4a1       ?binToText@XMLString@xercesc_2_8@@SAXKQA_WIIQAVMemoryManager@2@@Z 1200d4a1 f   XMLString.obj
 0001:0000c5d6       ?binToText@XMLString@xercesc_2_8@@SAXIQA_WIIQAVMemoryManager@2@@Z 1200d5d6 f   XMLString.obj
 0001:0000c5f4       ?binToText@XMLString@xercesc_2_8@@SAXJQA_WIIQAVMemoryManager@2@@Z 1200d5f4 f   XMLString.obj
 0001:0000c623       ?binToText@XMLString@xercesc_2_8@@SAXHQA_WIIQAVMemoryManager@2@@Z 1200d623 f   XMLString.obj
 0001:0000c654       ?catString@XMLString@xercesc_2_8@@SAXQA_WQB_W@Z 1200d654 f   XMLString.obj
 0001:0000c685       ?compareIString@XMLString@xercesc_2_8@@SAHQB_W0@Z 1200d685 f   XMLString.obj
 0001:0000c699       ?compareIStringASCII@XMLString@xercesc_2_8@@SAHQB_W0@Z 1200d699 f   XMLString.obj
 0001:0000c70b       ?compareNString@XMLString@xercesc_2_8@@SAHQB_W0I@Z 1200d70b f   XMLString.obj
 0001:0000c742       ?compareNIString@XMLString@xercesc_2_8@@SAHQB_W0I@Z 1200d742 f   XMLString.obj
 0001:0000c75a       ?compareString@XMLString@xercesc_2_8@@SAHQB_W0@Z 1200d75a f   XMLString.obj
 0001:0000c7a6       ?regionMatches@XMLString@xercesc_2_8@@SA_NQB_WH0HI@Z 1200d7a6 f   XMLString.obj
 0001:0000c7eb       ?regionIMatches@XMLString@xercesc_2_8@@SA_NQB_WH0HI@Z 1200d7eb f   XMLString.obj
 0001:0000c830       ?copyString@XMLString@xercesc_2_8@@SAXQA_WQB_W@Z 1200d830 f   XMLString.obj
 0001:0000c86a       ?copyNString@XMLString@xercesc_2_8@@SA_NQA_WQB_WI@Z 1200d86a f   XMLString.obj
 0001:0000c8a5       ?findAny@XMLString@xercesc_2_8@@SAPA_WQA_WQB_W@Z 1200d8a5 f   XMLString.obj
 0001:0000c8a5       ?findAny@XMLString@xercesc_2_8@@SAPB_WQB_W0@Z 1200d8a5 f   XMLString.obj
 0001:0000c8e8       ?patternMatch@XMLString@xercesc_2_8@@SAHQB_W0@Z 1200d8e8 f   XMLString.obj
 0001:0000c946       ?hashN@XMLString@xercesc_2_8@@SAIQB_WIIQAVMemoryManager@2@@Z 1200d946 f   XMLString.obj
 0001:0000c979       ?indexOf@XMLString@xercesc_2_8@@SAHQB_W_W@Z 1200d979 f   XMLString.obj
 0001:0000c9a8       ?indexOf@XMLString@xercesc_2_8@@SAHQB_W_WIQAVMemoryManager@2@@Z 1200d9a8 f   XMLString.obj
 0001:0000c9ff       ?lastIndexOf@XMLString@xercesc_2_8@@SAH_WQB_WI@Z 1200d9ff f   XMLString.obj
 0001:0000ca1b       ?lastIndexOf@XMLString@xercesc_2_8@@SAHQB_W_WIQAVMemoryManager@2@@Z 1200da1b f   XMLString.obj
 0001:0000ca72       ?makeUName@XMLString@xercesc_2_8@@SAPA_WQB_W0@Z 1200da72 f   XMLString.obj
 0001:0000caf1       ?textToBin@XMLString@xercesc_2_8@@SA_NQB_WAAIQAVMemoryManager@2@@Z 1200daf1 f   XMLString.obj
 0001:0000cbd2       ?parseInt@XMLString@xercesc_2_8@@SAHQB_WQAVMemoryManager@2@@Z 1200dbd2 f   XMLString.obj
 0001:0000cd58       ?trim@XMLString@xercesc_2_8@@SAXQA_W@Z 1200dd58 f   XMLString.obj
 0001:0000cdc3       ?upperCase@XMLString@xercesc_2_8@@SAXQA_W@Z 1200ddc3 f   XMLString.obj
 0001:0000cdd3       ?upperCaseASCII@XMLString@xercesc_2_8@@SAXQA_W@Z 1200ddd3 f   XMLString.obj
 0001:0000cdfb       ?lowerCase@XMLString@xercesc_2_8@@SAXQA_W@Z 1200ddfb f   XMLString.obj
 0001:0000ce0b       ?lowerCaseASCII@XMLString@xercesc_2_8@@SAXQA_W@Z 1200de0b f   XMLString.obj
 0001:0000ce33       ?subString@XMLString@xercesc_2_8@@SAXQA_WQB_WHHQAVMemoryManager@2@@Z 1200de33 f   XMLString.obj
 0001:0000ce5b       ?subString@XMLString@xercesc_2_8@@SAXQA_WQB_WHHHQAVMemoryManager@2@@Z 1200de5b f   XMLString.obj
 0001:0000cee6       ?tokenizeString@XMLString@xercesc_2_8@@SAPAV?$BaseRefVectorOf@_W@2@QB_WQAVMemoryManager@2@@Z 1200dee6 f   XMLString.obj
 0001:0000cfd1       ?isInList@XMLString@xercesc_2_8@@SA_NQB_W0@Z 1200dfd1 f   XMLString.obj
 0001:0000d03d       ?isWSReplaced@XMLString@xercesc_2_8@@SA_NQB_W@Z 1200e03d f   XMLString.obj
 0001:0000d072       ?replaceWS@XMLString@xercesc_2_8@@SAXQA_WQAVMemoryManager@2@@Z 1200e072 f   XMLString.obj
 0001:0000d0f0       ?isWSCollapsed@XMLString@xercesc_2_8@@SA_NQB_W@Z 1200e0f0 f   XMLString.obj
 0001:0000d14a       ?collapseWS@XMLString@xercesc_2_8@@SAXQA_WQAVMemoryManager@2@@Z 1200e14a f   XMLString.obj
 0001:0000d204       ?removeWS@XMLString@xercesc_2_8@@SAXQA_WQAVMemoryManager@2@@Z 1200e204 f   XMLString.obj
 0001:0000d280       ?removeChar@XMLString@xercesc_2_8@@SAXQB_WAB_WAAVXMLBuffer@2@@Z 1200e280 f   XMLString.obj
 0001:0000d2b9       ?fixURI@XMLString@xercesc_2_8@@SAXQB_WQA_W@Z 1200e2b9 f   XMLString.obj
 0001:0000d3cd       ?release@XMLString@xercesc_2_8@@SAXPAPAD@Z 1200e3cd f   XMLString.obj
 0001:0000d3cd       ?release@XMLString@xercesc_2_8@@SAXPAPAE@Z 1200e3cd f   XMLString.obj
 0001:0000d3cd       ?release@XMLString@xercesc_2_8@@SAXPAPA_W@Z 1200e3cd f   XMLString.obj
 0001:0000d3df       ?release@XMLString@xercesc_2_8@@SAXPAPAXQAVMemoryManager@2@@Z 1200e3df f   XMLString.obj
 0001:0000d3f4       ?initString@XMLString@xercesc_2_8@@CAXQAVXMLLCPTranscoder@2@QAVMemoryManager@2@@Z 1200e3f4 f   XMLString.obj
 0001:0000d407       ?termString@XMLString@xercesc_2_8@@CAXXZ 1200e407 f   XMLString.obj
 0001:0000d426       ??1?$BaseRefVectorOf@_W@xercesc_2_8@@UAE@XZ 1200e426 f i XMLString.obj
 0001:0000d42d       ?setElementAt@?$BaseRefVectorOf@_W@xercesc_2_8@@UAEXQA_WI@Z 1200e42d f i XMLString.obj
 0001:0000d482       ?removeAllElements@?$BaseRefVectorOf@_W@xercesc_2_8@@UAEXXZ 1200e482 f i XMLString.obj
 0001:0000d4b3       ?removeElementAt@?$BaseRefVectorOf@_W@xercesc_2_8@@UAEXI@Z 1200e4b3 f i XMLString.obj
 0001:0000d53b       ?removeLastElement@?$BaseRefVectorOf@_W@xercesc_2_8@@UAEXXZ 1200e53b f i XMLString.obj
 0001:0000d559       ?cleanup@?$BaseRefVectorOf@_W@xercesc_2_8@@UAEXXZ 1200e559 f i XMLString.obj
 0001:0000d58a       ??0?$RefArrayVectorOf@_W@xercesc_2_8@@QAE@I_NQAVMemoryManager@1@@Z 1200e58a f i XMLString.obj
 0001:0000d5ca       ?setElementAt@?$RefArrayVectorOf@_W@xercesc_2_8@@UAEXQA_WI@Z 1200e5ca f i XMLString.obj
 0001:0000d621       ?removeAllElements@?$RefArrayVectorOf@_W@xercesc_2_8@@UAEXXZ 1200e621 f i XMLString.obj
 0001:0000d654       ?removeElementAt@?$RefArrayVectorOf@_W@xercesc_2_8@@UAEXI@Z 1200e654 f i XMLString.obj
 0001:0000d6db       ?removeLastElement@?$RefArrayVectorOf@_W@xercesc_2_8@@UAEXXZ 1200e6db f i XMLString.obj
 0001:0000d701       ?cleanup@?$RefArrayVectorOf@_W@xercesc_2_8@@UAEXXZ 1200e701 f i XMLString.obj
 0001:0000d734       ??_E?$BaseRefVectorOf@_W@xercesc_2_8@@UAEPAXI@Z 1200e734 f i  CIL library: CIL module
 0001:0000d734       ??_G?$BaseRefVectorOf@_W@xercesc_2_8@@UAEPAXI@Z 1200e734 f i XMLString.obj
 0001:0000d751       ??_G?$RefArrayVectorOf@_W@xercesc_2_8@@UAEPAXI@Z 1200e751 f i XMLString.obj
 0001:0000d751       ??_E?$RefArrayVectorOf@_W@xercesc_2_8@@UAEPAXI@Z 1200e751 f i  CIL library: CIL module
 0001:0000d7b9       ?isDelimeter@XMLStringTokenizer@xercesc_2_8@@AAE_N_W@Z 1200e7b9 f i XMLStringTokenizer.obj
 0001:0000d7d0       ?countTokens@XMLStringTokenizer@xercesc_2_8@@QAEHXZ 1200e7d0 f i XMLStringTokenizer.obj
 0001:0000d829       ??0XMLStringTokenizer@xercesc_2_8@@QAE@QB_WQAVMemoryManager@1@@Z 1200e829 f   XMLStringTokenizer.obj
 0001:0000d8c2       ??0XMLStringTokenizer@xercesc_2_8@@QAE@QB_W0QAVMemoryManager@1@@Z 1200e8c2 f   XMLStringTokenizer.obj
 0001:0000d95f       ??1XMLStringTokenizer@xercesc_2_8@@QAE@XZ 1200e95f f   XMLStringTokenizer.obj
 0001:0000d964       ?cleanUp@XMLStringTokenizer@xercesc_2_8@@AAEXXZ 1200e964 f   XMLStringTokenizer.obj
 0001:0000d994       ?nextToken@XMLStringTokenizer@xercesc_2_8@@QAEPA_WXZ 1200e994 f   XMLStringTokenizer.obj
 0001:0000da20       ?hasMoreTokens@XMLStringTokenizer@xercesc_2_8@@QAE_NXZ 1200ea20 f   XMLStringTokenizer.obj
 0001:0000da2b       ??_EXMLUCS4Transcoder@xercesc_2_8@@UAEPAXI@Z 1200ea2b f i XMLUCSTranscoder.obj
 0001:0000da7a       ??0XMLUCS4Transcoder@xercesc_2_8@@QAE@QB_WI_NQAVMemoryManager@1@@Z 1200ea7a f   XMLUCSTranscoder.obj
 0001:0000daa1       ??1XMLUCS4Transcoder@xercesc_2_8@@UAE@XZ 1200eaa1 f   XMLUCSTranscoder.obj
 0001:0000daac       ?transcodeFrom@XMLUCS4Transcoder@xercesc_2_8@@UAEIQBEIQA_WIAAIQAE@Z 1200eaac f   XMLUCSTranscoder.obj
 0001:0000db67       ?transcodeTo@XMLUCS4Transcoder@xercesc_2_8@@UAEIQB_WIQAEIAAIW4UnRepOpts@XMLTranscoder@2@@Z 1200eb67 f   XMLUCSTranscoder.obj
 0001:0000dc4b       ??_EXMLUri@xercesc_2_8@@UAEPAXI@Z 1200ec4b f i XMLUri.obj
 0001:0000dc94       ??0XMLUri@xercesc_2_8@@QAE@QB_WQAVMemoryManager@1@@Z 1200ec94 f   XMLUri.obj
 0001:0000dd31       ??0XMLUri@xercesc_2_8@@QAE@QBV01@QB_WQAVMemoryManager@1@@Z 1200ed31 f   XMLUri.obj
 0001:0000ddd0       ??0XMLUri@xercesc_2_8@@QAE@ABV01@@Z 1200edd0 f   XMLUri.obj
 0001:0000de6d       ??4XMLUri@xercesc_2_8@@QAEAAV01@ABV01@@Z 1200ee6d f   XMLUri.obj
 0001:0000dedd       ??1XMLUri@xercesc_2_8@@UAE@XZ 1200eedd f   XMLUri.obj
 0001:0000df09       ?cleanUp@XMLUri@xercesc_2_8@@AAEXXZ 1200ef09 f   XMLUri.obj
 0001:0000df9e       ?initialize@XMLUri@xercesc_2_8@@AAEXABV12@@Z 1200ef9e f   XMLUri.obj
 0001:0000e01a       ?initialize@XMLUri@xercesc_2_8@@AAEXQBV12@QB_W@Z 1200f01a f   XMLUri.obj
 0001:0000e7e2       ?initializeAuthority@XMLUri@xercesc_2_8@@AAEXQB_W@Z 1200f7e2 f   XMLUri.obj
 0001:0000ea62       ?initializeScheme@XMLUri@xercesc_2_8@@AAEXQB_W@Z 1200fa62 f   XMLUri.obj
 0001:0000eb3a       ?initializePath@XMLUri@xercesc_2_8@@AAEXQB_W@Z 1200fb3a f   XMLUri.obj
 0001:0000f0ed       ?setScheme@XMLUri@xercesc_2_8@@QAEXQB_W@Z 120100ed f   XMLUri.obj
 0001:0000f17f       ?setUserInfo@XMLUri@xercesc_2_8@@QAEXQB_W@Z 1201017f f   XMLUri.obj
 0001:0000f206       ?setHost@XMLUri@xercesc_2_8@@QAEXQB_W@Z 12010206 f   XMLUri.obj
 0001:0000f2c9       ?setPort@XMLUri@xercesc_2_8@@QAEXH@Z 120102c9 f   XMLUri.obj
 0001:0000f3aa       ?setRegBasedAuthority@XMLUri@xercesc_2_8@@QAEXQB_W@Z 120103aa f   XMLUri.obj
 0001:0000f441       ?setPath@XMLUri@xercesc_2_8@@QAEXQB_W@Z 12010441 f   XMLUri.obj
 0001:0000f488       ?setFragment@XMLUri@xercesc_2_8@@QAEXQB_W@Z 12010488 f   XMLUri.obj
 0001:0000f54c       ?setQueryString@XMLUri@xercesc_2_8@@QAEXQB_W@Z 1201054c f   XMLUri.obj
 0001:0000f610       ?isConformantSchemeName@XMLUri@xercesc_2_8@@CA_NQB_W@Z 12010610 f   XMLUri.obj
 0001:0000f660       ?isConformantUserInfo@XMLUri@xercesc_2_8@@CAXQB_WQAVMemoryManager@2@@Z 12010660 f   XMLUri.obj
 0001:0000f766       ?isValidServerBasedAuthority@XMLUri@xercesc_2_8@@CA_NQB_WHH0H@Z 12010766 f   XMLUri.obj
 0001:0000f80c       ?isValidServerBasedAuthority@XMLUri@xercesc_2_8@@CA_NQB_WH0QAVMemoryManager@2@@Z 1201080c f   XMLUri.obj
 0001:0000f89b       ?isValidRegistryBasedAuthority@XMLUri@xercesc_2_8@@CA_NQB_WH@Z 1201089b f   XMLUri.obj
 0001:0000f918       ?isValidRegistryBasedAuthority@XMLUri@xercesc_2_8@@CA_NQB_W@Z 12010918 f   XMLUri.obj
 0001:0000f982       ?isURIString@XMLUri@xercesc_2_8@@SA_NQB_W@Z 12010982 f   XMLUri.obj
 0001:0000f9da       ?isWellFormedAddress@XMLUri@xercesc_2_8@@CA_NQB_WQAVMemoryManager@2@@Z 120109da f   XMLUri.obj
 0001:0000fb3d       ?isWellFormedIPv4Address@XMLUri@xercesc_2_8@@CA_NQB_WH@Z 12010b3d f   XMLUri.obj
 0001:0000fbcf       ?isWellFormedIPv6Reference@XMLUri@xercesc_2_8@@CA_NQB_WH@Z 12010bcf f   XMLUri.obj
 0001:0000fc94       ?scanHexSequence@XMLUri@xercesc_2_8@@CAHQB_WHHAAH@Z 12010c94 f   XMLUri.obj
 0001:0000fd42       ?buildFullText@XMLUri@xercesc_2_8@@AAEXXZ 12010d42 f   XMLUri.obj
 0001:0000ff0a       ?isValidURI@XMLUri@xercesc_2_8@@SA_NQBV12@QB_W@Z 12010f0a f   XMLUri.obj
 0001:0001008c       ?isValidURI@XMLUri@xercesc_2_8@@SA_N_NQB_W@Z 1201108c f   XMLUri.obj
 0001:00010210       ?isWellFormedAddress@XMLUri@xercesc_2_8@@CA_NQB_WH@Z 12011210 f   XMLUri.obj
 0001:00010319       ?processScheme@XMLUri@xercesc_2_8@@CA_NQB_WAAH@Z 12011319 f   XMLUri.obj
 0001:00010349       ?isConformantSchemeName@XMLUri@xercesc_2_8@@CA_NQB_WH@Z 12011349 f   XMLUri.obj
 0001:0001039b       ?processAuthority@XMLUri@xercesc_2_8@@CA_NQB_WH@Z 1201139b f   XMLUri.obj
 0001:000104b6       ?processPath@XMLUri@xercesc_2_8@@CA_NQB_WH_N@Z 120114b6 f   XMLUri.obj
 0001:000105d8       ?normalizeURI@XMLUri@xercesc_2_8@@SAXQB_WAAVXMLBuffer@2@@Z 120115d8 f   XMLUri.obj
 0001:00010628       ?createObject@XMLUri@xercesc_2_8@@SAPAVXSerializable@2@PAVMemoryManager@2@@Z 12011628 f   XMLUri.obj
 0001:00010648       ?getProtoType@XMLUri@xercesc_2_8@@UBEPAVXProtoType@2@XZ 12011648 f   XMLUri.obj
 0001:0001064e       ?serialize@XMLUri@xercesc_2_8@@UAEXAAVXSerializeEngine@2@@Z 1201164e f   XMLUri.obj
 0001:00010731       ??0XMLUri@xercesc_2_8@@QAE@QAVMemoryManager@1@@Z 12011731 f   XMLUri.obj
 0001:00010761       ??_EXMLURL@xercesc_2_8@@UAEPAXI@Z 12011761 f i XMLURL.obj
 0001:000107fb       ?lookupByName@XMLURL@xercesc_2_8@@SA?AW4Protocols@12@QB_W@Z 120117fb f   XMLURL.obj
 0001:00010830       ??0XMLURL@xercesc_2_8@@QAE@QAVMemoryManager@1@@Z 12011830 f   XMLURL.obj
 0001:00010866       ??0XMLURL@xercesc_2_8@@QAE@QB_W0QAVMemoryManager@1@@Z 12011866 f   XMLURL.obj
 0001:00010900       ??0XMLURL@xercesc_2_8@@QAE@QB_WQBDQAVMemoryManager@1@@Z 12011900 f   XMLURL.obj
 0001:000109c0       ??0XMLURL@xercesc_2_8@@QAE@ABV01@QB_W@Z 120119c0 f   XMLURL.obj
 0001:00010a5b       ??0XMLURL@xercesc_2_8@@QAE@ABV01@QBD@Z 12011a5b f   XMLURL.obj
 0001:00010b1e       ??0XMLURL@xercesc_2_8@@QAE@QB_WQAVMemoryManager@1@@Z 12011b1e f   XMLURL.obj
 0001:00010bb5       ??0XMLURL@xercesc_2_8@@QAE@QBDQAVMemoryManager@1@@Z 12011bb5 f   XMLURL.obj
 0001:00010c72       ??0XMLURL@xercesc_2_8@@QAE@ABV01@@Z 12011c72 f   XMLURL.obj
 0001:00010d77       ??1XMLURL@xercesc_2_8@@UAE@XZ 12011d77 f   XMLURL.obj
 0001:00010d82       ??4XMLURL@xercesc_2_8@@QAEAAV01@ABV01@@Z 12011d82 f   XMLURL.obj
 0001:00010e19       ??8XMLURL@xercesc_2_8@@QBE_NABV01@@Z 12011e19 f   XMLURL.obj
 0001:00010e3e       ?getPortNum@XMLURL@xercesc_2_8@@QBEIXZ 12011e3e f   XMLURL.obj
 0001:00010e5a       ?getProtocolName@XMLURL@xercesc_2_8@@QBEPB_WXZ 12011e5a f   XMLURL.obj
 0001:00010e98       ?setURL@XMLURL@xercesc_2_8@@QAEXQB_W@Z 12011e98 f   XMLURL.obj
 0001:00010eaf       ?setURL@XMLURL@xercesc_2_8@@QAEXQB_W0@Z 12011eaf f   XMLURL.obj
 0001:00010f7d       ?setURL@XMLURL@xercesc_2_8@@QAE_NQB_W0AAV12@@Z 12011f7d f   XMLURL.obj
 0001:00011050       ?setURL@XMLURL@xercesc_2_8@@QAEXABV12@QB_W@Z 12012050 f   XMLURL.obj
 0001:00011085       ?isRelative@XMLURL@xercesc_2_8@@QBE_NXZ 12012085 f   XMLURL.obj
 0001:0001109d       ?hasInvalidChar@XMLURL@xercesc_2_8@@QBE_NXZ 1201209d f   XMLURL.obj
 0001:000110a1       ?makeNewStream@XMLURL@xercesc_2_8@@QBEPAVBinInputStream@2@XZ 120120a1 f   XMLURL.obj
 0001:00011265       ?makeRelativeTo@XMLURL@xercesc_2_8@@QAEXQB_W@Z 12012265 f   XMLURL.obj
 0001:000112e5       ?makeRelativeTo@XMLURL@xercesc_2_8@@QAEXABV12@@Z 120122e5 f   XMLURL.obj
 0001:000112fc       ?buildFullText@XMLURL@xercesc_2_8@@AAEXXZ 120122fc f   XMLURL.obj
 0001:000114ca       ?cleanUp@XMLURL@xercesc_2_8@@AAEXXZ 120124ca f   XMLURL.obj
 0001:00011540       ?conglomerateWithBase@XMLURL@xercesc_2_8@@AAE_NABV12@_N@Z 12012540 f   XMLURL.obj
 0001:00011722       ?parse@XMLURL@xercesc_2_8@@AAEXQB_W@Z 12012722 f   XMLURL.obj
 0001:00011b6e       ?parse@XMLURL@xercesc_2_8@@SA_NQB_WAAV12@@Z 12012b6e f   XMLURL.obj
 0001:00011e92       ??_EXMLUTF16Transcoder@xercesc_2_8@@UAEPAXI@Z 12012e92 f i XMLUTF16Transcoder.obj
 0001:00011ee1       ??0XMLUTF16Transcoder@xercesc_2_8@@QAE@QB_WI_NQAVMemoryManager@1@@Z 12012ee1 f   XMLUTF16Transcoder.obj
 0001:00011f08       ??1XMLUTF16Transcoder@xercesc_2_8@@UAE@XZ 12012f08 f   XMLUTF16Transcoder.obj
 0001:00011f13       ?transcodeFrom@XMLUTF16Transcoder@xercesc_2_8@@UAEIQBEIQA_WIAAIQAE@Z 12012f13 f   XMLUTF16Transcoder.obj
 0001:00011f7a       ?transcodeTo@XMLUTF16Transcoder@xercesc_2_8@@UAEIQB_WIQAEIAAIW4UnRepOpts@XMLTranscoder@2@@Z 12012f7a f   XMLUTF16Transcoder.obj
 0001:00011fd1       ??_EXMLUTF8Transcoder@xercesc_2_8@@UAEPAXI@Z 12012fd1 f i XMLUTF8Transcoder.obj
 0001:00012020       ??0XMLUTF8Transcoder@xercesc_2_8@@QAE@QB_WIQAVMemoryManager@1@@Z 12013020 f   XMLUTF8Transcoder.obj
 0001:00012040       ??1XMLUTF8Transcoder@xercesc_2_8@@UAE@XZ 12013040 f   XMLUTF8Transcoder.obj
 0001:0001204b       ?transcodeFrom@XMLUTF8Transcoder@xercesc_2_8@@UAEIQBEIQA_WIAAIQAE@Z 1201304b f   XMLUTF8Transcoder.obj
 0001:0001249b       ?transcodeTo@XMLUTF8Transcoder@xercesc_2_8@@UAEIQB_WIQAEIAAIW4UnRepOpts@XMLTranscoder@2@@Z 1201349b f   XMLUTF8Transcoder.obj
 0001:00012663       ?canTranscodeTo@XMLUTF8Transcoder@xercesc_2_8@@UBE_NI@Z 12013663 f   XMLUTF8Transcoder.obj
 0001:00012672       ??0XMLWin1252Transcoder@xercesc_2_8@@QAE@QB_WIQAVMemoryManager@1@@Z 12013672 f   XMLWin1252Transcoder.obj
 0001:000126a1       ?getId@WinSockNetAccessor@xercesc_2_8@@UBEPB_WXZ 120136a1 f i Win32PlatformUtils.obj
 0001:000126a7       ?panic@XMLPlatformUtils@xercesc_2_8@@SAXW4PanicReasons@PanicHandler@2@@Z 120136a7 f   Win32PlatformUtils.obj
 0001:000126c1       ?curFilePos@XMLPlatformUtils@xercesc_2_8@@SAIPAXQAVMemoryManager@2@@Z 120136c1 f   Win32PlatformUtils.obj
 0001:00012702       ?closeFile@XMLPlatformUtils@xercesc_2_8@@SAXPAXQAVMemoryManager@2@@Z 12013702 f   Win32PlatformUtils.obj
 0001:0001273c       ?fileSize@XMLPlatformUtils@xercesc_2_8@@SAIPAXQAVMemoryManager@2@@Z 1201373c f   Win32PlatformUtils.obj
 0001:000127c0       ?openFile@XMLPlatformUtils@xercesc_2_8@@SAPAXQBDQAVMemoryManager@2@@Z 120137c0 f   Win32PlatformUtils.obj
 0001:000127e6       ?openFile@XMLPlatformUtils@xercesc_2_8@@SAPAXQB_WQAVMemoryManager@2@@Z 120137e6 f   Win32PlatformUtils.obj
 0001:0001291b       ?openFileToWrite@XMLPlatformUtils@xercesc_2_8@@SAPAXQBDQAVMemoryManager@2@@Z 1201391b f   Win32PlatformUtils.obj
 0001:00012940       ?openFileToWrite@XMLPlatformUtils@xercesc_2_8@@SAPAXQB_WQAVMemoryManager@2@@Z 12013940 f   Win32PlatformUtils.obj
 0001:00012a27       ?openStdInHandle@XMLPlatformUtils@xercesc_2_8@@SAPAXQAVMemoryManager@2@@Z 12013a27 f   Win32PlatformUtils.obj
 0001:00012ae1       ?readFileBuffer@XMLPlatformUtils@xercesc_2_8@@SAIPAXIQAEQAVMemoryManager@2@@Z 12013ae1 f   Win32PlatformUtils.obj
 0001:00012b39       ?writeBufferToFile@XMLPlatformUtils@xercesc_2_8@@SAXQAXJQBEQAVMemoryManager@2@@Z 12013b39 f   Win32PlatformUtils.obj
 0001:00012bb4       ?resetFile@XMLPlatformUtils@xercesc_2_8@@SAXPAXQAVMemoryManager@2@@Z 12013bb4 f   Win32PlatformUtils.obj
 0001:00012bf4       ?getFullPath@XMLPlatformUtils@xercesc_2_8@@SAPA_WQB_WQAVMemoryManager@2@@Z 12013bf4 f   Win32PlatformUtils.obj
 0001:00012cd8       ?isRelative@XMLPlatformUtils@xercesc_2_8@@SA_NQB_WQAVMemoryManager@2@@Z 12013cd8 f   Win32PlatformUtils.obj
 0001:00012d1e       ?getCurrentDirectory@XMLPlatformUtils@xercesc_2_8@@SAPA_WQAVMemoryManager@2@@Z 12013d1e f   Win32PlatformUtils.obj
 0001:00012d99       ?isAnySlash@XMLPlatformUtils@xercesc_2_8@@SA_N_W@Z 12013d99 f i Win32PlatformUtils.obj
 0001:00012dbd       ?getCurrentMillis@XMLPlatformUtils@xercesc_2_8@@SAKXZ 12013dbd f   Win32PlatformUtils.obj
 0001:00012dc3       ?closeMutex@XMLPlatformUtils@xercesc_2_8@@SAXQAX@Z 12013dc3 f   Win32PlatformUtils.obj
 0001:00012ddc       ?lockMutex@XMLPlatformUtils@xercesc_2_8@@SAXQAX@Z 12013ddc f   Win32PlatformUtils.obj
 0001:00012de7       ?makeMutex@XMLPlatformUtils@xercesc_2_8@@SAPAXPAVMemoryManager@2@@Z 12013de7 f   Win32PlatformUtils.obj
 0001:00012e17       ?unlockMutex@XMLPlatformUtils@xercesc_2_8@@SAXQAX@Z 12013e17 f   Win32PlatformUtils.obj
 0001:00012e22       ?compareAndSwap@XMLPlatformUtils@xercesc_2_8@@SAPAXPAPAXQBX1@Z 12013e22 f   Win32PlatformUtils.obj
 0001:00012e3f       ?atomicIncrement@XMLPlatformUtils@xercesc_2_8@@SAHAAH@Z 12013e3f f   Win32PlatformUtils.obj
 0001:00012e4a       ?atomicDecrement@XMLPlatformUtils@xercesc_2_8@@SAHAAH@Z 12013e4a f   Win32PlatformUtils.obj
 0001:00012e55       ?makeNetAccessor@XMLPlatformUtils@xercesc_2_8@@CAPAVXMLNetAccessor@2@XZ 12013e55 f   Win32PlatformUtils.obj
 0001:00012e72       ?loadAMsgSet@XMLPlatformUtils@xercesc_2_8@@CAPAVXMLMsgLoader@2@QB_W@Z 12013e72 f   Win32PlatformUtils.obj
 0001:00012ecd       ?makeTransService@XMLPlatformUtils@xercesc_2_8@@CAPAVXMLTransService@2@XZ 12013ecd f   Win32PlatformUtils.obj
 0001:00012f01       ?platformInit@XMLPlatformUtils@xercesc_2_8@@CAXXZ 12013f01 f   Win32PlatformUtils.obj
 0001:00012f46       ?weavePaths@XMLPlatformUtils@xercesc_2_8@@SAPA_WQB_W0QAVMemoryManager@2@@Z 12013f46 f   Win32PlatformUtils.obj
 0001:00012ff9       ?removeDotSlash@XMLPlatformUtils@xercesc_2_8@@SAXQA_WQAVMemoryManager@2@@Z 12013ff9 f   Win32PlatformUtils.obj
 0001:000130b9       ?removeDotDotSlash@XMLPlatformUtils@xercesc_2_8@@SAXQA_WQAVMemoryManager@2@@Z 120140b9 f   Win32PlatformUtils.obj
 0001:0001324a       ?searchSlashDotDotSlash@XMLPlatformUtils@xercesc_2_8@@CAHQA_W@Z 1201424a f   Win32PlatformUtils.obj
 0001:000132b7       ??0?$XMLHolder@U_RTL_CRITICAL_SECTION@@@xercesc_2_8@@QAE@XZ 120142b7 f i Win32PlatformUtils.obj
 0001:000132c7       ?castTo@?$XMLHolder@U_RTL_CRITICAL_SECTION@@@xercesc_2_8@@SAPAV12@PAX@Z 120142c7 f i Win32PlatformUtils.obj
 0001:000132cc       ?doCleanup@XMLRegisterCleanup@xercesc_2_8@@QAEXXZ 120142cc f   XMLRegisterCleanup.obj
 0001:000132df       ?registerCleanup@XMLRegisterCleanup@xercesc_2_8@@QAEXP6AXXZ@Z 120142df f   XMLRegisterCleanup.obj
 0001:00013327       ?unregisterCleanup@XMLRegisterCleanup@xercesc_2_8@@QAEXXZ 12014327 f   XMLRegisterCleanup.obj
 0001:00013375       ??0XMLRegisterCleanup@xercesc_2_8@@QAE@XZ 12014375 f   XMLRegisterCleanup.obj
 0001:00013382       ?resetCleanup@XMLRegisterCleanup@xercesc_2_8@@AAEXXZ 12014382 f   XMLRegisterCleanup.obj
 0001:0001338d       ??_EWin32MsgLoader@xercesc_2_8@@UAEPAXI@Z 1201438d f i Win32MsgLoader.obj
 0001:000133d6       _DllMain@12                120143d6 f   Win32MsgLoader.obj
 0001:000133ec       ??0Win32MsgLoader@xercesc_2_8@@QAE@QB_W@Z 120143ec f   Win32MsgLoader.obj
 0001:000134b2       ??1Win32MsgLoader@xercesc_2_8@@UAE@XZ 120144b2 f   Win32MsgLoader.obj
 0001:000134e7       ?loadMsg@Win32MsgLoader@xercesc_2_8@@UAE_NIQA_WI@Z 120144e7 f   Win32MsgLoader.obj
 0001:0001356d       ?loadMsg@Win32MsgLoader@xercesc_2_8@@UAE_NIQA_WIQB_W111QAVMemoryManager@2@@Z 1201456d f   Win32MsgLoader.obj
 0001:000135a5       ?loadMsg@Win32MsgLoader@xercesc_2_8@@UAE_NIQA_WIQBD111QAVMemoryManager@2@@Z 120145a5 f   Win32MsgLoader.obj
 0001:0001366f       ??_EWin32TransService@xercesc_2_8@@UAEPAXI@Z 1201466f f i Win32TransService.obj
 0001:000136b8       ??_EWin32Transcoder@xercesc_2_8@@UAEPAXI@Z 120146b8 f i Win32TransService.obj
 0001:00013707       ??_EXMLLCPTranscoder@xercesc_2_8@@UAEPAXI@Z 12014707 f i TransService.obj
 0001:00013707       ??_EWin32LCPTranscoder@xercesc_2_8@@UAEPAXI@Z 12014707 f i Win32TransService.obj
 0001:00013751       ??0CPMapEntry@xercesc_2_8@@QAE@QBDII@Z 12014751 f   Win32TransService.obj
 0001:000137c5       ??0Win32TransService@xercesc_2_8@@QAE@XZ 120147c5 f   Win32TransService.obj
 0001:00013ba8       ??1Win32TransService@xercesc_2_8@@UAE@XZ 12014ba8 f   Win32TransService.obj
 0001:00013bfe       ?compareIString@Win32TransService@xercesc_2_8@@UAEHQB_W0@Z 12014bfe f   Win32TransService.obj
 0001:00013c11       ?compareNIString@Win32TransService@xercesc_2_8@@UAEHQB_W0I@Z 12014c11 f   Win32TransService.obj
 0001:00013c29       ?getId@Win32TransService@xercesc_2_8@@UBEPB_WXZ 12014c29 f   Win32TransService.obj
 0001:00013c2f       ?isSpace@Win32TransService@xercesc_2_8@@UBE_N_W@Z 12014c2f f   Win32TransService.obj
 0001:00013c43       ?makeNewLCPTranscoder@Win32TransService@xercesc_2_8@@UAEPAVXMLLCPTranscoder@2@XZ 12014c43 f   Win32TransService.obj
 0001:00013c59       ?upperCase@Win32TransService@xercesc_2_8@@UBEXQA_W@Z 12014c59 f   Win32TransService.obj
 0001:00013c67       ?lowerCase@Win32TransService@xercesc_2_8@@UBEXQA_W@Z 12014c67 f   Win32TransService.obj
 0001:00013c75       ?isAlias@Win32TransService@xercesc_2_8@@CA_NQAUHKEY__@@QADI@Z 12014c75 f   Win32TransService.obj
 0001:00013ca1       ?makeNewXMLTranscoder@Win32TransService@xercesc_2_8@@MAEPAVXMLTranscoder@2@QB_WAAW4Codes@XMLTransService@2@IQAVMemoryManager@2@@Z 12014ca1 f   Win32TransService.obj
 0001:00013d54       ??0Win32Transcoder@xercesc_2_8@@QAE@QB_WIIIQAVMemoryManager@1@@Z 12014d54 f   Win32TransService.obj
 0001:00013d81       ??1Win32Transcoder@xercesc_2_8@@UAE@XZ 12014d81 f   Win32TransService.obj
 0001:00013d8c       ?transcodeFrom@Win32Transcoder@xercesc_2_8@@UAEIQBEIQA_WIAAIQAE@Z 12014d8c f   Win32TransService.obj
 0001:00013ee9       ?transcodeTo@Win32Transcoder@xercesc_2_8@@UAEIQB_WIQAEIAAIW4UnRepOpts@XMLTranscoder@2@@Z 12014ee9 f   Win32TransService.obj
 0001:00013ff2       ?canTranscodeTo@Win32Transcoder@xercesc_2_8@@UBE_NI@Z 12014ff2 f   Win32TransService.obj
 0001:00014072       ??0Win32LCPTranscoder@xercesc_2_8@@QAE@XZ 12015072 f   Win32TransService.obj
 0001:0001407b       ??1Win32LCPTranscoder@xercesc_2_8@@UAE@XZ 1201507b f   Win32TransService.obj
 0001:0001407b       ??1XMLLCPTranscoder@xercesc_2_8@@UAE@XZ 1201507b f   TransService.obj
 0001:00014082       ?calcRequiredSize@Win32LCPTranscoder@xercesc_2_8@@UAEIQBDQAVMemoryManager@2@@Z 12015082 f   Win32TransService.obj
 0001:0001409e       ?calcRequiredSize@Win32LCPTranscoder@xercesc_2_8@@UAEIQB_WQAVMemoryManager@2@@Z 1201509e f   Win32TransService.obj
 0001:000140bb       ?transcode@Win32LCPTranscoder@xercesc_2_8@@UAEPADQB_W@Z 120150bb f   Win32TransService.obj
 0001:00014118       ?transcode@Win32LCPTranscoder@xercesc_2_8@@UAEPADQB_WQAVMemoryManager@2@@Z 12015118 f   Win32TransService.obj
 0001:00014179       ?transcode@Win32LCPTranscoder@xercesc_2_8@@UAEPA_WQBD@Z 12015179 f   Win32TransService.obj
 0001:000141f6       ?transcode@Win32LCPTranscoder@xercesc_2_8@@UAEPA_WQBDQAVMemoryManager@2@@Z 120151f6 f   Win32TransService.obj
 0001:00014266       ?transcode@Win32LCPTranscoder@xercesc_2_8@@UAE_NQBDQA_WIQAVMemoryManager@2@@Z 12015266 f   Win32TransService.obj
 0001:000142a1       ?transcode@Win32LCPTranscoder@xercesc_2_8@@UAE_NQB_WQADIQAVMemoryManager@2@@Z 120152a1 f   Win32TransService.obj
 0001:000142ec       ??0?$RefHashTableOf@VCPMapEntry@xercesc_2_8@@@xercesc_2_8@@QAE@IQAVMemoryManager@1@@Z 120152ec f i Win32TransService.obj
 0001:0001434e       ?put@?$RefHashTableOf@VCPMapEntry@xercesc_2_8@@@xercesc_2_8@@QAEXPAXQAVCPMapEntry@2@@Z 1201534e f i Win32TransService.obj
 0001:000143d9       ?rehash@?$RefHashTableOf@VCPMapEntry@xercesc_2_8@@@xercesc_2_8@@AAEXXZ 120153d9 f i Win32TransService.obj
 0001:00014482       ?removeAll@?$RefHashTableOf@VCPMapEntry@xercesc_2_8@@@xercesc_2_8@@QAEXXZ 12015482 f i Win32TransService.obj
 0001:000144ec       ??_EBinHTTPURLInputStream@xercesc_2_8@@UAEPAXI@Z 120154ec f i BinHTTPURLInputStream.obj
 0001:00014538       ??1SocketJanitor@xercesc_2_8@@QAE@XZ 12015538 f i BinHTTPURLInputStream.obj
 0001:0001454a       ?Initialize@BinHTTPURLInputStream@xercesc_2_8@@CAXQAVMemoryManager@2@@Z 1201554a f   BinHTTPURLInputStream.obj
 0001:00014760       ?Cleanup@BinHTTPURLInputStream@xercesc_2_8@@SAXXZ 12015760 f   BinHTTPURLInputStream.obj
 0001:000147f6       ?gethostbyname@BinHTTPURLInputStream@xercesc_2_8@@CAPAUhostent@@PBD@Z 120157f6 f i BinHTTPURLInputStream.obj
 0001:00014801       ?inet_addr@BinHTTPURLInputStream@xercesc_2_8@@CAKPBD@Z 12015801 f i BinHTTPURLInputStream.obj
 0001:0001480c       ?gethostbyaddr@BinHTTPURLInputStream@xercesc_2_8@@CAPAUhostent@@PBDHH@Z 1201580c f i BinHTTPURLInputStream.obj
 0001:0001481f       ?htons@BinHTTPURLInputStream@xercesc_2_8@@CAGG@Z 1201581f f i BinHTTPURLInputStream.obj
 0001:0001482a       ?socket@BinHTTPURLInputStream@xercesc_2_8@@CAIHHH@Z 1201582a f i BinHTTPURLInputStream.obj
 0001:0001483d       ?connect@BinHTTPURLInputStream@xercesc_2_8@@CAHIPBUsockaddr@@H@Z 1201583d f i BinHTTPURLInputStream.obj
 0001:00014850       ?send@BinHTTPURLInputStream@xercesc_2_8@@CAHIPBDHH@Z 12015850 f i BinHTTPURLInputStream.obj
 0001:00014867       ?recv@BinHTTPURLInputStream@xercesc_2_8@@CAHIPADHH@Z 12015867 f i BinHTTPURLInputStream.obj
 0001:0001487e       ?shutdown@BinHTTPURLInputStream@xercesc_2_8@@CAHIH@Z 1201587e f i BinHTTPURLInputStream.obj
 0001:0001488d       ?closesocket@BinHTTPURLInputStream@xercesc_2_8@@CAHI@Z 1201588d f i BinHTTPURLInputStream.obj
 0001:00014898       ??0BinHTTPURLInputStream@xercesc_2_8@@QAE@ABVXMLURL@1@PBVXMLNetHTTPInfo@1@@Z 12015898 f   BinHTTPURLInputStream.obj
 0001:00014fb8       ??1BinHTTPURLInputStream@xercesc_2_8@@UAE@XZ 12015fb8 f   BinHTTPURLInputStream.obj
 0001:00014ff3       ?readBytes@BinHTTPURLInputStream@xercesc_2_8@@UAEIQAEI@Z 12015ff3 f   BinHTTPURLInputStream.obj
 0001:00015072       ??_EWinSockNetAccessor@xercesc_2_8@@UAEPAXI@Z 12016072 f i WinSockNetAccessor.obj
 0001:000150bb       ??0WinSockNetAccessor@xercesc_2_8@@QAE@XZ 120160bb f   WinSockNetAccessor.obj
 0001:000150c4       ??1WinSockNetAccessor@xercesc_2_8@@UAE@XZ 120160c4 f   WinSockNetAccessor.obj
 0001:000150f0       ?makeNew@WinSockNetAccessor@xercesc_2_8@@UAEPAVBinInputStream@2@ABVXMLURL@2@PBVXMLNetHTTPInfo@2@@Z 120160f0 f   WinSockNetAccessor.obj
 0001:00015187       ?getChild@Token@xercesc_2_8@@UBEPAV12@H@Z 12016187 f i ASCIIRangeFactory.obj
 0001:0001518c       ?getMin@Token@xercesc_2_8@@UBEHXZ 1201618c f i ASCIIRangeFactory.obj
 0001:0001518c       ?getMax@Token@xercesc_2_8@@UBEHXZ 1201618c f i ASCIIRangeFactory.obj
 0001:0001518c       ?getChar@Token@xercesc_2_8@@UBEHXZ 1201618c f i ASCIIRangeFactory.obj
 0001:00015190       ?setTokenType@Token@xercesc_2_8@@QAEXG@Z 12016190 f i ASCIIRangeFactory.obj
 0001:0001519c       ?isSet@Token@xercesc_2_8@@AAE_NHI@Z 1201619c f i ASCIIRangeFactory.obj
 0001:000151b0       ?addChild@Token@xercesc_2_8@@UAEXQAV12@QAVTokenFactory@2@@Z 120161b0 f i ASCIIRangeFactory.obj
 0001:000151df       ?addRange@Token@xercesc_2_8@@UAEXHH@Z 120161df f i ASCIIRangeFactory.obj
 0001:0001520e       ?mergeRanges@Token@xercesc_2_8@@UAEXQBV12@@Z 1201620e f i ASCIIRangeFactory.obj
 0001:0001523d       ?sortRanges@Token@xercesc_2_8@@UAEXXZ 1201623d f i ASCIIRangeFactory.obj
 0001:0001526c       ?compactRanges@Token@xercesc_2_8@@UAEXXZ 1201626c f i ASCIIRangeFactory.obj
 0001:0001529b       ?subtractRanges@Token@xercesc_2_8@@UAEXQAVRangeToken@2@@Z 1201629b f i ASCIIRangeFactory.obj
 0001:000152ca       ?intersectRanges@Token@xercesc_2_8@@UAEXQAVRangeToken@2@@Z 120162ca f i ASCIIRangeFactory.obj
 0001:000152f9       ??_FTokenFactory@xercesc_2_8@@QAEXXZ 120162f9 f i ASCIIRangeFactory.obj
 0001:00015305       ?getRange@TokenFactory@xercesc_2_8@@QAEPAVRangeToken@2@QB_W_N@Z 12016305 f i ASCIIRangeFactory.obj
 0001:00015319       ?createMap@RangeToken@xercesc_2_8@@QAEXXZ 12016319 f i ASCIIRangeFactory.obj
 0001:00015325       ?getRangeToken@RangeTokenElemMap@xercesc_2_8@@QBEPAVRangeToken@2@_N@Z 12016325 f i ASCIIRangeFactory.obj
 0001:00015337       ?setRangeToken@RangeTokenElemMap@xercesc_2_8@@QAEXQAVRangeToken@2@_N@Z 12016337 f i ASCIIRangeFactory.obj
 0001:0001534d       ??0ASCIIRangeFactory@xercesc_2_8@@QAE@XZ 1201634d f   ASCIIRangeFactory.obj
 0001:0001535e       ?buildRanges@ASCIIRangeFactory@xercesc_2_8@@MAEXPAVRangeTokenMap@2@@Z 1201635e f   ASCIIRangeFactory.obj
 0001:000155d3       ?initializeKeywordMap@ASCIIRangeFactory@xercesc_2_8@@UAEXPAVRangeTokenMap@2@@Z 120165d3 f   ASCIIRangeFactory.obj
 0001:0001563b       ??0BlockRangeFactory@xercesc_2_8@@QAE@XZ 1201663b f   BlockRangeFactory.obj
 0001:0001564c       ?buildRanges@BlockRangeFactory@xercesc_2_8@@MAEXPAVRangeTokenMap@2@@Z 1201664c f   BlockRangeFactory.obj
 0001:0001578f       ?initializeKeywordMap@BlockRangeFactory@xercesc_2_8@@UAEXPAVRangeTokenMap@2@@Z 1201678f f   BlockRangeFactory.obj
 0001:000157c9       ??0BMPattern@xercesc_2_8@@QAE@QB_W_NQAVMemoryManager@1@@Z 120167c9 f   BMPattern.obj
 0001:00015834       ??0BMPattern@xercesc_2_8@@QAE@QB_WH_NQAVMemoryManager@1@@Z 12016834 f   BMPattern.obj
 0001:0001589e       ??1BMPattern@xercesc_2_8@@QAE@XZ 1201689e f   BMPattern.obj
 0001:000158a3       ?matches@BMPattern@xercesc_2_8@@QAEHQB_WHH@Z 120168a3 f   BMPattern.obj
 0001:0001598c       ?initialize@BMPattern@xercesc_2_8@@AAEXXZ 1201698c f   BMPattern.obj
 0001:00015a74       ?cleanUp@BMPattern@xercesc_2_8@@AAEXXZ 12016a74 f   BMPattern.obj
 0001:00015a9a       ??_ECharToken@xercesc_2_8@@UAEPAXI@Z 12016a9a f i CharToken.obj
 0001:00015ae4       ?match@CharToken@xercesc_2_8@@QAE_NH@Z 12016ae4 f i CharToken.obj
 0001:00015af3       ??0CharToken@xercesc_2_8@@QAE@GHQAVMemoryManager@1@@Z 12016af3 f   CharToken.obj
 0001:00015b14       ??_EClosureToken@xercesc_2_8@@UAEPAXI@Z 12016b14 f i ClosureToken.obj
 0001:00015b14       ??_EModifierToken@xercesc_2_8@@UAEPAXI@Z 12016b14 f i ModifierToken.obj
 0001:00015b5e       ?getChild@ModifierToken@xercesc_2_8@@UBEPAVToken@2@H@Z 12016b5e f i ModifierToken.obj
 0001:00015b5e       ?getChild@ClosureToken@xercesc_2_8@@UBEPAVToken@2@H@Z 12016b5e f i ClosureToken.obj
 0001:00015b64       ??0ClosureToken@xercesc_2_8@@QAE@GQAVToken@1@QAVMemoryManager@1@@Z 12016b64 f   ClosureToken.obj
 0001:00015b8d       ?getChild@ConcatToken@xercesc_2_8@@UBEPAVToken@2@H@Z 12016b8d f i ConcatToken.obj
 0001:00015b9f       ??0ConcatToken@xercesc_2_8@@QAE@QAVToken@1@0QAVMemoryManager@1@@Z 12016b9f f   ConcatToken.obj
 0001:00015bc5       ??_EConditionToken@xercesc_2_8@@UAEPAXI@Z 12016bc5 f i ConditionToken.obj
 0001:00015c0f       ?size@ConditionToken@xercesc_2_8@@UBEHXZ 12016c0f f i ConditionToken.obj
 0001:00015c19       ?getChild@ConditionToken@xercesc_2_8@@UBEPAVToken@2@H@Z 12016c19 f i ConditionToken.obj
 0001:00015c5d       ??0ConditionToken@xercesc_2_8@@QAE@IQAVToken@1@00QAVMemoryManager@1@@Z 12016c5d f   ConditionToken.obj
 0001:00015c90       ??_FMatch@xercesc_2_8@@QAEXXZ 12016c90 f i Match.obj
 0001:00015c9c       ??_EMatch@xercesc_2_8@@UAEPAXI@Z 12016c9c f i Match.obj
 0001:00015ceb       ?getNoGroups@Match@xercesc_2_8@@QBEHXZ 12016ceb f i Match.obj
 0001:00015d1f       ?getStartPos@Match@xercesc_2_8@@QBEHH@Z 12016d1f f i Match.obj
 0001:00015d7f       ?getEndPos@Match@xercesc_2_8@@QBEHH@Z 12016d7f f i Match.obj
 0001:00015de5       ?setStartPos@Match@xercesc_2_8@@QAEXHH@Z 12016de5 f i Match.obj
 0001:00015e4e       ?setEndPos@Match@xercesc_2_8@@QAEXHH@Z 12016e4e f i Match.obj
 0001:00015eb7       ??0Match@xercesc_2_8@@QAE@QAVMemoryManager@1@@Z 12016eb7 f   Match.obj
 0001:00015ed7       ??0Match@xercesc_2_8@@QAE@ABV01@@Z 12016ed7 f   Match.obj
 0001:00015f00       ??4Match@xercesc_2_8@@QAEAAV01@ABV01@@Z 12016f00 f   Match.obj
 0001:00015f12       ??1Match@xercesc_2_8@@UAE@XZ 12016f12 f   Match.obj
 0001:00015f1d       ?setNoGroups@Match@xercesc_2_8@@QAEXH@Z 12016f1d f   Match.obj
 0001:00015f7a       ?initialize@Match@xercesc_2_8@@AAEXABV12@@Z 12016f7a f   Match.obj
 0001:00015fdc       ?cleanUp@Match@xercesc_2_8@@AAEXXZ 12016fdc f   Match.obj
 0001:00015fff       ??0ModifierToken@xercesc_2_8@@QAE@QAVToken@1@HHQAVMemoryManager@1@@Z 12016fff f   ModifierToken.obj
 0001:0001602c       ??1Token@xercesc_2_8@@UAE@XZ 1201702c f   Token.obj
 0001:0001602c       ??1ModifierToken@xercesc_2_8@@UAE@XZ 1201702c f   ModifierToken.obj
 0001:0001602c       ??1CharToken@xercesc_2_8@@UAE@XZ 1201702c f   CharToken.obj
 0001:0001602c       ??1ConcatToken@xercesc_2_8@@UAE@XZ 1201702c f   ConcatToken.obj
 0001:0001602c       ??1ParenToken@xercesc_2_8@@UAE@XZ 1201702c f   ParenToken.obj
 0001:0001602c       ??1ConditionToken@xercesc_2_8@@UAE@XZ 1201702c f   ConditionToken.obj
 0001:0001602c       ??1ClosureToken@xercesc_2_8@@UAE@XZ 1201702c f   ClosureToken.obj
 0001:00016033       ??_EOp@xercesc_2_8@@UAEPAXI@Z 12017033 f i Op.obj
 0001:0001607d       ??_EChildOp@xercesc_2_8@@UAEPAXI@Z 1201707d f i Op.obj
 0001:0001607d       ??_ECharOp@xercesc_2_8@@UAEPAXI@Z 1201707d f i Op.obj
 0001:0001607d       ??_ERangeOp@xercesc_2_8@@UAEPAXI@Z 1201707d f i Op.obj
 0001:000160c7       ??1UnionOp@xercesc_2_8@@UAE@XZ 120170c7 f i Op.obj
 0001:000160fb       ??_EUnionOp@xercesc_2_8@@UAEPAXI@Z 120170fb f i Op.obj
 0001:00016144       ??_EModifierOp@xercesc_2_8@@UAEPAXI@Z 12017144 f i Op.obj
 0001:0001618e       ??1StringOp@xercesc_2_8@@UAE@XZ 1201718e f i Op.obj
 0001:000161c0       ??_EStringOp@xercesc_2_8@@UAEPAXI@Z 120171c0 f i Op.obj
 0001:00016209       ??1ConditionOp@xercesc_2_8@@UAE@XZ 12017209 f i Op.obj
 0001:00016209       ??1ModifierOp@xercesc_2_8@@UAE@XZ 12017209 f i Op.obj
 0001:00016209       ??1RangeOp@xercesc_2_8@@UAE@XZ 12017209 f i Op.obj
 0001:00016209       ??1Op@xercesc_2_8@@UAE@XZ  12017209 f i Op.obj
 0001:00016209       ??1ChildOp@xercesc_2_8@@UAE@XZ 12017209 f i Op.obj
 0001:00016209       ??1CharOp@xercesc_2_8@@UAE@XZ 12017209 f i Op.obj
 0001:00016210       ??_EConditionOp@xercesc_2_8@@UAEPAXI@Z 12017210 f i Op.obj
 0001:0001625a       ?setOpType@Op@xercesc_2_8@@QAEXF@Z 1201725a f i Op.obj
 0001:0001625a       ?setWhiteSpace@DatatypeValidator@xercesc_2_8@@IAEXF@Z 1201725a f i XMLAttr.obj
 0001:00016266       ??0Op@xercesc_2_8@@IAE@FQAVMemoryManager@1@@Z 12017266 f   Op.obj
 0001:00016285       ?getSize@Op@xercesc_2_8@@UBEHXZ 12017285 f   Op.obj
 0001:000162b1       ?getData@Op@xercesc_2_8@@UBEHXZ 120172b1 f   Op.obj
 0001:000162dd       ?getData2@Op@xercesc_2_8@@UBEHXZ 120172dd f   Op.obj
 0001:00016309       ?getRefNo@Op@xercesc_2_8@@UBEHXZ 12017309 f   Op.obj
 0001:00016335       ?elementAt@Op@xercesc_2_8@@UBEPBV12@H@Z 12017335 f   Op.obj
 0001:00016361       ?getChild@Op@xercesc_2_8@@UBEPBV12@XZ 12017361 f   Op.obj
 0001:0001638d       ?getConditionFlow@Op@xercesc_2_8@@UBEPBV12@XZ 1201738d f   Op.obj
 0001:000163b9       ?getYesFlow@Op@xercesc_2_8@@UBEPBV12@XZ 120173b9 f   Op.obj
 0001:000163e5       ?getNoFlow@Op@xercesc_2_8@@UBEPBV12@XZ 120173e5 f   Op.obj
 0001:00016411       ?getLiteral@Op@xercesc_2_8@@UBEPB_WXZ 12017411 f   Op.obj
 0001:0001643d       ?getToken@Op@xercesc_2_8@@UBEPBVToken@2@XZ 1201743d f   Op.obj
 0001:00016469       ??0CharOp@xercesc_2_8@@QAE@FHQAVMemoryManager@1@@Z 12017469 f   Op.obj
 0001:0001648a       ??0UnionOp@xercesc_2_8@@QAE@FHQAVMemoryManager@1@@Z 1201748a f   Op.obj
 0001:000164e7       ?getSize@UnionOp@xercesc_2_8@@UBEHXZ 120174e7 f   Op.obj
 0001:000164ee       ?elementAt@UnionOp@xercesc_2_8@@UBEPBVOp@2@H@Z 120174ee f   Op.obj
 0001:0001652e       ?addElement@UnionOp@xercesc_2_8@@QAEXQAVOp@2@@Z 1201752e f   Op.obj
 0001:00016536       ??0ChildOp@xercesc_2_8@@QAE@FQAVMemoryManager@1@@Z 12017536 f   Op.obj
 0001:00016554       ??0ModifierOp@xercesc_2_8@@QAE@FHHQAVMemoryManager@1@@Z 12017554 f   Op.obj
 0001:0001657e       ??0RangeOp@xercesc_2_8@@QAE@FQBVToken@1@QAVMemoryManager@1@@Z 1201757e f   Op.obj
 0001:0001659f       ??0StringOp@xercesc_2_8@@QAE@FQB_WQAVMemoryManager@1@@Z 1201759f f   Op.obj
 0001:000165df       ??0ConditionOp@xercesc_2_8@@QAE@FHQBVOp@1@00QAVMemoryManager@1@@Z 120175df f   Op.obj
 0001:00016613       ??0?$RefVectorOf@VOp@xercesc_2_8@@@xercesc_2_8@@QAE@I_NQAVMemoryManager@1@@Z 12017613 f i Op.obj
 0001:00016653       ??1?$BaseRefVectorOf@VOp@xercesc_2_8@@@xercesc_2_8@@UAE@XZ 12017653 f i Op.obj
 0001:0001665a       ??_E?$RefVectorOf@VOp@xercesc_2_8@@@xercesc_2_8@@UAEPAXI@Z 1201765a f i  CIL library: CIL module
 0001:0001665a       ??_G?$RefVectorOf@VOp@xercesc_2_8@@@xercesc_2_8@@UAEPAXI@Z 1201765a f i Op.obj
 0001:000166c4       ??_E?$BaseRefVectorOf@VOp@xercesc_2_8@@@xercesc_2_8@@UAEPAXI@Z 120176c4 f i  CIL library: CIL module
 0001:000166c4       ??_G?$BaseRefVectorOf@VOp@xercesc_2_8@@@xercesc_2_8@@UAEPAXI@Z 120176c4 f i Op.obj
 0001:000166e1       ??_FOpFactory@xercesc_2_8@@QAEXXZ 120176e1 f i OpFactory.obj
 0001:000166ed       ?reset@OpFactory@xercesc_2_8@@QAEXXZ 120176ed f i OpFactory.obj
 0001:000166f4       ??0OpFactory@xercesc_2_8@@QAE@QAVMemoryManager@1@@Z 120176f4 f   OpFactory.obj
 0001:00016742       ??1TokenFactory@xercesc_2_8@@QAE@XZ 12017742 f   TokenFactory.obj
 0001:00016742       ??1OpFactory@xercesc_2_8@@QAE@XZ 12017742 f   OpFactory.obj
 0001:00016756       ?createDotOp@OpFactory@xercesc_2_8@@QAEPAVOp@2@XZ 12017756 f   OpFactory.obj
 0001:00016786       ?createCharOp@OpFactory@xercesc_2_8@@QAEPAVCharOp@2@H@Z 12017786 f   OpFactory.obj
 0001:000167bf       ?createAnchorOp@OpFactory@xercesc_2_8@@QAEPAVCharOp@2@H@Z 120177bf f   OpFactory.obj
 0001:000167f8       ?createCaptureOp@OpFactory@xercesc_2_8@@QAEPAVCharOp@2@HQBVOp@2@@Z 120177f8 f   OpFactory.obj
 0001:00016838       ?createUnionOp@OpFactory@xercesc_2_8@@QAEPAVUnionOp@2@H@Z 12017838 f   OpFactory.obj
 0001:00016888       ?createClosureOp@OpFactory@xercesc_2_8@@QAEPAVChildOp@2@H@Z 12017888 f   OpFactory.obj
 0001:000168c3       ?createNonGreedyClosureOp@OpFactory@xercesc_2_8@@QAEPAVChildOp@2@XZ 120178c3 f   OpFactory.obj
 0001:000168f6       ?createQuestionOp@OpFactory@xercesc_2_8@@QAEPAVChildOp@2@_N@Z 120178f6 f   OpFactory.obj
 0001:00016936       ?createRangeOp@OpFactory@xercesc_2_8@@QAEPAVRangeOp@2@QBVToken@2@@Z 12017936 f   OpFactory.obj
 0001:0001696f       ?createLookOp@OpFactory@xercesc_2_8@@QAEPAVChildOp@2@FQBVOp@2@0@Z 1201796f f   OpFactory.obj
 0001:000169b4       ?createBackReferenceOp@OpFactory@xercesc_2_8@@QAEPAVCharOp@2@H@Z 120179b4 f   OpFactory.obj
 0001:000169ed       ?createStringOp@OpFactory@xercesc_2_8@@QAEPAVStringOp@2@QB_W@Z 120179ed f   OpFactory.obj
 0001:00016a3d       ?createIndependentOp@OpFactory@xercesc_2_8@@QAEPAVChildOp@2@QBVOp@2@0@Z 12017a3d f   OpFactory.obj
 0001:00016a80       ?createModifierOp@OpFactory@xercesc_2_8@@QAEPAVModifierOp@2@QBVOp@2@0HH@Z 12017a80 f   OpFactory.obj
 0001:00016abd       ?createConditionOp@OpFactory@xercesc_2_8@@QAEPAVConditionOp@2@QBVOp@2@H000@Z 12017abd f   OpFactory.obj
 0001:00016afa       ??_EConcatToken@xercesc_2_8@@UAEPAXI@Z 12017afa f i ConcatToken.obj
 0001:00016afa       ??_EParenToken@xercesc_2_8@@UAEPAXI@Z 12017afa f i ParenToken.obj
 0001:00016b44       ?getChild@ParenToken@xercesc_2_8@@UBEPAVToken@2@H@Z 12017b44 f i ParenToken.obj
 0001:00016b4a       ??0ParenToken@xercesc_2_8@@QAE@GQAVToken@1@HQAVMemoryManager@1@@Z 12017b4a f   ParenToken.obj
 0001:00016b72       ??_FRegxParser@xercesc_2_8@@QAEXXZ 12017b72 f i ParserForXMLSchema.obj
 0001:00016b7e       ?getState@RegxParser@xercesc_2_8@@QBEGXZ 12017b7e f i ParserForXMLSchema.obj
 0001:00016b83       ?setParseContext@RegxParser@xercesc_2_8@@QAEXG@Z 12017b83 f i ParserForXMLSchema.obj
 0001:00016b8f       ?isSet@RegxParser@xercesc_2_8@@AAE_NH@Z 12017b8f f i ParserForXMLSchema.obj
 0001:00016ba2       ?hexChar@RegxParser@xercesc_2_8@@AAEHH@Z 12017ba2 f i ParserForXMLSchema.obj
 0001:00016bd7       ??_FParserForXMLSchema@xercesc_2_8@@QAEXXZ 12017bd7 f i ParserForXMLSchema.obj
 0001:00016be3       ??_EParserForXMLSchema@xercesc_2_8@@UAEPAXI@Z 12017be3 f i ParserForXMLSchema.obj
 0001:00016c32       ?setString@StringToken@xercesc_2_8@@QAEXQB_W@Z 12017c32 f i ParserForXMLSchema.obj
 0001:00016c59       ?size@UnionToken@xercesc_2_8@@UBEHXZ 12017c59 f i ParserForXMLSchema.obj
 0001:00016c65       ?getChild@UnionToken@xercesc_2_8@@UBEPAVToken@2@H@Z 12017c65 f i ParserForXMLSchema.obj
 0001:00016c81       ??0ParseException@xercesc_2_8@@QAE@QBDIW4Codes@XMLExcepts@1@PAVMemoryManager@1@@Z 12017c81 f i ParserForXMLSchema.obj
 0001:00016cbe       ??0ParseException@xercesc_2_8@@QAE@ABV01@@Z 12017cbe f i ParserForXMLSchema.obj
 0001:00016cd6       ??0ParseException@xercesc_2_8@@QAE@QBDIW4Codes@XMLExcepts@1@QB_W222PAVMemoryManager@1@@Z 12017cd6 f i ParserForXMLSchema.obj
 0001:00016d1f       ??0ParseException@xercesc_2_8@@QAE@QBDIW4Codes@XMLExcepts@1@0000PAVMemoryManager@1@@Z 12017d1f f i ParserForXMLSchema.obj
 0001:00016d68       ??1ParseException@xercesc_2_8@@UAE@XZ 12017d68 f i ParserForXMLSchema.obj
 0001:00016d73       ?duplicate@ParseException@xercesc_2_8@@UBEPAVXMLException@2@XZ 12017d73 f i ParserForXMLSchema.obj
 0001:00016daa       ?getType@ParseException@xercesc_2_8@@UBEPB_WXZ 12017daa f i ParserForXMLSchema.obj
 0001:00016db0       ??_EParseException@xercesc_2_8@@UAEPAXI@Z 12017db0 f i ParserForXMLSchema.obj
 0001:00016dff       ??0ParserForXMLSchema@xercesc_2_8@@QAE@QAVMemoryManager@1@@Z 12017dff f   ParserForXMLSchema.obj
 0001:00016e15       ??1ParserForXMLSchema@xercesc_2_8@@UAE@XZ 12017e15 f   ParserForXMLSchema.obj
 0001:00016e20       ?processCaret@ParserForXMLSchema@xercesc_2_8@@MAEPAVToken@2@XZ 12017e20 f   ParserForXMLSchema.obj
 0001:00016e36       ?processDollar@ParserForXMLSchema@xercesc_2_8@@MAEPAVToken@2@XZ 12017e36 f   ParserForXMLSchema.obj
 0001:00016e4c       ?processPlus@ParserForXMLSchema@xercesc_2_8@@MAEPAVToken@2@QAV32@@Z 12017e4c f   ParserForXMLSchema.obj
 0001:00016e74       ?processStar@ParserForXMLSchema@xercesc_2_8@@MAEPAVToken@2@QAV32@@Z 12017e74 f   ParserForXMLSchema.obj
 0001:00016e8e       ?processQuestion@ParserForXMLSchema@xercesc_2_8@@MAEPAVToken@2@QAV32@@Z 12017e8e f   ParserForXMLSchema.obj
 0001:00016efc       ?processParen@ParserForXMLSchema@xercesc_2_8@@MAEPAVToken@2@XZ 12017efc f   ParserForXMLSchema.obj
 0001:00016f60       ?parseCharacterClass@ParserForXMLSchema@xercesc_2_8@@MAEPAVRangeToken@2@_N@Z 12017f60 f   ParserForXMLSchema.obj
 0001:0001741b       ?processCInCharacterClass@ParserForXMLSchema@xercesc_2_8@@MAEHQAVRangeToken@2@H@Z 1201841b f   ParserForXMLSchema.obj
 0001:0001743a       ?processLook@ParserForXMLSchema@xercesc_2_8@@MAEPAVToken@2@G@Z 1201843a f   ParserForXMLSchema.obj
 0001:00017469       ?processBacksolidus_A@ParserForXMLSchema@xercesc_2_8@@MAEPAVToken@2@XZ 12018469 f   ParserForXMLSchema.obj
 0001:00017498       ?processBacksolidus_B@ParserForXMLSchema@xercesc_2_8@@MAEPAVToken@2@XZ 12018498 f   ParserForXMLSchema.obj
 0001:000174c7       ?processBacksolidus_b@ParserForXMLSchema@xercesc_2_8@@MAEPAVToken@2@XZ 120184c7 f   ParserForXMLSchema.obj
 0001:000174f6       ?processBacksolidus_C@ParserForXMLSchema@xercesc_2_8@@MAEPAVToken@2@XZ 120184f6 f   ParserForXMLSchema.obj
 0001:00017509       ?processBacksolidus_c@ParserForXMLSchema@xercesc_2_8@@MAEPAVToken@2@XZ 12018509 f   ParserForXMLSchema.obj
 0001:0001751c       ?processBacksolidus_g@ParserForXMLSchema@xercesc_2_8@@MAEPAVToken@2@XZ 1201851c f   ParserForXMLSchema.obj
 0001:0001754b       ?processBacksolidus_gt@ParserForXMLSchema@xercesc_2_8@@MAEPAVToken@2@XZ 1201854b f   ParserForXMLSchema.obj
 0001:0001757a       ?processBacksolidus_I@ParserForXMLSchema@xercesc_2_8@@MAEPAVToken@2@XZ 1201857a f   ParserForXMLSchema.obj
 0001:0001758d       ?processBacksolidus_i@ParserForXMLSchema@xercesc_2_8@@MAEPAVToken@2@XZ 1201858d f   ParserForXMLSchema.obj
 0001:000175a0       ?processBacksolidus_lt@ParserForXMLSchema@xercesc_2_8@@MAEPAVToken@2@XZ 120185a0 f   ParserForXMLSchema.obj
 0001:000175cf       ?processBacksolidus_X@ParserForXMLSchema@xercesc_2_8@@MAEPAVToken@2@XZ 120185cf f   ParserForXMLSchema.obj
 0001:000175fe       ?processBacksolidus_Z@ParserForXMLSchema@xercesc_2_8@@MAEPAVToken@2@XZ 120185fe f   ParserForXMLSchema.obj
 0001:0001762d       ?processBacksolidus_z@ParserForXMLSchema@xercesc_2_8@@MAEPAVToken@2@XZ 1201862d f   ParserForXMLSchema.obj
 0001:0001765c       ?processBackReference@ParserForXMLSchema@xercesc_2_8@@MAEPAVToken@2@XZ 1201865c f   ParserForXMLSchema.obj
 0001:0001768b       ?processCondition@ParserForXMLSchema@xercesc_2_8@@MAEPAVToken@2@XZ 1201868b f   ParserForXMLSchema.obj
 0001:000176ba       ?processIndependent@ParserForXMLSchema@xercesc_2_8@@MAEPAVToken@2@XZ 120186ba f   ParserForXMLSchema.obj
 0001:000176e9       ?processModifiers@ParserForXMLSchema@xercesc_2_8@@MAEPAVToken@2@XZ 120186e9 f   ParserForXMLSchema.obj
 0001:00017718       ?processParen2@ParserForXMLSchema@xercesc_2_8@@MAEPAVToken@2@XZ 12018718 f   ParserForXMLSchema.obj
 0001:00017747       ?parseSetOperations@ParserForXMLSchema@xercesc_2_8@@MAEPAVRangeToken@2@XZ 12018747 f   ParserForXMLSchema.obj
 0001:00017776       ?getTokenForShorthand@ParserForXMLSchema@xercesc_2_8@@MAEPAVToken@2@H@Z 12018776 f   ParserForXMLSchema.obj
 0001:000177f9       ?checkQuestion@ParserForXMLSchema@xercesc_2_8@@MAE_NH@Z 120187f9 f   ParserForXMLSchema.obj
 0001:000177f9       ?removeAdvDocHandler@SAX2XMLFilterImpl@xercesc_2_8@@UAE_NQAVXMLDocumentHandler@2@@Z 120187f9 f   SAX2XMLFilterImpl.obj
 0001:000177fe       ?decodeEscaped@ParserForXMLSchema@xercesc_2_8@@MAEHXZ 120187fe f   ParserForXMLSchema.obj
 0001:000178c8       ??0RangeFactory@xercesc_2_8@@IAE@XZ 120188c8 f   RangeFactory.obj
 0001:000178d9       ??_ERangeToken@xercesc_2_8@@UAEPAXI@Z 120188d9 f i RangeToken.obj
 0001:00017922       ??0RangeToken@xercesc_2_8@@QAE@GQAVMemoryManager@1@@Z 12018922 f   RangeToken.obj
 0001:00017960       ??1RangeToken@xercesc_2_8@@UAE@XZ 12018960 f   RangeToken.obj
 0001:0001799d       ?getCaseInsensitiveToken@RangeToken@xercesc_2_8@@QAEPAV12@QAVTokenFactory@2@@Z 1201899d f   RangeToken.obj
 0001:00017aad       ?setRangeValues@RangeToken@xercesc_2_8@@QAEXQAHI@Z 12018aad f   RangeToken.obj
 0001:00017af2       ?addRange@RangeToken@xercesc_2_8@@UAEXHH@Z 12018af2 f   RangeToken.obj
 0001:00017c41       ?sortRanges@RangeToken@xercesc_2_8@@UAEXXZ 12018c41 f   RangeToken.obj
 0001:00017cc7       ?compactRanges@RangeToken@xercesc_2_8@@UAEXXZ 12018cc7 f   RangeToken.obj
 0001:00017d5c       ?mergeRanges@RangeToken@xercesc_2_8@@UAEXQBVToken@2@@Z 12018d5c f   RangeToken.obj
 0001:00017f19       ?subtractRanges@RangeToken@xercesc_2_8@@UAEXQAV12@@Z 12018f19 f   RangeToken.obj
 0001:00018099       ?intersectRanges@RangeToken@xercesc_2_8@@UAEXQAV12@@Z 12019099 f   RangeToken.obj
 0001:000181d5       ?complementRanges@RangeToken@xercesc_2_8@@SAPAVToken@2@QAV12@QAVTokenFactory@2@QAVMemoryManager@2@@Z 120191d5 f   RangeToken.obj
 0001:000182a2       ?match@RangeToken@xercesc_2_8@@QAE_NH@Z 120192a2 f   RangeToken.obj
 0001:00018365       ?expand@RangeToken@xercesc_2_8@@AAEXI@Z 12019365 f   RangeToken.obj
 0001:000183d4       ?doCreateMap@RangeToken@xercesc_2_8@@AAEXXZ 120193d4 f   RangeToken.obj
 0001:000184fa       ?initializeRangeTokenMap@XMLInitializer@xercesc_2_8@@CAXXZ 120194fa f   RangeTokenMap.obj
 0001:00018557       ??0RangeTokenElemMap@xercesc_2_8@@QAE@I@Z 12019557 f   RangeTokenMap.obj
 0001:0001856a       ??0RangeTokenMap@xercesc_2_8@@IAE@PAVMemoryManager@1@@Z 1201956a f   RangeTokenMap.obj
 0001:00018669       ??1RangeTokenMap@xercesc_2_8@@IAE@XZ 12019669 f   RangeTokenMap.obj
 0001:00018695       ?getRange@RangeTokenMap@xercesc_2_8@@IAEPAVRangeToken@2@QB_W_N@Z 12019695 f   RangeTokenMap.obj
 0001:00018775       ?addCategory@RangeTokenMap@xercesc_2_8@@QAEXQB_W@Z 12019775 f   RangeTokenMap.obj
 0001:00018775       ?getSystemId@Wrapper4InputSource@xercesc_2_8@@UBEPB_WXZ 12019775 f   Wrapper4InputSource.obj
 0001:0001877d       ?addRangeMap@RangeTokenMap@xercesc_2_8@@QAEXQB_WQAVRangeFactory@2@@Z 1201977d f   RangeTokenMap.obj
 0001:00018792       ?addKeywordMap@RangeTokenMap@xercesc_2_8@@QAEXQB_W0@Z 12019792 f   RangeTokenMap.obj
 0001:0001882b       ?setRangeToken@RangeTokenMap@xercesc_2_8@@QAEXQB_WQAVRangeToken@2@_N@Z 1201982b f   RangeTokenMap.obj
 0001:00018896       ?initializeRegistry@RangeTokenMap@xercesc_2_8@@AAEXXZ 12019896 f   RangeTokenMap.obj
 0001:000189a7       ?buildTokenRanges@RangeTokenMap@xercesc_2_8@@AAEXXZ 120199a7 f   RangeTokenMap.obj
 0001:00018a02       ?instance@RangeTokenMap@xercesc_2_8@@SAPAV12@XZ 12019a02 f   RangeTokenMap.obj
 0001:00018a80       ?cleanUp@RangeTokenMap@xercesc_2_8@@AAEXXZ 12019a80 f   RangeTokenMap.obj
 0001:00018adf       ?reinitInstance@RangeTokenMap@xercesc_2_8@@SAXXZ 12019adf f   RangeTokenMap.obj
 0001:00018b01       ??0?$RefHashTableOf@VRangeTokenElemMap@xercesc_2_8@@@xercesc_2_8@@QAE@IQAVMemoryManager@1@@Z 12019b01 f i RangeTokenMap.obj
 0001:00018b5c       ?put@?$RefHashTableOf@VRangeTokenElemMap@xercesc_2_8@@@xercesc_2_8@@QAEXPAXQAVRangeTokenElemMap@2@@Z 12019b5c f i RangeTokenMap.obj
 0001:00018bda       ??0?$RefHashTableOf@VRangeFactory@xercesc_2_8@@@xercesc_2_8@@QAE@IQAVMemoryManager@1@@Z 12019bda f i RangeTokenMap.obj
 0001:00018c32       ?put@?$RefHashTableOf@VRangeFactory@xercesc_2_8@@@xercesc_2_8@@QAEXPAXQAVRangeFactory@2@@Z 12019c32 f i RangeTokenMap.obj
 0001:00018caf       ??1?$JanitorMemFunCall@VValueStoreCache@xercesc_2_8@@@xercesc_2_8@@QAE@XZ 12019caf f i ValueStoreCache.obj
 0001:00018caf       ??1?$JanitorMemFunCall@VXMLAttr@xercesc_2_8@@@xercesc_2_8@@QAE@XZ 12019caf f i XMLAttr.obj
 0001:00018caf       ??1?$JanitorMemFunCall@VBMPattern@xercesc_2_8@@@xercesc_2_8@@QAE@XZ 12019caf f i BMPattern.obj
 0001:00018caf       ??1?$JanitorMemFunCall@VTraverseSchema@xercesc_2_8@@@xercesc_2_8@@QAE@XZ 12019caf f i TraverseSchema.obj
 0001:00018caf       ??1?$JanitorMemFunCall@VXMLStringTokenizer@xercesc_2_8@@@xercesc_2_8@@QAE@XZ 12019caf f i XMLStringTokenizer.obj
 0001:00018caf       ??1?$JanitorMemFunCall@VFieldValueMap@xercesc_2_8@@@xercesc_2_8@@QAE@XZ 12019caf f i FieldValueMap.obj
 0001:00018caf       ??1?$JanitorMemFunCall@VRangeTokenMap@xercesc_2_8@@@xercesc_2_8@@QAE@XZ 12019caf f i RangeTokenMap.obj
 0001:00018caf       ??1?$JanitorMemFunCall@VXPathMatcherStack@xercesc_2_8@@@xercesc_2_8@@QAE@XZ 12019caf f i XPathMatcherStack.obj
 0001:00018caf       ??1?$JanitorMemFunCall@VRegularExpression@xercesc_2_8@@@xercesc_2_8@@QAE@XZ 12019caf f i RegularExpression.obj
 0001:00018cbf       ?rehash@?$RefHashTableOf@VRangeTokenElemMap@xercesc_2_8@@@xercesc_2_8@@AAEXXZ 12019cbf f i RangeTokenMap.obj
 0001:00018d68       ?rehash@?$RefHashTableOf@VRangeFactory@xercesc_2_8@@@xercesc_2_8@@AAEXXZ 12019d68 f i RangeTokenMap.obj
 0001:00018e11       ?isEOLChar@RegxUtil@xercesc_2_8@@SA_N_W@Z 12019e11 f i RegularExpression.obj
 0001:00018e35       ?composeFromSurrogate@RegxUtil@xercesc_2_8@@SAH_W0@Z 12019e35 f i RegularExpression.obj
 0001:00018e4a       ?isLowSurrogate@RegxUtil@xercesc_2_8@@SA_N_W@Z 12019e4a f i RegularExpression.obj
 0001:00018e5d       ?isHighSurrogate@RegxUtil@xercesc_2_8@@SA_N_W@Z 12019e5d f i RegularExpression.obj
 0001:00018e70       ?decomposeToSurrogates@RegxUtil@xercesc_2_8@@SAXHAA_W0@Z 12019e70 f i RegularExpression.obj
 0001:00018e9d       ?isWordChar@RegxUtil@xercesc_2_8@@SA_N_W@Z 12019e9d f i RegularExpression.obj
 0001:00018ed2       ??_FContext@RegularExpression@xercesc_2_8@@QAEXXZ 12019ed2 f i RegularExpression.obj
 0001:00018ede       ?staticCleanup@RegularExpression@xercesc_2_8@@SAXXZ 12019ede f i RegularExpression.obj
 0001:00018ee6       ?cleanUp@RegularExpression@xercesc_2_8@@AAEXXZ 12019ee6 f i RegularExpression.obj
 0001:00018f2d       ?isSet@RegularExpression@xercesc_2_8@@SA_NHH@Z 12019f2d f i RegularExpression.obj
 0001:00018f3f       ?compileLook@RegularExpression@xercesc_2_8@@AAEPAVOp@2@QBVToken@2@QBV32@_NG@Z 12019f3f f i RegularExpression.obj
 0001:00018fcd       ?compileSingle@RegularExpression@xercesc_2_8@@AAEPAVOp@2@QBVToken@2@QAV32@G@Z 12019fcd f i RegularExpression.obj
 0001:00019077       ?compileUnion@RegularExpression@xercesc_2_8@@AAEPAVOp@2@QBVToken@2@QAV32@_N@Z 1201a077 f i RegularExpression.obj
 0001:000190d7       ?compileCondition@RegularExpression@xercesc_2_8@@AAEPAVOp@2@QBVToken@2@QAV32@_N@Z 1201a0d7 f i RegularExpression.obj
 0001:0001915e       ?compileParenthesis@RegularExpression@xercesc_2_8@@AAEPAVOp@2@QBVToken@2@QAV32@_N@Z 1201a15e f i RegularExpression.obj
 0001:000191f8       ?compileConcat@RegularExpression@xercesc_2_8@@AAEPAVOp@2@QBVToken@2@QAV32@_N@Z 1201a1f8 f i RegularExpression.obj
 0001:00019263       ?compileClosure@RegularExpression@xercesc_2_8@@AAEPAVOp@2@QBVToken@2@QAV32@_NG@Z 1201a263 f i RegularExpression.obj
 0001:00019373       ?matchModifier@RegularExpression@xercesc_2_8@@AAEHQAVContext@12@QBVOp@2@HF@Z 1201a373 f i RegularExpression.obj
 0001:000193b9       ?getWordType@RegularExpression@xercesc_2_8@@AAEGQB_WHHH@Z 1201a3b9 f i RegularExpression.obj
 0001:000193e2       ?getPreviousWordType@RegularExpression@xercesc_2_8@@AAEGQB_WHHH@Z 1201a3e2 f i RegularExpression.obj
 0001:0001940e       ?matchIgnoreCase@RegularExpression@xercesc_2_8@@AAE_NHH@Z 1201a40e f   RegularExpression.obj
 0001:000194a6       ??0Context@RegularExpression@xercesc_2_8@@QAE@QAVMemoryManager@2@@Z 1201a4a6 f   RegularExpression.obj
 0001:000194ce       ??0Context@RegularExpression@xercesc_2_8@@QAE@PAV012@@Z 1201a4ce f   RegularExpression.obj
 0001:00019577       ??4Context@RegularExpression@xercesc_2_8@@QAEAAV012@ABV012@@Z 1201a577 f   RegularExpression.obj
 0001:00019641       ??1Context@RegularExpression@xercesc_2_8@@QAE@XZ 1201a641 f   RegularExpression.obj
 0001:00019668       ?reset@Context@RegularExpression@xercesc_2_8@@QAEXQB_WHHHH@Z 1201a668 f   RegularExpression.obj
 0001:000196e7       ?nextCh@Context@RegularExpression@xercesc_2_8@@QAE_NAAH0F@Z 1201a6e7 f   RegularExpression.obj
 0001:00019797       ??0RegularExpression@xercesc_2_8@@QAE@QBDQAVMemoryManager@1@@Z 1201a797 f   RegularExpression.obj
 0001:00019837       ??0RegularExpression@xercesc_2_8@@QAE@QBD0QAVMemoryManager@1@@Z 1201a837 f   RegularExpression.obj
 0001:000198fd       ??0RegularExpression@xercesc_2_8@@QAE@QB_WQAVMemoryManager@1@@Z 1201a8fd f   RegularExpression.obj
 0001:0001997b       ??0RegularExpression@xercesc_2_8@@QAE@QB_W0QAVMemoryManager@1@@Z 1201a97b f   RegularExpression.obj
 0001:000199fb       ??1RegularExpression@xercesc_2_8@@QAE@XZ 1201a9fb f   RegularExpression.obj
 0001:00019a27       ?setPattern@RegularExpression@xercesc_2_8@@AAEXQB_W0@Z 1201aa27 f   RegularExpression.obj
 0001:00019b0a       ?matches@RegularExpression@xercesc_2_8@@QAE_NQBDQAVMemoryManager@2@@Z 1201ab0a f   RegularExpression.obj
 0001:00019b60       ?matches@RegularExpression@xercesc_2_8@@QAE_NQBDHHQAVMemoryManager@2@@Z 1201ab60 f   RegularExpression.obj
 0001:00019baf       ?matches@RegularExpression@xercesc_2_8@@QAE_NQBDQAVMatch@2@QAVMemoryManager@2@@Z 1201abaf f   RegularExpression.obj
 0001:00019c05       ?matches@RegularExpression@xercesc_2_8@@QAE_NQBDHHQAVMatch@2@QAVMemoryManager@2@@Z 1201ac05 f   RegularExpression.obj
 0001:00019c55       ?matches@RegularExpression@xercesc_2_8@@QAE_NQB_WQAVMemoryManager@2@@Z 1201ac55 f   RegularExpression.obj
 0001:00019c7a       ?matches@RegularExpression@xercesc_2_8@@QAE_NQB_WHHQAVMemoryManager@2@@Z 1201ac7a f   RegularExpression.obj
 0001:00019c94       ?matches@RegularExpression@xercesc_2_8@@QAE_NQB_WQAVMatch@2@QAVMemoryManager@2@@Z 1201ac94 f   RegularExpression.obj
 0001:00019cbb       ?matches@RegularExpression@xercesc_2_8@@QAE_NQB_WHHQAVMatch@2@QAVMemoryManager@2@@Z 1201acbb f   RegularExpression.obj
 0001:00019fdd       ?tokenize@RegularExpression@xercesc_2_8@@QAEPAV?$RefArrayVectorOf@_W@2@QBD@Z 1201afdd f   RegularExpression.obj
 0001:0001a031       ?tokenize@RegularExpression@xercesc_2_8@@QAEPAV?$RefArrayVectorOf@_W@2@QBDHH@Z 1201b031 f   RegularExpression.obj
 0001:0001a07f       ?tokenize@RegularExpression@xercesc_2_8@@QAEPAV?$RefArrayVectorOf@_W@2@QB_W@Z 1201b07f f   RegularExpression.obj
 0001:0001a0a0       ?tokenize@RegularExpression@xercesc_2_8@@QAEPAV?$RefArrayVectorOf@_W@2@QB_WHH@Z 1201b0a0 f   RegularExpression.obj
 0001:0001a0b6       ?tokenize@RegularExpression@xercesc_2_8@@AAEPAV?$RefArrayVectorOf@_W@2@QB_WHHPAV?$RefVectorOf@VMatch@xercesc_2_8@@@2@@Z 1201b0b6 f   RegularExpression.obj
 0001:0001a337       ?replace@RegularExpression@xercesc_2_8@@QAEPA_WQBD0@Z 1201b337 f   RegularExpression.obj
 0001:0001a3e7       ?replace@RegularExpression@xercesc_2_8@@QAEPA_WQBD0HH@Z 1201b3e7 f   RegularExpression.obj
 0001:0001a490       ?replace@RegularExpression@xercesc_2_8@@QAEPA_WQB_W0@Z 1201b490 f   RegularExpression.obj
 0001:0001a4b3       ?replace@RegularExpression@xercesc_2_8@@QAEPA_WQB_W0HH@Z 1201b4b3 f   RegularExpression.obj
 0001:0001a65a       ?initializeRegularExpression@XMLInitializer@xercesc_2_8@@CAXXZ 1201b65a f   RegularExpression.obj
 0001:0001a667       ?staticInitialize@RegularExpression@xercesc_2_8@@SAXPAVMemoryManager@2@@Z 1201b667 f   RegularExpression.obj
 0001:0001a6c4       ?getOptionValue@RegularExpression@xercesc_2_8@@SAH_W@Z 1201b6c4 f   RegularExpression.obj
 0001:0001a72a       ?match@RegularExpression@xercesc_2_8@@AAEHQAVContext@12@QBVOp@2@HF@Z 1201b72a f   RegularExpression.obj
 0001:0001aa49       ?matchChar@RegularExpression@xercesc_2_8@@AAE_NQAVContext@12@HAAHF_N@Z 1201ba49 f   RegularExpression.obj
 0001:0001aabf       ?matchDot@RegularExpression@xercesc_2_8@@AAE_NQAVContext@12@AAHF@Z 1201babf f   RegularExpression.obj
 0001:0001ab33       ?matchRange@RegularExpression@xercesc_2_8@@AAE_NQAVContext@12@QBVOp@2@AAHF_N@Z 1201bb33 f   RegularExpression.obj
 0001:0001abad       ?matchAnchor@RegularExpression@xercesc_2_8@@AAE_NQAVContext@12@HH@Z 1201bbad f   RegularExpression.obj
 0001:0001adeb       ?matchBackReference@RegularExpression@xercesc_2_8@@AAE_NQAVContext@12@HAAHF_N@Z 1201bdeb f   RegularExpression.obj
 0001:0001aece       ?matchString@RegularExpression@xercesc_2_8@@AAE_NQAVContext@12@QB_WAAHF_N@Z 1201bece f   RegularExpression.obj
 0001:0001af36       ?matchCapture@RegularExpression@xercesc_2_8@@AAEHQAVContext@12@QBVOp@2@HF@Z 1201bf36 f   RegularExpression.obj
 0001:0001afe3       ?matchUnion@RegularExpression@xercesc_2_8@@AAEHQAVContext@12@QBVOp@2@HF@Z 1201bfe3 f   RegularExpression.obj
 0001:0001b118       ?matchCondition@RegularExpression@xercesc_2_8@@AAE_NQAVContext@12@QBVOp@2@HF@Z 1201c118 f   RegularExpression.obj
 0001:0001b184       ?parseOptions@RegularExpression@xercesc_2_8@@AAEHQB_W@Z 1201c184 f   RegularExpression.obj
 0001:0001b1fd       ?compile@RegularExpression@xercesc_2_8@@AAEXQBVToken@2@@Z 1201c1fd f   RegularExpression.obj
 0001:0001b21c       ?compile@RegularExpression@xercesc_2_8@@AAEPAVOp@2@QBVToken@2@QAV32@_N@Z 1201c21c f   RegularExpression.obj
 0001:0001b323       ?subInExp@RegularExpression@xercesc_2_8@@AAEPB_WQB_W0PBVMatch@2@@Z 1201c323 f   RegularExpression.obj
 0001:0001b52b       ?prepare@RegularExpression@xercesc_2_8@@AAEXXZ 1201c52b f   RegularExpression.obj
 0001:0001b74f       ?getCharType@RegularExpression@xercesc_2_8@@AAEG_W@Z 1201c74f f   RegularExpression.obj
 0001:0001b822       ??0?$RefVectorOf@VMatch@xercesc_2_8@@@xercesc_2_8@@QAE@I_NQAVMemoryManager@1@@Z 1201c822 f i RegularExpression.obj
 0001:0001b862       ??1?$BaseRefVectorOf@VMatch@xercesc_2_8@@@xercesc_2_8@@UAE@XZ 1201c862 f i RegularExpression.obj
 0001:0001b869       ??_G?$RefVectorOf@VMatch@xercesc_2_8@@@xercesc_2_8@@UAEPAXI@Z 1201c869 f i RegularExpression.obj
 0001:0001b869       ??_E?$RefVectorOf@VMatch@xercesc_2_8@@@xercesc_2_8@@UAEPAXI@Z 1201c869 f i  CIL library: CIL module
 0001:0001b8d3       ??_E?$BaseRefVectorOf@VMatch@xercesc_2_8@@@xercesc_2_8@@UAEPAXI@Z 1201c8d3 f i  CIL library: CIL module
 0001:0001b8d3       ??_G?$BaseRefVectorOf@VMatch@xercesc_2_8@@@xercesc_2_8@@UAEPAXI@Z 1201c8d3 f i RegularExpression.obj
 0001:0001b8f0       ??_ERegxParser@xercesc_2_8@@UAEPAXI@Z 1201c8f0 f i RegxParser.obj
 0001:0001b939       ??0RegxParser@xercesc_2_8@@QAE@QAVMemoryManager@1@@Z 1201c939 f   RegxParser.obj
 0001:0001b974       ??1RegxParser@xercesc_2_8@@UAE@XZ 1201c974 f   RegxParser.obj
 0001:0001b997       ?parse@RegxParser@xercesc_2_8@@QAEPAVToken@2@QB_WH@Z 1201c997 f   RegxParser.obj
 0001:0001bb13       ?processNext@RegxParser@xercesc_2_8@@IAEXXZ 1201cb13 f   RegxParser.obj
 0001:0001bf07       ?parseRegx@RegxParser@xercesc_2_8@@IAEPAVToken@2@_N@Z 1201cf07 f   RegxParser.obj
 0001:0001bf78       ?parseTerm@RegxParser@xercesc_2_8@@AAEPAVToken@2@_N@Z 1201cf78 f   RegxParser.obj
 0001:0001c04d       ?processCaret@RegxParser@xercesc_2_8@@MAEPAVToken@2@XZ 1201d04d f   RegxParser.obj
 0001:0001c05e       ?processDollar@RegxParser@xercesc_2_8@@MAEPAVToken@2@XZ 1201d05e f   RegxParser.obj
 0001:0001c06f       ?processLook@RegxParser@xercesc_2_8@@MAEPAVToken@2@G@Z 1201d06f f   RegxParser.obj
 0001:0001c0d7       ?processBacksolidus_A@RegxParser@xercesc_2_8@@MAEPAVToken@2@XZ 1201d0d7 f   RegxParser.obj
 0001:0001c0e8       ?processBacksolidus_Z@RegxParser@xercesc_2_8@@MAEPAVToken@2@XZ 1201d0e8 f   RegxParser.obj
 0001:0001c0f9       ?processBacksolidus_z@RegxParser@xercesc_2_8@@MAEPAVToken@2@XZ 1201d0f9 f   RegxParser.obj
 0001:0001c10a       ?processBacksolidus_b@RegxParser@xercesc_2_8@@MAEPAVToken@2@XZ 1201d10a f   RegxParser.obj
 0001:0001c11b       ?processBacksolidus_B@RegxParser@xercesc_2_8@@MAEPAVToken@2@XZ 1201d11b f   RegxParser.obj
 0001:0001c12c       ?processBacksolidus_lt@RegxParser@xercesc_2_8@@MAEPAVToken@2@XZ 1201d12c f   RegxParser.obj
 0001:0001c13d       ?processBacksolidus_gt@RegxParser@xercesc_2_8@@MAEPAVToken@2@XZ 1201d13d f   RegxParser.obj
 0001:0001c14e       ?processStar@RegxParser@xercesc_2_8@@MAEPAVToken@2@QAV32@@Z 1201d14e f   RegxParser.obj
 0001:0001c183       ?processPlus@RegxParser@xercesc_2_8@@MAEPAVToken@2@QAV32@@Z 1201d183 f   RegxParser.obj
 0001:0001c1c4       ?processQuestion@RegxParser@xercesc_2_8@@MAEPAVToken@2@QAV32@@Z 1201d1c4 f   RegxParser.obj
 0001:0001c2c0       ?processParen@RegxParser@xercesc_2_8@@MAEPAVToken@2@XZ 1201d2c0 f   RegxParser.obj
 0001:0001c32d       ?processParen2@RegxParser@xercesc_2_8@@MAEPAVToken@2@XZ 1201d32d f   RegxParser.obj
 0001:0001c392       ?processCondition@RegxParser@xercesc_2_8@@MAEPAVToken@2@XZ 1201d392 f   RegxParser.obj
 0001:0001c577       ?processModifiers@RegxParser@xercesc_2_8@@MAEPAVToken@2@XZ 1201d577 f   RegxParser.obj
 0001:0001c710       ?processIndependent@RegxParser@xercesc_2_8@@MAEPAVToken@2@XZ 1201d710 f   RegxParser.obj
 0001:0001c775       ?processBacksolidus_c@RegxParser@xercesc_2_8@@MAEPAVToken@2@XZ 1201d775 f   RegxParser.obj
 0001:0001c7eb       ?processBacksolidus_i@RegxParser@xercesc_2_8@@MAEPAVToken@2@XZ 1201d7eb f   RegxParser.obj
 0001:0001c801       ?processBacksolidus_g@RegxParser@xercesc_2_8@@MAEPAVToken@2@XZ 1201d801 f   RegxParser.obj
 0001:0001c812       ?processBacksolidus_X@RegxParser@xercesc_2_8@@MAEPAVToken@2@XZ 1201d812 f   RegxParser.obj
 0001:0001c823       ?processBackReference@RegxParser@xercesc_2_8@@MAEPAVToken@2@XZ 1201d823 f   RegxParser.obj
 0001:0001c8b3       ?parseFactor@RegxParser@xercesc_2_8@@AAEPAVToken@2@XZ 1201d8b3 f   RegxParser.obj
 0001:0001cc4e       ?parseAtom@RegxParser@xercesc_2_8@@AAEPAVToken@2@XZ 1201dc4e f   RegxParser.obj
 0001:0001cf05       ?processBacksolidus_pP@RegxParser@xercesc_2_8@@IAEPAVRangeToken@2@H@Z 1201df05 f   RegxParser.obj
 0001:0001d030       ?processCInCharacterClass@RegxParser@xercesc_2_8@@MAEHQAVRangeToken@2@H@Z 1201e030 f   RegxParser.obj
 0001:0001d038       ?parseCharacterClass@RegxParser@xercesc_2_8@@MAEPAVRangeToken@2@_N@Z 1201e038 f   RegxParser.obj
 0001:0001d469       ?parseSetOperations@RegxParser@xercesc_2_8@@MAEPAVRangeToken@2@XZ 1201e469 f   RegxParser.obj
 0001:0001d55d       ?getTokenForShorthand@RegxParser@xercesc_2_8@@MAEPAVToken@2@H@Z 1201e55d f   RegxParser.obj
 0001:0001d5da       ?decodeEscaped@RegxParser@xercesc_2_8@@MAEHXZ 1201e5da f   RegxParser.obj
 0001:0001d93c       ?checkQuestion@RegxParser@xercesc_2_8@@MAE_NH@Z 1201e93c f   RegxParser.obj
 0001:0001d959       ??0?$RefVectorOf@VReferencePosition@RegxParser@xercesc_2_8@@@xercesc_2_8@@QAE@I_NQAVMemoryManager@1@@Z 1201e959 f i RegxParser.obj
 0001:0001d999       ??1?$BaseRefVectorOf@VReferencePosition@RegxParser@xercesc_2_8@@@xercesc_2_8@@UAE@XZ 1201e999 f i RegxParser.obj
 0001:0001d9a0       ?setElementAt@?$BaseRefVectorOf@VReferencePosition@RegxParser@xercesc_2_8@@@xercesc_2_8@@UAEXQAVReferencePosition@RegxParser@2@I@Z 1201e9a0 f i RegxParser.obj
 0001:0001d9f5       ?removeAllElements@?$BaseRefVectorOf@VReferencePosition@RegxParser@xercesc_2_8@@@xercesc_2_8@@UAEXXZ 1201e9f5 f i RegxParser.obj
 0001:0001da26       ?removeElementAt@?$BaseRefVectorOf@VReferencePosition@RegxParser@xercesc_2_8@@@xercesc_2_8@@UAEXI@Z 1201ea26 f i RegxParser.obj
 0001:0001daae       ?removeLastElement@?$BaseRefVectorOf@VReferencePosition@RegxParser@xercesc_2_8@@@xercesc_2_8@@UAEXXZ 1201eaae f i RegxParser.obj
 0001:0001dacc       ?cleanup@?$BaseRefVectorOf@VReferencePosition@RegxParser@xercesc_2_8@@@xercesc_2_8@@UAEXXZ 1201eacc f i RegxParser.obj
 0001:0001dafd       ??_G?$RefVectorOf@VReferencePosition@RegxParser@xercesc_2_8@@@xercesc_2_8@@UAEPAXI@Z 1201eafd f i RegxParser.obj
 0001:0001dafd       ??_E?$RefVectorOf@VReferencePosition@RegxParser@xercesc_2_8@@@xercesc_2_8@@UAEPAXI@Z 1201eafd f i  CIL library: CIL module
 0001:0001db63       ??_E?$BaseRefVectorOf@VReferencePosition@RegxParser@xercesc_2_8@@@xercesc_2_8@@UAEPAXI@Z 1201eb63 f i  CIL library: CIL module
 0001:0001db63       ??_G?$BaseRefVectorOf@VReferencePosition@RegxParser@xercesc_2_8@@@xercesc_2_8@@UAEPAXI@Z 1201eb63 f i RegxParser.obj
 0001:0001db80       ?decomposeToSurrogates@RegxUtil@xercesc_2_8@@SAPA_WHQAVMemoryManager@2@@Z 1201eb80 f   RegxUtil.obj
 0001:0001dba8       ?stripExtendedComment@RegxUtil@xercesc_2_8@@SAPA_WQB_WQAVMemoryManager@2@@Z 1201eba8 f   RegxUtil.obj
 0001:0001dc88       ??_EStringToken@xercesc_2_8@@UAEPAXI@Z 1201ec88 f i StringToken.obj
 0001:0001dcd1       ??0StringToken@xercesc_2_8@@QAE@GQB_WHQAVMemoryManager@1@@Z 1201ecd1 f   StringToken.obj
 0001:0001dd19       ??1StringToken@xercesc_2_8@@UAE@XZ 1201ed19 f   StringToken.obj
 0001:0001dd4b       ??_EToken@xercesc_2_8@@UAEPAXI@Z 1201ed4b f i Token.obj
 0001:0001dd95       ??0Token@xercesc_2_8@@QAE@GQAVMemoryManager@1@@Z 1201ed95 f   Token.obj
 0001:0001ddb0       ?getMinLength@Token@xercesc_2_8@@QBEHXZ 1201edb0 f   Token.obj
 0001:0001dedb       ?getMaxLength@Token@xercesc_2_8@@QBEHXZ 1201eedb f   Token.obj
 0001:0001e02a       ?analyzeFirstCharacter@Token@xercesc_2_8@@QAEHQAVRangeToken@2@HQAVTokenFactory@2@@Z 1201f02a f   Token.obj
 0001:0001e285       ?findFixedString@Token@xercesc_2_8@@QAEPAV12@HAAH@Z 1201f285 f   Token.obj
 0001:0001e36c       ?isShorterThan@Token@xercesc_2_8@@AAE_NQAV12@@Z 1201f36c f   Token.obj
 0001:0001e3b2       ??0TokenFactory@xercesc_2_8@@QAE@QAVMemoryManager@1@@Z 1201f3b2 f   TokenFactory.obj
 0001:0001e429       ?createToken@TokenFactory@xercesc_2_8@@QAEPAVToken@2@G@Z 1201f429 f   TokenFactory.obj
 0001:0001e479       ?createLook@TokenFactory@xercesc_2_8@@QAEPAVParenToken@2@GQAVToken@2@@Z 1201f479 f   TokenFactory.obj
 0001:0001e4b3       ?createParenthesis@TokenFactory@xercesc_2_8@@QAEPAVParenToken@2@QAVToken@2@H@Z 1201f4b3 f   TokenFactory.obj
 0001:0001e4f0       ?createClosure@TokenFactory@xercesc_2_8@@QAEPAVClosureToken@2@QAVToken@2@_N@Z 1201f4f0 f   TokenFactory.obj
 0001:0001e53f       ?createConcat@TokenFactory@xercesc_2_8@@QAEPAVConcatToken@2@QAVToken@2@0@Z 1201f53f f   TokenFactory.obj
 0001:0001e57a       ?createUnion@TokenFactory@xercesc_2_8@@QAEPAVUnionToken@2@_N@Z 1201f57a f   TokenFactory.obj
 0001:0001e5c1       ?createRange@TokenFactory@xercesc_2_8@@QAEPAVRangeToken@2@_N@Z 1201f5c1 f   TokenFactory.obj
 0001:0001e608       ?createChar@TokenFactory@xercesc_2_8@@QAEPAVCharToken@2@I_N@Z 1201f608 f   TokenFactory.obj
 0001:0001e657       ?createBackReference@TokenFactory@xercesc_2_8@@QAEPAVStringToken@2@H@Z 1201f657 f   TokenFactory.obj
 0001:0001e6a8       ?createString@TokenFactory@xercesc_2_8@@QAEPAVStringToken@2@QB_W@Z 1201f6a8 f   TokenFactory.obj
 0001:0001e6f9       ?createModifierGroup@TokenFactory@xercesc_2_8@@QAEPAVModifierToken@2@QAVToken@2@HH@Z 1201f6f9 f   TokenFactory.obj
 0001:0001e738       ?createCondition@TokenFactory@xercesc_2_8@@QAEPAVConditionToken@2@HQAVToken@2@00@Z 1201f738 f   TokenFactory.obj
 0001:0001e77b       ?staticGetRange@TokenFactory@xercesc_2_8@@SAPAVRangeToken@2@QB_W_N@Z 1201f77b f   TokenFactory.obj
 0001:0001e792       ?getLineBegin@TokenFactory@xercesc_2_8@@QAEPAVToken@2@XZ 1201f792 f   TokenFactory.obj
 0001:0001e7ac       ?getLineBegin2@TokenFactory@xercesc_2_8@@QAEPAVToken@2@XZ 1201f7ac f   TokenFactory.obj
 0001:0001e7c6       ?getLineEnd@TokenFactory@xercesc_2_8@@QAEPAVToken@2@XZ 1201f7c6 f   TokenFactory.obj
 0001:0001e7e0       ?getStringBegin@TokenFactory@xercesc_2_8@@QAEPAVToken@2@XZ 1201f7e0 f   TokenFactory.obj
 0001:0001e7fa       ?getStringEnd@TokenFactory@xercesc_2_8@@QAEPAVToken@2@XZ 1201f7fa f   TokenFactory.obj
 0001:0001e814       ?getStringEnd2@TokenFactory@xercesc_2_8@@QAEPAVToken@2@XZ 1201f814 f   TokenFactory.obj
 0001:0001e82e       ?getWordEdge@TokenFactory@xercesc_2_8@@QAEPAVToken@2@XZ 1201f82e f   TokenFactory.obj
 0001:0001e848       ?getNotWordEdge@TokenFactory@xercesc_2_8@@QAEPAVToken@2@XZ 1201f848 f   TokenFactory.obj
 0001:0001e862       ?getWordBegin@TokenFactory@xercesc_2_8@@QAEPAVToken@2@XZ 1201f862 f   TokenFactory.obj
 0001:0001e87c       ?getWordEnd@TokenFactory@xercesc_2_8@@QAEPAVToken@2@XZ 1201f87c f   TokenFactory.obj
 0001:0001e896       ?getDot@TokenFactory@xercesc_2_8@@QAEPAVToken@2@XZ 1201f896 f   TokenFactory.obj
 0001:0001e8ae       ?getCombiningCharacterSequence@TokenFactory@xercesc_2_8@@QAEPAVToken@2@XZ 1201f8ae f   TokenFactory.obj
 0001:0001e8f0       ?getGraphemePattern@TokenFactory@xercesc_2_8@@QAEPAVToken@2@XZ 1201f8f0 f   TokenFactory.obj
 0001:0001eaec       ??0?$RefVectorOf@VToken@xercesc_2_8@@@xercesc_2_8@@QAE@I_NQAVMemoryManager@1@@Z 1201faec f i TokenFactory.obj
 0001:0001eb2c       ??1?$BaseRefVectorOf@VToken@xercesc_2_8@@@xercesc_2_8@@UAE@XZ 1201fb2c f i TokenFactory.obj
 0001:0001eb33       ??_E?$RefVectorOf@VToken@xercesc_2_8@@@xercesc_2_8@@UAEPAXI@Z 1201fb33 f i  CIL library: CIL module
 0001:0001eb33       ??_G?$RefVectorOf@VToken@xercesc_2_8@@@xercesc_2_8@@UAEPAXI@Z 1201fb33 f i TokenFactory.obj
 0001:0001eb9d       ??_G?$BaseRefVectorOf@VToken@xercesc_2_8@@@xercesc_2_8@@UAEPAXI@Z 1201fb9d f i TokenFactory.obj
 0001:0001eb9d       ??_E?$BaseRefVectorOf@VToken@xercesc_2_8@@@xercesc_2_8@@UAEPAXI@Z 1201fb9d f i  CIL library: CIL module
 0001:0001ebba       ??_EUnicodeRangeFactory@xercesc_2_8@@UAEPAXI@Z 1201fbba f i UnicodeRangeFactory.obj
 0001:0001ebba       ??_EBlockRangeFactory@xercesc_2_8@@UAEPAXI@Z 1201fbba f i BlockRangeFactory.obj
 0001:0001ebba       ??_ERangeFactory@xercesc_2_8@@UAEPAXI@Z 1201fbba f i RangeFactory.obj
 0001:0001ebba       ??_EASCIIRangeFactory@xercesc_2_8@@UAEPAXI@Z 1201fbba f i ASCIIRangeFactory.obj
 0001:0001ebba       ??_EXMLRangeFactory@xercesc_2_8@@UAEPAXI@Z 1201fbba f i XMLRangeFactory.obj
 0001:0001ec04       ??0UnicodeRangeFactory@xercesc_2_8@@QAE@XZ 1201fc04 f   UnicodeRangeFactory.obj
 0001:0001ec15       ?buildRanges@UnicodeRangeFactory@xercesc_2_8@@MAEXPAVRangeTokenMap@2@@Z 1201fc15 f   UnicodeRangeFactory.obj
 0001:0001ef28       ?initializeKeywordMap@UnicodeRangeFactory@xercesc_2_8@@UAEXPAVRangeTokenMap@2@@Z 1201ff28 f   UnicodeRangeFactory.obj
 0001:0001efbc       ?getUniCategory@UnicodeRangeFactory@xercesc_2_8@@AAEGG@Z 1201ffbc f   UnicodeRangeFactory.obj
 0001:0001f03e       ??_EUnionToken@xercesc_2_8@@UAEPAXI@Z 1202003e f i UnionToken.obj
 0001:0001f087       ??0UnionToken@xercesc_2_8@@QAE@GQAVMemoryManager@1@@Z 12020087 f   UnionToken.obj
 0001:0001f0a5       ??1UnionToken@xercesc_2_8@@UAE@XZ 120200a5 f   UnionToken.obj
 0001:0001f0d9       ?addChild@UnionToken@xercesc_2_8@@UAEXQAVToken@2@QAVTokenFactory@2@@Z 120200d9 f   UnionToken.obj
 0001:0001f31f       ??0XMLRangeFactory@xercesc_2_8@@QAE@XZ 1202031f f   XMLRangeFactory.obj
 0001:0001f330       ??1XMLRangeFactory@xercesc_2_8@@UAE@XZ 12020330 f   XMLRangeFactory.obj
 0001:0001f330       ??1RangeFactory@xercesc_2_8@@UAE@XZ 12020330 f   RangeFactory.obj
 0001:0001f330       ??1ASCIIRangeFactory@xercesc_2_8@@UAE@XZ 12020330 f   ASCIIRangeFactory.obj
 0001:0001f330       ??1BlockRangeFactory@xercesc_2_8@@UAE@XZ 12020330 f   BlockRangeFactory.obj
 0001:0001f330       ??1UnicodeRangeFactory@xercesc_2_8@@UAE@XZ 12020330 f   UnicodeRangeFactory.obj
 0001:0001f337       ?buildRanges@XMLRangeFactory@xercesc_2_8@@MAEXPAVRangeTokenMap@2@@Z 12020337 f   XMLRangeFactory.obj
 0001:0001f7f8       ?initializeKeywordMap@XMLRangeFactory@xercesc_2_8@@UAEXPAVRangeTokenMap@2@@Z 120207f8 f   XMLRangeFactory.obj
 0001:0001f860       ?getType@XMLUniCharacter@xercesc_2_8@@SAG_W@Z 12020860 f   XMLUniCharacter.obj
 0001:0001f86e       ??0XMLFormatTarget@xercesc_2_8@@IAE@XZ 1202086e f i LocalFileFormatTarget.obj
 0001:0001f877       ??_EStdOutFormatTarget@xercesc_2_8@@UAEPAXI@Z 12020877 f i StdOutFormatTarget.obj
 0001:0001f877       ??_EXMLFormatTarget@xercesc_2_8@@UAEPAXI@Z 12020877 f i LocalFileFormatTarget.obj
 0001:0001f8c1       ??6XMLFormatter@xercesc_2_8@@QAEAAV01@W4UnRepFlags@01@@Z 120208c1 f i LocalFileFormatTarget.obj
 0001:0001f8cd       ??_ELocalFileFormatTarget@xercesc_2_8@@UAEPAXI@Z 120208cd f i LocalFileFormatTarget.obj
 0001:0001f916       ??0LocalFileFormatTarget@xercesc_2_8@@QAE@QB_WQAVMemoryManager@1@@Z 12020916 f   LocalFileFormatTarget.obj
 0001:0001f9a0       ??0LocalFileFormatTarget@xercesc_2_8@@QAE@QBDQAVMemoryManager@1@@Z 120209a0 f   LocalFileFormatTarget.obj
 0001:0001fa2a       ??1LocalFileFormatTarget@xercesc_2_8@@UAE@XZ 12020a2a f   LocalFileFormatTarget.obj
 0001:0001fa73       ?flush@LocalFileFormatTarget@xercesc_2_8@@UAEXXZ 12020a73 f   LocalFileFormatTarget.obj
 0001:0001fa78       ?writeChars@LocalFileFormatTarget@xercesc_2_8@@UAEXQBEIQAVXMLFormatter@2@@Z 12020a78 f   LocalFileFormatTarget.obj
 0001:0001fac6       ?flushBuffer@LocalFileFormatTarget@xercesc_2_8@@AAEXXZ 12020ac6 f   LocalFileFormatTarget.obj
 0001:0001fb07       ?insureCapacity@LocalFileFormatTarget@xercesc_2_8@@AAE_NI@Z 12020b07 f   LocalFileFormatTarget.obj
 0001:0001fb7c       ??_FInputSource@xercesc_2_8@@QAEXXZ 12020b7c f i LocalFileInputSource.obj
 0001:0001fb88       ??_ELocalFileInputSource@xercesc_2_8@@UAEPAXI@Z 12020b88 f i LocalFileInputSource.obj
 0001:0001fbd7       ??0LocalFileInputSource@xercesc_2_8@@QAE@QB_W0QAVMemoryManager@1@@Z 12020bd7 f   LocalFileInputSource.obj
 0001:0001fc48       ??0LocalFileInputSource@xercesc_2_8@@QAE@QB_WQAVMemoryManager@1@@Z 12020c48 f   LocalFileInputSource.obj
 0001:0001fd23       ??1LocalFileInputSource@xercesc_2_8@@UAE@XZ 12020d23 f   LocalFileInputSource.obj
 0001:0001fd2e       ?makeStream@LocalFileInputSource@xercesc_2_8@@UBEPAVBinInputStream@2@XZ 12020d2e f   LocalFileInputSource.obj
 0001:0001fd88       ??_FMemBufFormatTarget@xercesc_2_8@@QAEXXZ 12020d88 f i MemBufFormatTarget.obj
 0001:0001fd99       ??_EMemBufFormatTarget@xercesc_2_8@@UAEPAXI@Z 12020d99 f i MemBufFormatTarget.obj
 0001:0001fde2       ??0MemBufFormatTarget@xercesc_2_8@@QAE@HQAVMemoryManager@1@@Z 12020de2 f   MemBufFormatTarget.obj
 0001:0001fe2a       ??1MemBufFormatTarget@xercesc_2_8@@UAE@XZ 12020e2a f   MemBufFormatTarget.obj
 0001:0001fe5c       ?writeChars@MemBufFormatTarget@xercesc_2_8@@UAEXQBEIQAVXMLFormatter@2@@Z 12020e5c f   MemBufFormatTarget.obj
 0001:0001fe8a       ?reset@MemBufFormatTarget@xercesc_2_8@@QAEXXZ 12020e8a f   MemBufFormatTarget.obj
 0001:0001feb6       ?insureCapacity@MemBufFormatTarget@xercesc_2_8@@AAEXI@Z 12020eb6 f   MemBufFormatTarget.obj
 0001:0001ff04       ??_EMemBufInputSource@xercesc_2_8@@UAEPAXI@Z 12020f04 f i MemBufInputSource.obj
 0001:0001ff4d       ??0MemBufInputSource@xercesc_2_8@@QAE@QBEIQB_W_NQAVMemoryManager@1@@Z 12020f4d f   MemBufInputSource.obj
 0001:0001ff81       ??0MemBufInputSource@xercesc_2_8@@QAE@QBEIQBD_NQAVMemoryManager@1@@Z 12020f81 f   MemBufInputSource.obj
 0001:0001ffb5       ??1MemBufInputSource@xercesc_2_8@@UAE@XZ 12020fb5 f   MemBufInputSource.obj
 0001:0001fff0       ?resetMemBufInputSource@MemBufInputSource@xercesc_2_8@@QAEXQBEI@Z 12020ff0 f   MemBufInputSource.obj
 0001:00020001       ?makeStream@MemBufInputSource@xercesc_2_8@@UBEPAVBinInputStream@2@XZ 12021001 f   MemBufInputSource.obj
 0001:0002004b       ??_FStdInInputSource@xercesc_2_8@@QAEXXZ 1202104b f i StdInInputSource.obj
 0001:00020057       ??_EStdInInputSource@xercesc_2_8@@UAEPAXI@Z 12021057 f i StdInInputSource.obj
 0001:000200a6       ??0StdInInputSource@xercesc_2_8@@QAE@QAVMemoryManager@1@@Z 120210a6 f i StdInInputSource.obj
 0001:000200c3       ??1StdInInputSource@xercesc_2_8@@UAE@XZ 120210c3 f i StdInInputSource.obj
 0001:000200ce       ?makeStream@StdInInputSource@xercesc_2_8@@UBEPAVBinInputStream@2@XZ 120210ce f   StdInInputSource.obj
 0001:00020135       ??0StdOutFormatTarget@xercesc_2_8@@QAE@XZ 12021135 f   StdOutFormatTarget.obj
 0001:0002013e       ??1XMLFormatTarget@xercesc_2_8@@UAE@XZ 1202113e f   LocalFileFormatTarget.obj
 0001:0002013e       ??1StdOutFormatTarget@xercesc_2_8@@UAE@XZ 1202113e f   StdOutFormatTarget.obj
 0001:00020145       ?flush@StdOutFormatTarget@xercesc_2_8@@UAEXXZ 12021145 f   StdOutFormatTarget.obj
 0001:00020157       ?writeChars@StdOutFormatTarget@xercesc_2_8@@UAEXQBEIQAVXMLFormatter@2@@Z 12021157 f   StdOutFormatTarget.obj
 0001:00020187       ??_EURLInputSource@xercesc_2_8@@UAEPAXI@Z 12021187 f i URLInputSource.obj
 0001:000201d0       ?urlSrc@URLInputSource@xercesc_2_8@@QBEABVXMLURL@2@XZ 120211d0 f i URLInputSource.obj
 0001:000201d4       ??0URLInputSource@xercesc_2_8@@QAE@ABVXMLURL@1@QAVMemoryManager@1@@Z 120211d4 f   URLInputSource.obj
 0001:00020221       ??0URLInputSource@xercesc_2_8@@QAE@QB_W0QAVMemoryManager@1@@Z 12021221 f   URLInputSource.obj
 0001:00020277       ??0URLInputSource@xercesc_2_8@@QAE@QB_W00QAVMemoryManager@1@@Z 12021277 f   URLInputSource.obj
 0001:000202d2       ??0URLInputSource@xercesc_2_8@@QAE@QB_WQBDQAVMemoryManager@1@@Z 120212d2 f   URLInputSource.obj
 0001:00020328       ??0URLInputSource@xercesc_2_8@@QAE@QB_WQBD1QAVMemoryManager@1@@Z 12021328 f   URLInputSource.obj
 0001:00020383       ??1URLInputSource@xercesc_2_8@@UAE@XZ 12021383 f   URLInputSource.obj
 0001:000203bd       ?makeStream@URLInputSource@xercesc_2_8@@UBEPAVBinInputStream@2@XZ 120213bd f   URLInputSource.obj
 0001:000203c5       ??_EWrapper4DOMInputSource@xercesc_2_8@@UAEPAXI@Z 120213c5 f i Wrapper4DOMInputSource.obj
 0001:0002040e       ??0DOMInputSource@xercesc_2_8@@IAE@XZ 1202140e f i Wrapper4DOMInputSource.obj
 0001:00020417       ??1DOMInputSource@xercesc_2_8@@UAE@XZ 12021417 f i Wrapper4DOMInputSource.obj
 0001:0002041e       ??_EDOMInputSource@xercesc_2_8@@UAEPAXI@Z 1202141e f i Wrapper4DOMInputSource.obj
 0001:00020468       ??0Wrapper4DOMInputSource@xercesc_2_8@@QAE@QAVDOMInputSource@1@_NQAVMemoryManager@1@@Z 12021468 f   Wrapper4DOMInputSource.obj
 0001:000204c7       ??1Wrapper4DOMInputSource@xercesc_2_8@@UAE@XZ 120214c7 f   Wrapper4DOMInputSource.obj
 0001:00020506       ?getIssueFatalErrorIfNotFound@Wrapper4DOMInputSource@xercesc_2_8@@UBE_NXZ 12021506 f   Wrapper4DOMInputSource.obj
 0001:0002050e       ?getEncoding@Wrapper4DOMInputSource@xercesc_2_8@@UBEPB_WXZ 1202150e f   Wrapper4DOMInputSource.obj
 0001:00020516       ?getSystemId@Wrapper4DOMInputSource@xercesc_2_8@@UBEPB_WXZ 12021516 f   Wrapper4DOMInputSource.obj
 0001:0002051e       ?getPublicId@Wrapper4DOMInputSource@xercesc_2_8@@UBEPB_WXZ 1202151e f   Wrapper4DOMInputSource.obj
 0001:00020526       ?setIssueFatalErrorIfNotFound@Wrapper4DOMInputSource@xercesc_2_8@@UAEX_N@Z 12021526 f   Wrapper4DOMInputSource.obj
 0001:0002052e       ?setEncoding@Wrapper4DOMInputSource@xercesc_2_8@@UAEXQB_W@Z 1202152e f   Wrapper4DOMInputSource.obj
 0001:00020536       ?setPublicId@Wrapper4DOMInputSource@xercesc_2_8@@UAEXQB_W@Z 12021536 f   Wrapper4DOMInputSource.obj
 0001:0002053e       ?setSystemId@Wrapper4DOMInputSource@xercesc_2_8@@UAEXQB_W@Z 1202153e f   Wrapper4DOMInputSource.obj
 0001:00020546       ?makeStream@Wrapper4DOMInputSource@xercesc_2_8@@UBEPAVBinInputStream@2@XZ 12021546 f   Wrapper4DOMInputSource.obj
 0001:0002054e       ??_EWrapper4InputSource@xercesc_2_8@@UAEPAXI@Z 1202154e f i Wrapper4InputSource.obj
 0001:00020597       ??0Wrapper4InputSource@xercesc_2_8@@QAE@QAVInputSource@1@_NQAVMemoryManager@1@@Z 12021597 f   Wrapper4InputSource.obj
 0001:000205ec       ??1Wrapper4InputSource@xercesc_2_8@@UAE@XZ 120215ec f   Wrapper4InputSource.obj
 0001:00020626       ?getIssueFatalErrorIfNotFound@Wrapper4InputSource@xercesc_2_8@@UBE_NXZ 12021626 f   Wrapper4InputSource.obj
 0001:0002062e       ?setIssueFatalErrorIfNotFound@Wrapper4InputSource@xercesc_2_8@@UAEX_N@Z 1202162e f   Wrapper4InputSource.obj
 0001:00020636       ?setEncoding@Wrapper4InputSource@xercesc_2_8@@UAEXQB_W@Z 12021636 f   Wrapper4InputSource.obj
 0001:0002063e       ?setPublicId@Wrapper4InputSource@xercesc_2_8@@UAEXQB_W@Z 1202163e f   Wrapper4InputSource.obj
 0001:00020646       ?setSystemId@Wrapper4InputSource@xercesc_2_8@@UAEXQB_W@Z 12021646 f   Wrapper4InputSource.obj
 0001:0002064e       ?hasMoreElements@DTDAttDefList@xercesc_2_8@@UBE_NXZ 1202164e f   DTDAttDefList.obj
 0001:0002064e       ?makeStream@Wrapper4InputSource@xercesc_2_8@@UBEPAVBinInputStream@2@XZ 1202164e f   Wrapper4InputSource.obj
 0001:0002064e       ?hasMoreElements@SchemaAttDefList@xercesc_2_8@@UBE_NXZ 1202164e f   SchemaAttDefList.obj
 0001:00020656       ??_FXMLAttDef@xercesc_2_8@@QAEXXZ 12021656 f i XMLAttDef.obj
 0001:00020666       ??_EXMLAttDef@xercesc_2_8@@UAEPAXI@Z 12021666 f i XMLAttDef.obj
 0001:000206af       ?setEnumeration@XMLAttDef@xercesc_2_8@@QAEXQB_W@Z 120216af f i XMLAttDef.obj
 0001:000206d7       ?setNameSpaceId@XMLNotationDecl@xercesc_2_8@@QAEXI@Z 120216d7 f i XMLDTDDescription.obj
 0001:000206d7       ?setContextType@XMLSchemaDescriptionImpl@xercesc_2_8@@UAEXW4ContextType@XMLSchemaDescription@2@@Z 120216d7 f i XMLSchemaDescriptionImpl.obj
 0001:000206d7       ?setFinalDefault@SchemaInfo@xercesc_2_8@@QAEXH@Z 120216d7 f i IGXMLScanner2.obj
 0001:000206d7       ?setErrorHandler@DOMConfigurationImpl@xercesc_2_8@@QAEXPAVDOMErrorHandler@2@@Z 120216d7 f i DOMConfigurationImpl.obj
 0001:000206d7       ?setErrorReporter@XMLValidator@xercesc_2_8@@QAEXQAVXMLErrorReporter@2@@Z 120216d7 f i XMLValidator.obj
 0001:000206d7       ?setColumnNumber@DOMLocatorImpl@xercesc_2_8@@UAEXJ@Z 120216d7 f i DOMBuilderImpl.obj
 0001:000206d7       ?setErrorReporter@XSDErrorReporter@xercesc_2_8@@QAEXQAVXMLErrorReporter@2@@Z 120216d7 f i IGXMLScanner.obj
 0001:000206d7       ?setScope@XercesGroupInfo@xercesc_2_8@@QAEXH@Z 120216d7 f i XSModel.obj
 0001:000206d7       ?setMessage@DOMErrorImpl@xercesc_2_8@@UAEXQB_W@Z 120216d7 f i DOMBuilderImpl.obj
 0001:000206d7       ?setType@XMLAttDef@xercesc_2_8@@QAEXW4AttTypes@12@@Z 120216d7 f i XMLAttDef.obj
 0001:000206e1       ?setValue@XMLAttDef@xercesc_2_8@@QAEXQB_W@Z 120216e1 f i XMLAttDef.obj
 0001:00020709       ?setExternalAttDeclaration@XMLAttDef@xercesc_2_8@@QAEX_N@Z 12021709 f i XMLAttDef.obj
 0001:00020713       ?getAttTypeString@XMLAttDef@xercesc_2_8@@SAPB_WW4AttTypes@12@QAVMemoryManager@2@@Z 12021713 f   XMLAttDef.obj
 0001:0002074d       ?getDefAttTypeString@XMLAttDef@xercesc_2_8@@SAPB_WW4DefAttTypes@12@QAVMemoryManager@2@@Z 1202174d f   XMLAttDef.obj
 0001:00020787       ??1XMLAttDef@xercesc_2_8@@UAE@XZ 12021787 f   XMLAttDef.obj
 0001:000207b3       ??0XMLAttDef@xercesc_2_8@@IAE@W4AttTypes@01@W4DefAttTypes@01@QAVMemoryManager@1@@Z 120217b3 f   XMLAttDef.obj
 0001:000207eb       ??0XMLAttDef@xercesc_2_8@@IAE@QB_WW4AttTypes@01@W4DefAttTypes@01@0QAVMemoryManager@1@@Z 120217eb f   XMLAttDef.obj
 0001:0002087e       ?cleanUp@XMLAttDef@xercesc_2_8@@AAEXXZ 1202187e f   XMLAttDef.obj
 0001:000208a3       ?getProtoType@XMLAttDef@xercesc_2_8@@UBEPAVXProtoType@2@XZ 120218a3 f   XMLAttDef.obj
 0001:000208a9       ?serialize@XMLAttDef@xercesc_2_8@@UAEXAAVXSerializeEngine@2@@Z 120218a9 f   XMLAttDef.obj
 0001:00020984       ??_FXMLAttDefList@xercesc_2_8@@QAEXXZ 12021984 f i XMLAttDefList.obj
 0001:00020993       ??0XMLAttDefList@xercesc_2_8@@IAE@QAVMemoryManager@1@@Z 12021993 f i XMLAttDefList.obj
 0001:000209a5       ?getProtoType@XMLAttDefList@xercesc_2_8@@UBEPAVXProtoType@2@XZ 120219a5 f   XMLAttDefList.obj
 0001:000209ab       ?getParseContext@RegxParser@xercesc_2_8@@QBEGXZ 120219ab f i ParserForXMLSchema.obj
 0001:000209ab       ?getFinal@XSTypeDefinition@xercesc_2_8@@QBEFXZ 120219ab f i XMLAttr.obj
 0001:000209b0       ?getPrimitiveType@XSSimpleTypeDefinition@xercesc_2_8@@QAEPAV12@XZ 120219b0 f i XMLAttr.obj
 0001:000209bd       ?getItemType@XSSimpleTypeDefinition@xercesc_2_8@@QAEPAV12@XZ 120219bd f i XMLAttr.obj
 0001:000209ca       ?getValidSubstitutionGroups@SchemaGrammar@xercesc_2_8@@QBEPAV?$RefHash2KeysTableOf@V?$ValueVectorOf@PAVSchemaElementDecl@xercesc_2_8@@@xercesc_2_8@@@2@XZ 120219ca f i XSAttributeDeclaration.obj
 0001:000209ca       ?getSimpleType@XSComplexTypeDefinition@xercesc_2_8@@QBEPAVXSSimpleTypeDefinition@2@XZ 120219ca f i PSVIElement.obj
 0001:000209ca       ?getPrefix@DOMAttrNSImpl@xercesc_2_8@@UBEPB_WXZ 120219ca f i DOMAttrNSImpl.obj
 0001:000209ca       ?getTagName@DOMElementImpl@xercesc_2_8@@UBEPB_WXZ 120219ca f i DOMElementImpl.obj
 0001:000209ca       ?getActualEncoding@DOMDocumentImpl@xercesc_2_8@@UBEPB_WXZ 120219ca f i DOMDocumentImpl.obj
 0001:000209ca       ?getEmptyNamespaceId@XMLScanner@xercesc_2_8@@QBEIXZ 120219ca f i XMLValidator.obj
 0001:000209ca       ?getDatatypeValidator@XSSimpleTypeDefinition@xercesc_2_8@@QBEPAVDatatypeValidator@2@XZ 120219ca f i XMLAttr.obj
 0001:000209ca       ?getEntityRef@DOMEntityImpl@xercesc_2_8@@UBEPAVDOMEntityReference@2@XZ 120219ca f i DOMEntityImpl.obj
 0001:000209ca       ?getTypeName@ComplexTypeInfo@xercesc_2_8@@QBEPA_WXZ 120219ca f i XMLElementDecl.obj
 0001:000209ca       ?getAnnotation@XSElementDeclaration@xercesc_2_8@@QBEPAVXSAnnotation@2@XZ 120219ca f i PSVIElement.obj
 0001:000209ca       ?getValidationAttempted@SchemaAttDef@xercesc_2_8@@QBE?AW4Validation@PSVIDefs@2@XZ 120219ca f i XMLElementDecl.obj
 0001:000209ca       ?getFinalSet@SchemaElementDecl@xercesc_2_8@@QBEHXZ 120219ca f i XMLElementDecl.obj
 0001:000209ca       ?getAttributeDeclaration@PSVIAttribute@xercesc_2_8@@QAEPAVXSAttributeDeclaration@2@XZ 120219ca f i PSVIAttribute.obj
 0001:000209ca       ?getRegex@DatatypeValidator@xercesc_2_8@@IBEPAVRegularExpression@2@XZ 120219ca f i XMLAttr.obj
 0001:000209ca       ?getNotations@DOMDocumentTypeImpl@xercesc_2_8@@UBEPAVDOMNamedNodeMap@2@XZ 120219ca f i DOMDocumentTypeImpl.obj
 0001:000209ca       ?getNodeName@DOMElementImpl@xercesc_2_8@@UBEPB_WXZ 120219ca f i DOMElementImpl.obj
 0001:000209ca       ?getElementDeclaration@PSVIElement@xercesc_2_8@@QAEPAVXSElementDeclaration@2@XZ 120219ca f i PSVIElement.obj
 0001:000209ce       ??1ValidationContext@xercesc_2_8@@UAE@XZ 120219ce f i XMLAttr.obj
 0001:000209d5       ??0ValidationContext@xercesc_2_8@@IAE@QAVMemoryManager@1@@Z 120219d5 f i XMLAttr.obj
 0001:000209e7       ??_FValidationContext@xercesc_2_8@@QAEXXZ 120219e7 f i XMLAttr.obj
 0001:000209f6       ??_EValidationContext@xercesc_2_8@@UAEPAXI@Z 120219f6 f i XMLAttr.obj
 0001:00020a40       ?getWSFacet@DatatypeValidator@xercesc_2_8@@QBEFXZ 12021a40 f i XMLAttr.obj
 0001:00020a40       ?getOpType@Op@xercesc_2_8@@QBEFXZ 12021a40 f i Op.obj
 0001:00020a45       ?getPSVIScope@SchemaAttDef@xercesc_2_8@@QBE?AW4PSVIScope@PSVIDefs@2@XZ 12021a45 f i XMLElementDecl.obj
 0001:00020a45       ?getBlockSet@SchemaElementDecl@xercesc_2_8@@QBEHXZ 12021a45 f i XMLElementDecl.obj
 0001:00020a45       ?getTypeLocalName@ComplexTypeInfo@xercesc_2_8@@QBEPB_WXZ 12021a45 f i XMLElementDecl.obj
 0001:00020a45       ?getUnknownNamespaceId@XMLScanner@xercesc_2_8@@QBEIXZ 12021a45 f i XMLValidator.obj
 0001:00020a45       ?getActualEncoding@DOMEntityImpl@xercesc_2_8@@UBEPB_WXZ 12021a45 f i DOMEntityImpl.obj
 0001:00020a45       ?getDocument@AbstractDOMParser@xercesc_2_8@@QAEPAVDOMDocument@2@XZ 12021a45 f i AbstractDOMParser.obj
 0001:00020a45       ?getIdentityConstraints@XSElementDeclaration@xercesc_2_8@@QAEPAV?$XSNamedMap@VXSIDCDefinition@xercesc_2_8@@@2@XZ 12021a45 f i PSVIElement.obj
 0001:00020a45       ?getBaseURI@DOMDocumentImpl@xercesc_2_8@@UBEPB_WXZ 12021a45 f i DOMDocumentImpl.obj
 0001:00020a45       ?getFacets@XSSimpleTypeDefinition@xercesc_2_8@@QAEPAV?$RefVectorOf@VXSFacet@xercesc_2_8@@@2@XZ 12021a45 f i XMLAttr.obj
 0001:00020a45       ?getTokenFactory@RegxParser@xercesc_2_8@@QBEPAVTokenFactory@2@XZ 12021a45 f i ParserForXMLSchema.obj
 0001:00020a45       ?getEncoding@DOMDocumentImpl@xercesc_2_8@@UBEPB_WXZ 12021a45 f i DOMDocumentImpl.obj
 0001:00020a45       ?getNotationDeclaration@PSVIElement@xercesc_2_8@@QAEPAVXSNotationDeclaration@2@XZ 12021a45 f i PSVIElement.obj
 0001:00020a45       ?getTypeName@DatatypeValidator@xercesc_2_8@@QBEPB_WXZ 12021a45 f i XMLAttr.obj
 0001:00020a45       ?getElements@DOMDocumentTypeImpl@xercesc_2_8@@UBEPAVDOMNamedNodeMap@2@XZ 12021a45 f i DOMDocumentTypeImpl.obj
 0001:00020a45       ?getAnnotations@XSComplexTypeDefinition@xercesc_2_8@@QAEPAV?$RefVectorOf@VXSAnnotation@xercesc_2_8@@@2@XZ 12021a45 f i XSComplexTypeDefinition.obj
 0001:00020a45       ?getNamespaceURI@DOMElementNSImpl@xercesc_2_8@@UBEPB_WXZ 12021a45 f i DOMElementNSImpl.obj
 0001:00020a45       ?getValidationContext@SchemaGrammar@xercesc_2_8@@QBEPAVValidationContext@2@XZ 12021a45 f i XSAttributeDeclaration.obj
 0001:00020a49       ?getMultiValueFacets@XSSimpleTypeDefinition@xercesc_2_8@@QAEPAV?$RefVectorOf@VXSMultiValueFacet@xercesc_2_8@@@2@XZ 12021a49 f i XMLAttr.obj
 0001:00020a49       ?getXMLNamespaceId@XMLScanner@xercesc_2_8@@QBEIXZ 12021a49 f i XMLValidator.obj
 0001:00020a49       ?getTypeLocalName@DatatypeValidator@xercesc_2_8@@QBEPB_WXZ 12021a49 f i XMLAttr.obj
 0001:00020a49       ?getDocumentHandler@SAXParser@xercesc_2_8@@QBEPBVDocumentHandler@2@XZ 12021a49 f i SAX2XMLReaderImpl.obj
 0001:00020a49       ?getEncoding@DOMEntityImpl@xercesc_2_8@@UBEPB_WXZ 12021a49 f i DOMEntityImpl.obj
 0001:00020a49       ?getDocumentHandler@SAXParser@xercesc_2_8@@QAEPAVDocumentHandler@2@XZ 12021a49 f i SAX2XMLReaderImpl.obj
 0001:00020a49       ?getSchemaInformation@PSVIElement@xercesc_2_8@@QAEPAVXSModel@2@XZ 12021a49 f i PSVIElement.obj
 0001:00020a49       ?getTypeUri@ComplexTypeInfo@xercesc_2_8@@QBEPB_WXZ 12021a49 f i XMLElementDecl.obj
 0001:00020a49       ?getMiscFlags@SchemaElementDecl@xercesc_2_8@@QBEHXZ 12021a49 f i XMLElementDecl.obj
 0001:00020a49       ?getAttName@SchemaAttDef@xercesc_2_8@@QBEPAVQName@2@XZ 12021a49 f i XMLElementDecl.obj
 0001:00020a49       ?getLocalName@DOMElementNSImpl@xercesc_2_8@@UBEPB_WXZ 12021a49 f i DOMElementNSImpl.obj
 0001:00020a49       ?getPublicId@DOMDocumentTypeImpl@xercesc_2_8@@UBEPB_WXZ 12021a49 f i DOMDocumentTypeImpl.obj
 0001:00020a49       ?getParticle@XSComplexTypeDefinition@xercesc_2_8@@QBEPAVXSParticle@2@XZ 12021a49 f i PSVIElement.obj
 0001:00020a4d       ?getBounded@DatatypeValidator@xercesc_2_8@@QBE_NXZ 12021a4d f i XMLAttr.obj
 0001:00020a4d       ?getAdoptContentSpec@ComplexTypeInfo@xercesc_2_8@@QBE_NXZ 12021a4d f i XMLElementDecl.obj
 0001:00020a51       ?containsAttWithTypeId@ComplexTypeInfo@xercesc_2_8@@QBE_NXZ 12021a51 f i XMLElementDecl.obj
 0001:00020a51       ?getNumeric@DatatypeValidator@xercesc_2_8@@QBE_NXZ 12021a51 f i XMLAttr.obj
 0001:00020a55       ?setFacetsDefined@DatatypeValidator@xercesc_2_8@@IAEXH@Z 12021a55 f i XMLAttr.obj
 0001:00020a5f       ?setFixed@DatatypeValidator@xercesc_2_8@@IAEXH@Z 12021a5f f i XMLAttr.obj
 0001:00020a69       ?setPattern@DatatypeValidator@xercesc_2_8@@IAEXPB_W@Z 12021a69 f i XMLAttr.obj
 0001:00020ae6       ?setFinalSet@SchemaElementDecl@xercesc_2_8@@QAEXH@Z 12021ae6 f i XMLElementDecl.obj
 0001:00020ae6       ?setEntityRef@DOMEntityImpl@xercesc_2_8@@UAEXPAVDOMEntityReference@2@@Z 12021ae6 f i DOMEntityImpl.obj
 0001:00020ae6       ?setRegex@DatatypeValidator@xercesc_2_8@@IAEXQAVRegularExpression@2@@Z 12021ae6 f i XMLAttr.obj
 0001:00020ae6       ?setValidationAttempted@SchemaAttDef@xercesc_2_8@@QAEXW4Validation@PSVIDefs@2@@Z 12021ae6 f i XMLElementDecl.obj
 0001:00020ae6       ?setValidSubstitutionGroups@SchemaGrammar@xercesc_2_8@@QAEXQAV?$RefHash2KeysTableOf@V?$ValueVectorOf@PAVSchemaElementDecl@xercesc_2_8@@@xercesc_2_8@@@2@@Z 12021ae6 f i XSAttributeDeclaration.obj
 0001:00020af0       ?isSerializable@XMLAbstractDoubleFloat@xercesc_2_8@@UBE_NXZ 12021af0 f i XMLAbstractDoubleFloat.obj
 0001:00020af0       ?isSerializable@XMLNotationDecl@xercesc_2_8@@UBE_NXZ 12021af0 f i XMLNotationDecl.obj
 0001:00020af0       ?isSerializable@DateTimeDatatypeValidator@xercesc_2_8@@UBE_NXZ 12021af0 f i DateTimeDatatypeValidator.obj
 0001:00020af0       ?isSerializable@XMLUri@xercesc_2_8@@UBE_NXZ 12021af0 f i XMLUri.obj
 0001:00020af0       ?isSerializable@DTDAttDefList@xercesc_2_8@@UBE_NXZ 12021af0 f i DTDAttDefList.obj
 0001:00020af0       ?isSerializable@DTDGrammar@xercesc_2_8@@UBE_NXZ 12021af0 f i DTDGrammar.obj
 0001:00020af0       ?isSerializable@XercesNodeTest@xercesc_2_8@@UBE_NXZ 12021af0 f i XercesXPath.obj
 0001:00020af0       ?isSerializable@XSAnnotation@xercesc_2_8@@UBE_NXZ 12021af0 f i XSAnnotation.obj
 0001:00020af0       ?isSerializable@XMLFloat@xercesc_2_8@@UBE_NXZ 12021af0 f i XMLFloat.obj
 0001:00020af0       ?isSerializable@XercesStep@xercesc_2_8@@UBE_NXZ 12021af0 f i XercesXPath.obj
 0001:00020af0       ?isSerializable@XercesXPath@xercesc_2_8@@UBE_NXZ 12021af0 f i XercesXPath.obj
 0001:00020af0       ?isSerializable@TimeDatatypeValidator@xercesc_2_8@@UBE_NXZ 12021af0 f i TimeDatatypeValidator.obj
 0001:00020af0       ?isSerializable@XMLBigDecimal@xercesc_2_8@@UBE_NXZ 12021af0 f i XMLBigDecimal.obj
 0001:00020af0       ?isSerializable@DTDEntityDecl@xercesc_2_8@@UBE_NXZ 12021af0 f i DTDEntityDecl.obj
 0001:00020af0       ?isSerializable@XMLSchemaDescription@xercesc_2_8@@UBE_NXZ 12021af0 f i XMLSchemaDescription.obj
 0001:00020af0       ?handlesDTD@DTDValidator@xercesc_2_8@@UBE_NXZ 12021af0 f i DGXMLScanner.obj
 0001:00020af0       ?isSerializable@XMLEntityDecl@xercesc_2_8@@UBE_NXZ 12021af0 f i XMLEntityDecl.obj
 0001:00020af0       ?isSerializable@AbstractNumericFacetValidator@xercesc_2_8@@UBE_NXZ 12021af0 f i AbstractNumericFacetValidator.obj
 0001:00020af0       ?isSerializable@AbstractNumericValidator@xercesc_2_8@@UBE_NXZ 12021af0 f i AbstractNumericValidator.obj
 0001:00020af0       ?isSerializable@XMLNumber@xercesc_2_8@@UBE_NXZ 12021af0 f i XMLNumber.obj
 0001:00020af0       ?isSerializable@UnionDatatypeValidator@xercesc_2_8@@UBE_NXZ 12021af0 f i UnionDatatypeValidator.obj
 0001:00020af0       ?isSerializable@DatatypeValidator@xercesc_2_8@@UBE_NXZ 12021af0 f i DatatypeValidator.obj
 0001:00020af0       ?isSerializable@SchemaAttDef@xercesc_2_8@@UBE_NXZ 12021af0 f i SchemaAttDef.obj
 0001:00020af0       ?isSerializable@IC_KeyRef@xercesc_2_8@@UBE_NXZ 12021af0 f i IC_KeyRef.obj
 0001:00020af0       ?isSerializable@KVStringPair@xercesc_2_8@@UBE_NXZ 12021af0 f i KVStringPair.obj
 0001:00020af0       ?handlesSchema@SchemaValidator@xercesc_2_8@@UBE_NXZ 12021af0 f i IGXMLScanner.obj
 0001:00020af0       ?isSerializable@XercesGroupInfo@xercesc_2_8@@UBE_NXZ 12021af0 f i XercesGroupInfo.obj
 0001:00020af0       ?isSerializable@ComplexTypeInfo@xercesc_2_8@@UBE_NXZ 12021af0 f i ComplexTypeInfo.obj
 0001:00020af0       ?isSerializable@DayDatatypeValidator@xercesc_2_8@@UBE_NXZ 12021af0 f i DayDatatypeValidator.obj
 0001:00020af0       ?isSerializable@IDDatatypeValidator@xercesc_2_8@@UBE_NXZ 12021af0 f i IDDatatypeValidator.obj
 0001:00020af0       ?isSerializable@IC_Field@xercesc_2_8@@UBE_NXZ 12021af0 f i IC_Field.obj
 0001:00020af0       ?isSerializable@IDREFDatatypeValidator@xercesc_2_8@@UBE_NXZ 12021af0 f i IDREFDatatypeValidator.obj
 0001:00020af0       ?isSerializable@XMLSchemaDescriptionImpl@xercesc_2_8@@UBE_NXZ 12021af0 f i XMLSchemaDescriptionImpl.obj
 0001:00020af0       ?isSerializable@XMLDouble@xercesc_2_8@@UBE_NXZ 12021af0 f i XMLDouble.obj
 0001:00020af0       ?isSerializable@FloatDatatypeValidator@xercesc_2_8@@UBE_NXZ 12021af0 f i FloatDatatypeValidator.obj
 0001:00020af0       ?isSerializable@AbstractStringValidator@xercesc_2_8@@UBE_NXZ 12021af0 f i AbstractStringValidator.obj
 0001:00020af0       ?isSerializable@AnySimpleTypeDatatypeValidator@xercesc_2_8@@UBE_NXZ 12021af0 f i AnySimpleTypeDatatypeValidator.obj
 0001:00020af0       ?isSerializable@YearMonthDatatypeValidator@xercesc_2_8@@UBE_NXZ 12021af0 f i YearMonthDatatypeValidator.obj
 0001:00020af0       ?isSerializable@IC_Key@xercesc_2_8@@UBE_NXZ 12021af0 f i IC_Key.obj
 0001:00020af0       ?isSerializable@DecimalDatatypeValidator@xercesc_2_8@@UBE_NXZ 12021af0 f i DecimalDatatypeValidator.obj
 0001:00020af0       ?isSerializable@SchemaGrammar@xercesc_2_8@@UBE_NXZ 12021af0 f i SchemaGrammar.obj
 0001:00020af0       ?isSerializable@XMLDTDDescriptionImpl@xercesc_2_8@@UBE_NXZ 12021af0 f i XMLDTDDescriptionImpl.obj
 0001:00020af0       ?isSerializable@DTDAttDef@xercesc_2_8@@UBE_NXZ 12021af0 f i DTDAttDef.obj
 0001:00020af0       ?isSerializable@QName@xercesc_2_8@@UBE_NXZ 12021af0 f i QName.obj
 0001:00020af0       ?isSerializable@XMLStringPool@xercesc_2_8@@UBE_NXZ 12021af0 f i StringPool.obj
 0001:00020af0       ?isSerializable@BooleanDatatypeValidator@xercesc_2_8@@UBE_NXZ 12021af0 f i BooleanDatatypeValidator.obj
 0001:00020af0       ?isAtomic@DatatypeValidator@xercesc_2_8@@UBE_NXZ 12021af0 f i XMLAttr.obj
 0001:00020af0       ?isSerializable@AnyURIDatatypeValidator@xercesc_2_8@@UBE_NXZ 12021af0 f i AnyURIDatatypeValidator.obj
 0001:00020af0       ?isSerializable@DateDatatypeValidator@xercesc_2_8@@UBE_NXZ 12021af0 f i DateDatatypeValidator.obj
 0001:00020af0       ?isSerializable@IC_Selector@xercesc_2_8@@UBE_NXZ 12021af0 f i IC_Selector.obj
 0001:00020af0       ?isSerializable@DatatypeValidatorFactory@xercesc_2_8@@UBE_NXZ 12021af0 f i DatatypeValidatorFactory.obj
 0001:00020af0       ?isSerializable@StringDatatypeValidator@xercesc_2_8@@UBE_NXZ 12021af0 f i StringDatatypeValidator.obj
 0001:00020af0       ?isSerializable@DateTimeValidator@xercesc_2_8@@UBE_NXZ 12021af0 f i DateTimeValidator.obj
 0001:00020af0       ?isSerializable@XercesAttGroupInfo@xercesc_2_8@@UBE_NXZ 12021af0 f i XercesAttGroupInfo.obj
 0001:00020af0       ?isSerializable@XMLDateTime@xercesc_2_8@@UBE_NXZ 12021af0 f i XMLDateTime.obj
 0001:00020af0       ?isSerializable@XMLGrammarDescription@xercesc_2_8@@UBE_NXZ 12021af0 f i XMLGrammarDescription.obj
 0001:00020af0       ?isSerializable@ContentSpecNode@xercesc_2_8@@UBE_NXZ 12021af0 f i ContentSpecNode.obj
 0001:00020af0       ?isSerializable@ENTITYDatatypeValidator@xercesc_2_8@@UBE_NXZ 12021af0 f i ENTITYDatatypeValidator.obj
 0001:00020af0       ?isSerializable@XMLAttDefList@xercesc_2_8@@UBE_NXZ 12021af0 f i XMLAttDefList.obj
 0001:00020af0       ?isSerializable@Grammar@xercesc_2_8@@UBE_NXZ 12021af0 f i Grammar.obj
 0001:00020af0       ?isSerializable@XMLRefInfo@xercesc_2_8@@UBE_NXZ 12021af0 f i XMLRefInfo.obj
 0001:00020af0       ?supportsSrcOfs@Win32TransService@xercesc_2_8@@UBE_NXZ 12021af0 f i Win32TransService.obj
 0001:00020af0       ?isSerializable@HexBinaryDatatypeValidator@xercesc_2_8@@UBE_NXZ 12021af0 f i HexBinaryDatatypeValidator.obj
 0001:00020af0       ?isSerializable@SchemaAttDefList@xercesc_2_8@@UBE_NXZ 12021af0 f i SchemaAttDefList.obj
 0001:00020af0       ?isSerializable@DoubleDatatypeValidator@xercesc_2_8@@UBE_NXZ 12021af0 f i DoubleDatatypeValidator.obj
 0001:00020af0       ?isSerializable@XMLDTDDescription@xercesc_2_8@@UBE_NXZ 12021af0 f i XMLDTDDescription.obj
 0001:00020af0       ?requiresNamespaces@SchemaValidator@xercesc_2_8@@UBE_NXZ 12021af0 f i SchemaValidator.obj
 0001:00020af0       ?isSerializable@SchemaElementDecl@xercesc_2_8@@UBE_NXZ 12021af0 f i SchemaElementDecl.obj
 0001:00020af0       ?isSerializable@QNameDatatypeValidator@xercesc_2_8@@UBE_NXZ 12021af0 f i QNameDatatypeValidator.obj
 0001:00020af0       ?isSerializable@DurationDatatypeValidator@xercesc_2_8@@UBE_NXZ 12021af0 f i DurationDatatypeValidator.obj
 0001:00020af0       ?isSerializable@IC_Unique@xercesc_2_8@@UBE_NXZ 12021af0 f i IC_Unique.obj
 0001:00020af0       ?isSerializable@XMLAttDef@xercesc_2_8@@UBE_NXZ 12021af0 f i XMLAttDef.obj
 0001:00020af0       ?isSerializable@NCNameDatatypeValidator@xercesc_2_8@@UBE_NXZ 12021af0 f i NCNameDatatypeValidator.obj
 0001:00020af0       ?isSerializable@DTDElementDecl@xercesc_2_8@@UBE_NXZ 12021af0 f i DTDElementDecl.obj
 0001:00020af0       ?isSerializable@MonthDayDatatypeValidator@xercesc_2_8@@UBE_NXZ 12021af0 f i MonthDayDatatypeValidator.obj
 0001:00020af0       ?isSerializable@XMLElementDecl@xercesc_2_8@@UBE_NXZ 12021af0 f i XMLElementDecl.obj
 0001:00020af0       ?isSerializable@YearDatatypeValidator@xercesc_2_8@@UBE_NXZ 12021af0 f i YearDatatypeValidator.obj
 0001:00020af0       ?isSerializable@MonthDatatypeValidator@xercesc_2_8@@UBE_NXZ 12021af0 f i MonthDatatypeValidator.obj
 0001:00020af0       ?isSerializable@IdentityConstraint@xercesc_2_8@@UBE_NXZ 12021af0 f i IdentityConstraint.obj
 0001:00020af0       ?isSerializable@NOTATIONDatatypeValidator@xercesc_2_8@@UBE_NXZ 12021af0 f i NOTATIONDatatypeValidator.obj
 0001:00020af0       ?isSerializable@ListDatatypeValidator@xercesc_2_8@@UBE_NXZ 12021af0 f i ListDatatypeValidator.obj
 0001:00020af0       ?isSerializable@Base64BinaryDatatypeValidator@xercesc_2_8@@UBE_NXZ 12021af0 f i Base64BinaryDatatypeValidator.obj
 0001:00020af0       ?isSerializable@XercesLocationPath@xercesc_2_8@@UBE_NXZ 12021af0 f i XercesXPath.obj
 0001:00020af0       ?isSerializable@NameDatatypeValidator@xercesc_2_8@@UBE_NXZ 12021af0 f i NameDatatypeValidator.obj
 0001:00020af3       ?setBounded@DatatypeValidator@xercesc_2_8@@IAEX_N@Z 12021af3 f i XMLAttr.obj
 0001:00020af3       ?setAdoptContentSpec@ComplexTypeInfo@xercesc_2_8@@QAEX_N@Z 12021af3 f i XMLElementDecl.obj
 0001:00020afd       ?isSubstitutableBy@DatatypeValidator@xercesc_2_8@@UAE_NQBV12@@Z 12021afd f i XMLAttr.obj
 0001:00020b17       ??_FXMLAttr@xercesc_2_8@@QAEXXZ 12021b17 f i XMLAttr.obj
 0001:00020b23       ??1XMLAttr@xercesc_2_8@@QAE@XZ 12021b23 f i XMLAttr.obj
 0001:00020b28       ?getName@XMLAttr@xercesc_2_8@@QBEPB_WXZ 12021b28 f i XMLAttr.obj
 0001:00020b2f       ?getPrefix@XMLAttr@xercesc_2_8@@QBEPB_WXZ 12021b2f f i XMLAttr.obj
 0001:00020b36       ?getSpecified@XMLAttr@xercesc_2_8@@QBE_NXZ 12021b36 f i XMLAttr.obj
 0001:00020b39       ?getURIId@XMLAttr@xercesc_2_8@@QBEIXZ 12021b39 f i XMLAttr.obj
 0001:00020b40       ?getValidatingTypeName@XMLAttr@xercesc_2_8@@QBEPB_WXZ 12021b40 f i XMLAttr.obj
 0001:00020b68       ?getValidatingTypeURI@XMLAttr@xercesc_2_8@@QBEPB_WXZ 12021b68 f i XMLAttr.obj
 0001:00020b82       ?set@XMLAttr@xercesc_2_8@@QAEXIQB_W00W4AttTypes@XMLAttDef@2@PAVDatatypeValidator@2@_N@Z 12021b82 f i XMLAttr.obj
 0001:00020bba       ?set@XMLAttr@xercesc_2_8@@QAEXIQB_W0W4AttTypes@XMLAttDef@2@PAVDatatypeValidator@2@_N@Z 12021bba f i XMLAttr.obj
 0001:00020bef       ?setSpecified@XMLAttr@xercesc_2_8@@QAEX_N@Z 12021bef f i XMLAttr.obj
 0001:00020bf8       ??0XMLAttr@xercesc_2_8@@QAE@QAVMemoryManager@1@@Z 12021bf8 f   XMLAttr.obj
 0001:00020c3f       ??0XMLAttr@xercesc_2_8@@QAE@IQB_W00W4AttTypes@XMLAttDef@1@_NQAVMemoryManager@1@PAVDatatypeValidator@1@2@Z 12021c3f f   XMLAttr.obj
 0001:00020ce0       ??0XMLAttr@xercesc_2_8@@QAE@IQB_W0W4AttTypes@XMLAttDef@1@_NQAVMemoryManager@1@PAVDatatypeValidator@1@2@Z 12021ce0 f   XMLAttr.obj
 0001:00020d7e       ?getQName@XMLAttr@xercesc_2_8@@QBEPB_WXZ 12021d7e f   XMLAttr.obj
 0001:00020d86       ?setName@XMLAttr@xercesc_2_8@@QAEXIQB_W0@Z 12021d86 f   XMLAttr.obj
 0001:00020d9d       ?setURIId@XMLAttr@xercesc_2_8@@QAEXI@Z 12021d9d f   XMLAttr.obj
 0001:00020daa       ?setValue@XMLAttr@xercesc_2_8@@QAEXQB_W@Z 12021daa f   XMLAttr.obj
 0001:00020e00       ?cleanUp@XMLAttr@xercesc_2_8@@AAEXXZ 12021e00 f   XMLAttr.obj
 0001:00020e1d       ?insureCapacity@XMLBuffer@xercesc_2_8@@AAEXI@Z 12021e1d f   XMLBuffer.obj
 0001:00020ebb       ??_FXMLBufferMgr@xercesc_2_8@@QAEXXZ 12021ebb f i XMLBufferMgr.obj
 0001:00020ec7       ?getAvailableBufferCount@XMLBufferMgr@xercesc_2_8@@QBEIXZ 12021ec7 f i XMLBufferMgr.obj
 0001:00020eef       ??0XMLBufferMgr@xercesc_2_8@@QAE@QAVMemoryManager@1@@Z 12021eef f   XMLBufferMgr.obj
 0001:00020f28       ??1XMLBufferMgr@xercesc_2_8@@QAE@XZ 12021f28 f   XMLBufferMgr.obj
 0001:00020f63       ?bidOnBuffer@XMLBufferMgr@xercesc_2_8@@QAEAAVXMLBuffer@2@XZ 12021f63 f   XMLBufferMgr.obj
 0001:00021025       ?releaseBuffer@XMLBufferMgr@xercesc_2_8@@QAEXAAVXMLBuffer@2@@Z 12022025 f   XMLBufferMgr.obj
 0001:00021073       ??1XMLContentModel@xercesc_2_8@@UAE@XZ 12022073 f i XMLContentModel.obj
 0001:0002107a       ??0XMLContentModel@xercesc_2_8@@IAE@XZ 1202207a f i XMLContentModel.obj
 0001:00021083       ??_EXMLContentModel@xercesc_2_8@@UAEPAXI@Z 12022083 f i XMLContentModel.obj
 0001:000210cd       ??_FXMLElementDecl@xercesc_2_8@@QAEXXZ 120220cd f i XMLDTDDescription.obj
 0001:000210d9       ?getBaseName@XMLElementDecl@xercesc_2_8@@QAEPA_WXZ 120220d9 f i XMLDTDDescription.obj
 0001:000210d9       ?getBaseName@XMLElementDecl@xercesc_2_8@@QBEPB_WXZ 120220d9 f i XMLDTDDescription.obj
 0001:000210e0       ?getURI@XMLElementDecl@xercesc_2_8@@QBEIXZ 120220e0 f i XMLDTDDescription.obj
 0001:000210e7       ?getFullName@XMLElementDecl@xercesc_2_8@@QBEPB_WXZ 120220e7 f i XMLDTDDescription.obj
 0001:000210e7       ?getKey@DTDElementDecl@xercesc_2_8@@QBEPB_WXZ 120220e7 f i XMLElementDecl.obj
 0001:000210ef       ?isDeclared@XMLElementDecl@xercesc_2_8@@QBE_NXZ 120220ef f i XMLDTDDescription.obj
 0001:000210f9       ?getExpandEntityReferences@DOMNodeIteratorImpl@xercesc_2_8@@UAE_NXZ 120220f9 f i DOMNodeIteratorImpl.obj
 0001:000210f9       ?getIssueFatalErrorIfNotFound@InputSource@xercesc_2_8@@UBE_NXZ 120220f9 f i LocalFileInputSource.obj
 0001:000210f9       ?getExpandEntityReferences@DOMTreeWalkerImpl@xercesc_2_8@@UAE_NXZ 120220f9 f i DOMTreeWalkerImpl.obj
 0001:000210f9       ?getRequired@XSAttributeUse@xercesc_2_8@@QBE_NXZ 120220f9 f i XSAttributeGroupDefinition.obj
 0001:000210f9       ?getIdentityConstraintChecking@XMLScanner@xercesc_2_8@@QBE_NXZ 120220f9 f i XMLValidator.obj
 0001:000210f9       ?isExternal@XMLElementDecl@xercesc_2_8@@QBE_NXZ 120220f9 f i XMLDTDDescription.obj
 0001:000210f9       ?getCreateEntityReferenceNodes@AbstractDOMParser@xercesc_2_8@@QBE_NXZ 120220f9 f i XSAnnotation.obj
 0001:000210f9       ?isDataConverted@XMLAbstractDoubleFloat@xercesc_2_8@@QBE_NXZ 120220f9 f i XMLAbstractDoubleFloat.obj
 0001:000210fd       ??_FXMLEntityDecl@xercesc_2_8@@QAEXXZ 120220fd f i XMLDTDDescription.obj
 0001:00021109       ?isExternal@XMLEntityDecl@xercesc_2_8@@QBE_NXZ 12022109 f i XMLDTDDescription.obj
 0001:00021119       ?isUnparsed@XMLEntityDecl@xercesc_2_8@@QBE_NXZ 12022119 f i XMLDTDDescription.obj
 0001:00021122       ?setNotationName@XMLEntityDecl@xercesc_2_8@@QAEXQB_W@Z 12022122 f i XMLDTDDescription.obj
 0001:0002114a       ?setPublicId@XMLEntityDecl@xercesc_2_8@@QAEXQB_W@Z 1202214a f i XMLDTDDescription.obj
 0001:00021172       ?setSystemId@XMLEntityDecl@xercesc_2_8@@QAEXQB_W@Z 12022172 f i XMLDTDDescription.obj
 0001:0002119a       ?setBaseURI@XMLEntityDecl@xercesc_2_8@@QAEXQB_W@Z 1202219a f i XMLDTDDescription.obj
 0001:000211c2       ?setValue@XMLEntityDecl@xercesc_2_8@@QAEXQB_W@Z 120221c2 f i XMLDTDDescription.obj
 0001:000211f7       ??_FXMLNotationDecl@xercesc_2_8@@QAEXXZ 120221f7 f i XMLDTDDescription.obj
 0001:00021203       ?setPublicId@XMLNotationDecl@xercesc_2_8@@QAEXQB_W@Z 12022203 f i XMLDTDDescription.obj
 0001:0002122b       ?setSystemId@XMLNotationDecl@xercesc_2_8@@QAEXQB_W@Z 1202222b f i XMLDTDDescription.obj
 0001:00021253       ?setBaseURI@XMLNotationDecl@xercesc_2_8@@QAEXQB_W@Z 12022253 f i XMLDTDDescription.obj
 0001:0002127b       ??1XMLGrammarDescription@xercesc_2_8@@UAE@XZ 1202227b f i XMLGrammarDescription.obj
 0001:0002127b       ??1XMLNumber@xercesc_2_8@@UAE@XZ 1202227b f i XMLNumber.obj
 0001:0002127b       ??1XMLSchemaDescription@xercesc_2_8@@UAE@XZ 1202227b f i XMLSchemaDescription.obj
 0001:0002127b       ??1XSerializable@xercesc_2_8@@UAE@XZ 1202227b f i KVStringPair.obj
 0001:0002127b       ??1XMLAttDefList@xercesc_2_8@@UAE@XZ 1202227b f i XMLAttDefList.obj
 0001:0002127b       ??1Grammar@xercesc_2_8@@UAE@XZ 1202227b f i XMLDTDDescription.obj
 0001:0002127b       ??1XMLDTDDescription@xercesc_2_8@@UAE@XZ 1202227b f i XMLDTDDescription.obj
 0001:00021282       ??0Grammar@xercesc_2_8@@IAE@XZ 12022282 f i XMLDTDDescription.obj
 0001:0002128b       ??_EGrammar@xercesc_2_8@@UAEPAXI@Z 1202228b f i XMLDTDDescription.obj
 0001:0002128b       ??_EXMLNumber@xercesc_2_8@@UAEPAXI@Z 1202228b f i XMLNumber.obj
 0001:000212d5       ??_FXMLGrammarDescription@xercesc_2_8@@QAEXXZ 120222d5 f i XMLDTDDescription.obj
 0001:000212e4       ??_FXMLDTDDescription@xercesc_2_8@@QAEXXZ 120222e4 f i XMLDTDDescription.obj
 0001:000212f3       ??_EXMLGrammarDescription@xercesc_2_8@@UAEPAXI@Z 120222f3 f i XMLGrammarDescription.obj
 0001:000212f3       ??_EXMLDTDDescription@xercesc_2_8@@UAEPAXI@Z 120222f3 f i XMLDTDDescription.obj
 0001:000212f3       ??_EXMLAttDefList@xercesc_2_8@@UAEPAXI@Z 120222f3 f i XMLAttDefList.obj
 0001:000212f3       ??_EXMLSchemaDescription@xercesc_2_8@@UAEPAXI@Z 120222f3 f i XMLSchemaDescription.obj
 0001:0002133d       ??0XMLDTDDescription@xercesc_2_8@@IAE@QAVMemoryManager@1@@Z 1202233d f   XMLDTDDescription.obj
 0001:0002134f       ?getProtoType@XMLDTDDescription@xercesc_2_8@@UBEPAVXProtoType@2@XZ 1202234f f   XMLDTDDescription.obj
 0001:00021355       ??5xercesc_2_8@@YAAAVXSerializeEngine@0@AAV10@AAPAVQName@0@@Z 12022355 f i XMLElementDecl.obj
 0001:0002136e       ??_EXMLElementDecl@xercesc_2_8@@UAEPAXI@Z 1202236e f i XMLElementDecl.obj
 0001:000213b7       ??_FUnionDatatypeValidator@xercesc_2_8@@QAEXXZ 120223b7 f i XMLElementDecl.obj
 0001:000213c3       ?newInstance@UnionDatatypeValidator@xercesc_2_8@@UAEPAVDatatypeValidator@2@QAV?$RefHashTableOf@VKVStringPair@xercesc_2_8@@@2@QAV?$RefArrayVectorOf@_W@2@HQAVMemoryManager@2@@Z 120223c3 f i XMLElementDecl.obj
 0001:0002140a       ?cleanUp@UnionDatatypeValidator@xercesc_2_8@@AAEXXZ 1202240a f i XMLElementDecl.obj
 0001:00021435       ?setEnumeration@UnionDatatypeValidator@xercesc_2_8@@AAEXPAV?$RefArrayVectorOf@_W@2@_N@Z 12022435 f i XMLElementDecl.obj
 0001:00021467       ?isAtomic@UnionDatatypeValidator@xercesc_2_8@@UBE_NXZ 12022467 f i XMLElementDecl.obj
 0001:000214aa       ?isSubstitutableBy@UnionDatatypeValidator@xercesc_2_8@@UAE_NQBVDatatypeValidator@2@@Z 120224aa f i XMLElementDecl.obj
 0001:00021516       ?getMemberTypeName@UnionDatatypeValidator@xercesc_2_8@@QBEPB_WXZ 12022516 f i XMLElementDecl.obj
 0001:00021524       ?getMemberTypeUri@UnionDatatypeValidator@xercesc_2_8@@QBEPB_WXZ 12022524 f i XMLElementDecl.obj
 0001:00021532       ?getMemberTypeAnonymous@UnionDatatypeValidator@xercesc_2_8@@QBE_NXZ 12022532 f i XMLElementDecl.obj
 0001:00021540       ?reset@UnionDatatypeValidator@xercesc_2_8@@QAEXXZ 12022540 f i XMLElementDecl.obj
 0001:00021545       ??_FSchemaAttDef@xercesc_2_8@@QAEXXZ 12022545 f i XMLElementDecl.obj
 0001:00021551       ?getTypeName@SchemaAttDef@xercesc_2_8@@QBEPB_WXZ 12022551 f i XMLElementDecl.obj
 0001:00021573       ?getTypeUri@SchemaAttDef@xercesc_2_8@@QBEPB_WXZ 12022573 f i XMLElementDecl.obj
 0001:00021595       ?getMemberTypeName@SchemaAttDef@xercesc_2_8@@QBEPB_WXZ 12022595 f i XMLElementDecl.obj
 0001:000215a3       ?getMemberTypeUri@SchemaAttDef@xercesc_2_8@@QBEPB_WXZ 120225a3 f i XMLElementDecl.obj
 0001:000215b1       ?getDOMTypeInfoName@SchemaAttDef@xercesc_2_8@@UBEPB_WXZ 120225b1 f i XMLElementDecl.obj
 0001:000215f1       ?getDOMTypeInfoUri@SchemaAttDef@xercesc_2_8@@UBEPB_WXZ 120225f1 f i XMLElementDecl.obj
 0001:00021631       ?getTypeAnonymous@SchemaAttDef@xercesc_2_8@@QBE_NXZ 12022631 f i XMLElementDecl.obj
 0001:0002164a       ?getMemberTypeAnonymous@SchemaAttDef@xercesc_2_8@@QBE_NXZ 1202264a f i XMLElementDecl.obj
 0001:00021658       ?isTypeDefinitionUnion@SchemaAttDef@xercesc_2_8@@QBE_NXZ 12022658 f i XMLElementDecl.obj
 0001:00021678       ?getBaseAttDecl@SchemaAttDef@xercesc_2_8@@QBEPBV12@XZ 12022678 f i XMLElementDecl.obj
 0001:00021678       ?getAttWildCard@ComplexTypeInfo@xercesc_2_8@@QBEPBVSchemaAttDef@2@XZ 12022678 f i XMLElementDecl.obj
 0001:00021678       ?getBaseAttDecl@SchemaAttDef@xercesc_2_8@@QAEPAV12@XZ 12022678 f i XMLElementDecl.obj
 0001:00021678       ?getMemberTypeValidators@UnionDatatypeValidator@xercesc_2_8@@QBEPAV?$RefVectorOf@VDatatypeValidator@xercesc_2_8@@@2@XZ 12022678 f i XMLElementDecl.obj
 0001:00021678       ?getAttWildCard@ComplexTypeInfo@xercesc_2_8@@QAEPAVSchemaAttDef@2@XZ 12022678 f i XMLElementDecl.obj
 0001:00021678       ?getMinLength@AbstractStringValidator@xercesc_2_8@@QBEIXZ 12022678 f i XSAttributeDeclaration.obj
 0001:00021678       ?getPSVIHandler@SAXParser@xercesc_2_8@@QBEPBVPSVIHandler@2@XZ 12022678 f i SAX2XMLReaderImpl.obj
 0001:00021678       ?getMaxInclusive@AbstractNumericFacetValidator@xercesc_2_8@@QBEQAVXMLNumber@2@XZ 12022678 f i AbstractNumericFacetValidator.obj
 0001:00021678       ?getPSVIHandler@SAXParser@xercesc_2_8@@QAEPAVPSVIHandler@2@XZ 12022678 f i SAX2XMLReaderImpl.obj
 0001:0002167c       ?setDatatypeValidator@SchemaAttDef@xercesc_2_8@@QAEXPAVDatatypeValidator@2@@Z 1202267c f i XMLElementDecl.obj
 0001:0002167c       ?setBaseDatatypeValidator@ComplexTypeInfo@xercesc_2_8@@QAEXQAVDatatypeValidator@2@@Z 1202267c f i XMLElementDecl.obj
 0001:00021686       ?setMembertypeValidator@SchemaAttDef@xercesc_2_8@@QAEXPBVDatatypeValidator@2@@Z 12022686 f i XMLElementDecl.obj
 0001:00021686       ?setLength@AbstractStringValidator@xercesc_2_8@@IAEXI@Z 12022686 f i XSAttributeDeclaration.obj
 0001:00021686       ?setBaseComplexTypeInfo@ComplexTypeInfo@xercesc_2_8@@QAEXQAV12@@Z 12022686 f i XMLElementDecl.obj
 0001:00021686       ?setDOMConfiguration@DOMDocumentImpl@xercesc_2_8@@UAEXPAVDOMConfiguration@2@@Z 12022686 f i DOMDocumentImpl.obj
 0001:00021690       ?resetNamespaceList@SchemaAttDef@xercesc_2_8@@QAEXXZ 12022690 f i XMLElementDecl.obj
 0001:000216a2       ?setNamespaceList@SchemaAttDef@xercesc_2_8@@QAEXQBV?$ValueVectorOf@I@2@@Z 120226a2 f i XMLElementDecl.obj
 0001:0002170b       ?reset@SchemaAttDef@xercesc_2_8@@UAEXXZ 1202270b f i XMLElementDecl.obj
 0001:0002173a       ??_FComplexTypeInfo@xercesc_2_8@@QAEXXZ 1202273a f i XMLElementDecl.obj
 0001:00021746       ?getUsed@XMLRefInfo@xercesc_2_8@@QBE_NXZ 12022746 f i XMLRefInfo.obj
 0001:00021746       ?getFinite@DatatypeValidator@xercesc_2_8@@QBE_NXZ 12022746 f i XMLAttr.obj
 0001:00021746       ?getAbstract@ComplexTypeInfo@xercesc_2_8@@QBE_NXZ 12022746 f i XMLElementDecl.obj
 0001:0002174a       ?getPreprocessed@ComplexTypeInfo@xercesc_2_8@@QBE_NXZ 1202274a f i XMLElementDecl.obj
 0001:0002174a       ?hasBackReferences@RegxParser@xercesc_2_8@@QBE_NXZ 1202274a f i ParserForXMLSchema.obj
 0001:0002174a       ?getIgnoreSerializedAnnotations@XMLGrammarPool@xercesc_2_8@@QBE_NXZ 1202274a f i XMLValidator.obj
 0001:0002174a       ?getStandardUriConformant@XMLScanner@xercesc_2_8@@QBE_NXZ 1202274a f i XMLValidator.obj
 0001:0002174e       ?elementCount@ComplexTypeInfo@xercesc_2_8@@QBEIXZ 1202274e f i XMLElementDecl.obj
 0001:0002175c       ?getAttDef@ComplexTypeInfo@xercesc_2_8@@QBEPBVSchemaAttDef@2@QB_WH@Z 1202275c f i XMLElementDecl.obj
 0001:0002175c       ?getAttDef@ComplexTypeInfo@xercesc_2_8@@QAEPAVSchemaAttDef@2@QB_WH@Z 1202275c f i XMLElementDecl.obj
 0001:00021771       ?elementAt@ComplexTypeInfo@xercesc_2_8@@QBEPBVSchemaElementDecl@2@I@Z 12022771 f i XMLElementDecl.obj
 0001:00021771       ?elementAt@ComplexTypeInfo@xercesc_2_8@@QAEPAVSchemaElementDecl@2@I@Z 12022771 f i XMLElementDecl.obj
 0001:00021791       ?getContentModel@ComplexTypeInfo@xercesc_2_8@@QAEPAVXMLContentModel@2@_N@Z 12022791 f i XMLElementDecl.obj
 0001:000217b3       ?setAbstract@ComplexTypeInfo@xercesc_2_8@@QAEX_N@Z 120227b3 f i XMLElementDecl.obj
 0001:000217b3       ?setUsed@XMLRefInfo@xercesc_2_8@@QAEX_N@Z 120227b3 f i XMLRefInfo.obj
 0001:000217b3       ?setFinite@DatatypeValidator@xercesc_2_8@@IAEX_N@Z 120227b3 f i XMLAttr.obj
 0001:000217bd       ?setAttWithTypeId@ComplexTypeInfo@xercesc_2_8@@QAEX_N@Z 120227bd f i XMLElementDecl.obj
 0001:000217bd       ?setNumeric@DatatypeValidator@xercesc_2_8@@IAEX_N@Z 120227bd f i XMLAttr.obj
 0001:000217c7       ?setTypeName@ComplexTypeInfo@xercesc_2_8@@QAEXQB_W@Z 120227c7 f i XMLElementDecl.obj
 0001:00021878       ?addElement@ComplexTypeInfo@xercesc_2_8@@QAEXQAVSchemaElementDecl@2@@Z 12022878 f i XMLElementDecl.obj
 0001:000218e2       ?setAttWildCard@ComplexTypeInfo@xercesc_2_8@@QAEXQAVSchemaAttDef@2@@Z 120228e2 f i XMLElementDecl.obj
 0001:000218fd       ?setContentModel@ComplexTypeInfo@xercesc_2_8@@QAEXQAVXMLContentModel@2@@Z 120228fd f i XMLElementDecl.obj
 0001:0002192c       ?setAnonymous@ComplexTypeInfo@xercesc_2_8@@QAEXXZ 1202292c f i XMLElementDecl.obj
 0001:0002192c       ?setAnonymous@DatatypeValidator@xercesc_2_8@@QAEXXZ 1202292c f i XMLAttr.obj
 0001:00021931       ?hasAttDefs@ComplexTypeInfo@xercesc_2_8@@QBE_NXZ 12022931 f i XMLElementDecl.obj
 0001:0002193f       ?contains@ComplexTypeInfo@xercesc_2_8@@QAE_NQB_W@Z 1202293f f i XMLElementDecl.obj
 0001:000219d2       ?cleanUp@XPathMatcher@xercesc_2_8@@AAEXXZ 120229d2 f i XMLElementDecl.obj
 0001:00021a05       ??_FIC_Field@xercesc_2_8@@QAEXXZ 12022a05 f i XMLElementDecl.obj
 0001:00021a14       ??_EFieldMatcher@xercesc_2_8@@UAEPAXI@Z 12022a14 f i XMLElementDecl.obj
 0001:00021a63       ?getFieldCount@IdentityConstraint@xercesc_2_8@@QBEHXZ 12022a63 f i XMLElementDecl.obj
 0001:00021a63       ?attributeCount@XercesAttGroupInfo@xercesc_2_8@@QBEIXZ 12022a63 f i XSAttributeGroupDefinition.obj
 0001:00021a71       ?addField@IdentityConstraint@xercesc_2_8@@QAEXQAVIC_Field@2@@Z 12022a71 f i XMLElementDecl.obj
 0001:00021acc       ??5xercesc_2_8@@YAAAVXSerializeEngine@0@AAV10@AAPAVSchemaElementDecl@0@@Z 12022acc f i XMLElementDecl.obj
 0001:00021ae5       ??_FSchemaElementDecl@xercesc_2_8@@QAEXXZ 12022ae5 f i XMLElementDecl.obj
 0001:00021af1       ?getContentSpec@SchemaElementDecl@xercesc_2_8@@UAEPAVContentSpecNode@2@XZ 12022af1 f i XMLElementDecl.obj
 0001:00021af1       ?getContentSpec@SchemaElementDecl@xercesc_2_8@@UBEPBVContentSpecNode@2@XZ 12022af1 f i XMLElementDecl.obj
 0001:00021aff       ?getContentModel@SchemaElementDecl@xercesc_2_8@@UAEPAVXMLContentModel@2@XZ 12022aff f i XMLElementDecl.obj
 0001:00021b11       ?getModelType@SchemaElementDecl@xercesc_2_8@@QBE?AW4ModelTypes@12@XZ 12022b11 f i XMLElementDecl.obj
 0001:00021b20       ?isGlobalDecl@SchemaElementDecl@xercesc_2_8@@UBE_NXZ 12022b20 f i XMLElementDecl.obj
 0001:00021b2a       ?getTypeName@SchemaElementDecl@xercesc_2_8@@QBEPB_WXZ 12022b2a f i XMLElementDecl.obj
 0001:00021b58       ?getTypeType@SchemaElementDecl@xercesc_2_8@@QBE?AW4Complexity@PSVIDefs@2@XZ 12022b58 f i XMLElementDecl.obj
 0001:00021b73       ?getTypeUri@SchemaElementDecl@xercesc_2_8@@QBEPB_WXZ 12022b73 f i XMLElementDecl.obj
 0001:00021ba1       ?getMemberTypeName@SchemaElementDecl@xercesc_2_8@@QBEPB_WXZ 12022ba1 f i XMLElementDecl.obj
 0001:00021bc9       ?getMemberTypeUri@SchemaElementDecl@xercesc_2_8@@QBEPB_WXZ 12022bc9 f i XMLElementDecl.obj
 0001:00021bf1       ?getMemberTypeAnonymous@SchemaElementDecl@xercesc_2_8@@QBE_NXZ 12022bf1 f i XMLElementDecl.obj
 0001:00021c19       ?isTypeDefinitionUnion@SchemaElementDecl@xercesc_2_8@@QBE_NXZ 12022c19 f i XMLElementDecl.obj
 0001:00021c39       ?getValidationAttempted@SchemaElementDecl@xercesc_2_8@@QBE?AW4Validation@PSVIDefs@2@XZ 12022c39 f i XMLElementDecl.obj
 0001:00021c65       ?getTypeAnonymous@SchemaElementDecl@xercesc_2_8@@QBE_NXZ 12022c65 f i XMLElementDecl.obj
 0001:00021c8c       ?getDOMTypeInfoName@SchemaElementDecl@xercesc_2_8@@UBEPB_WXZ 12022c8c f i XMLElementDecl.obj
 0001:00021cf3       ?getDOMTypeInfoUri@SchemaElementDecl@xercesc_2_8@@UBEPB_WXZ 12022cf3 f i XMLElementDecl.obj
 0001:00021d49       ?setDatatypeValidator@SchemaElementDecl@xercesc_2_8@@QAEXPAVDatatypeValidator@2@@Z 12022d49 f i XMLElementDecl.obj
 0001:00021d53       ?setBlockSet@SchemaElementDecl@xercesc_2_8@@QAEXH@Z 12022d53 f i XMLElementDecl.obj
 0001:00021d53       ?setTokenFactory@RegxParser@xercesc_2_8@@QAEXQAVTokenFactory@2@@Z 12022d53 f i ParserForXMLSchema.obj
 0001:00021d53       ?setDocument@AbstractDOMParser@xercesc_2_8@@IAEXPAVDOMDocument@2@@Z 12022d53 f i AbstractDOMParser.obj
 0001:00021d53       ?setPSVIScope@SchemaAttDef@xercesc_2_8@@QAEXW4PSVIScope@PSVIDefs@2@@Z 12022d53 f i XMLElementDecl.obj
 0001:00021d5d       ?setMiscFlags@SchemaElementDecl@xercesc_2_8@@QAEXH@Z 12022d5d f i XMLElementDecl.obj
 0001:00021d67       ?setDefaultValue@SchemaElementDecl@xercesc_2_8@@QAEXQB_W@Z 12022d67 f i XMLElementDecl.obj
 0001:00021d8f       ?setComplexTypeInfo@SchemaElementDecl@xercesc_2_8@@QAEXQAVComplexTypeInfo@2@@Z 12022d8f f i XMLElementDecl.obj
 0001:00021d8f       ?setTypeInfo@DOMElementNSImpl@xercesc_2_8@@UAEXPBVDOMTypeInfoImpl@2@@Z 12022d8f f i DOMElementNSImpl.obj
 0001:00021d8f       ?setAnyDatatypeValidator@SchemaAttDef@xercesc_2_8@@QAEXPAVDatatypeValidator@2@@Z 12022d8f f i XMLElementDecl.obj
 0001:00021d8f       ?setDatatypeValidator@ComplexTypeInfo@xercesc_2_8@@QAEXQAVDatatypeValidator@2@@Z 12022d8f f i XMLElementDecl.obj
 0001:00021d8f       ?setPrimitiveType@XSSimpleTypeDefinition@xercesc_2_8@@AAEXQAV12@@Z 12022d8f f i XMLAttr.obj
 0001:00021d99       ?setMaxLength@AbstractStringValidator@xercesc_2_8@@IAEXI@Z 12022d99 f i XSAttributeDeclaration.obj
 0001:00021d99       ?setXsiComplexTypeInfo@SchemaElementDecl@xercesc_2_8@@QAEXQAVComplexTypeInfo@2@@Z 12022d99 f i XMLElementDecl.obj
 0001:00021da3       ?setBaseAttDecl@SchemaAttDef@xercesc_2_8@@QAEXQAV12@@Z 12022da3 f i XMLElementDecl.obj
 0001:00021da3       ?setXsiSimpleTypeInfo@SchemaElementDecl@xercesc_2_8@@QAEXQBVDatatypeValidator@2@@Z 12022da3 f i XMLElementDecl.obj
 0001:00021da3       ?setMinLength@AbstractStringValidator@xercesc_2_8@@IAEXI@Z 12022da3 f i XSAttributeDeclaration.obj
 0001:00021dad       ?setAttWildCard@SchemaElementDecl@xercesc_2_8@@QAEXQAVSchemaAttDef@2@@Z 12022dad f i XMLElementDecl.obj
 0001:00021dc8       ?updateValidityFromAttribute@SchemaElementDecl@xercesc_2_8@@QAEXPBVSchemaAttDef@2@@Z 12022dc8 f i XMLElementDecl.obj
 0001:00021dfc       ?updateValidityFromElement@SchemaElementDecl@xercesc_2_8@@QAEXPBVXMLElementDecl@2@W4GrammarType@Grammar@2@@Z 12022dfc f i XMLElementDecl.obj
 0001:00021e42       ?reset@SchemaElementDecl@xercesc_2_8@@QAEXXZ 12022e42 f i XMLElementDecl.obj
 0001:00021e7d       ?addIdentityConstraint@SchemaElementDecl@xercesc_2_8@@QAEXQAVIdentityConstraint@2@@Z 12022e7d f i XMLElementDecl.obj
 0001:00021ed9       ?getIdentityConstraintCount@SchemaElementDecl@xercesc_2_8@@QBEIXZ 12022ed9 f i XMLElementDecl.obj
 0001:00021ee7       ?getIdentityConstraintAt@SchemaElementDecl@xercesc_2_8@@QBEPAVIdentityConstraint@2@I@Z 12022ee7 f i XMLElementDecl.obj
 0001:00021f0b       ??_FDTDAttDef@xercesc_2_8@@QAEXXZ 12022f0b f i XMLElementDecl.obj
 0001:00021f17       ?getDOMTypeInfoName@DTDAttDef@xercesc_2_8@@UBEPB_WXZ 12022f17 f i XMLElementDecl.obj
 0001:00021f27       ?setAttGroupInfoRegistry@SchemaGrammar@xercesc_2_8@@QAEXQAV?$RefHashTableOf@VXercesAttGroupInfo@xercesc_2_8@@@2@@Z 12022f27 f i XSAttributeDeclaration.obj
 0001:00021f27       ?setValidationAttempted@SchemaElementDecl@xercesc_2_8@@QAEXW4Validation@PSVIDefs@2@@Z 12022f27 f i XMLElementDecl.obj
 0001:00021f27       ?setMaxOccurs@ContentSpecNode@xercesc_2_8@@QAEXH@Z 12022f27 f i XSWildcard.obj
 0001:00021f27       ?setCaseInsensitiveToken@RangeToken@xercesc_2_8@@QAEXPAV12@@Z 12022f27 f i ASCIIRangeFactory.obj
 0001:00021f27       ?setEnclosingCTDefinition@XSElementDeclaration@xercesc_2_8@@AAEXQAVXSComplexTypeDefinition@2@@Z 12022f27 f i PSVIElement.obj
 0001:00021f27       ?setElemId@DTDAttDef@xercesc_2_8@@QAEXI@Z 12022f27 f i XMLElementDecl.obj
 0001:00021f27       ?setElemId@SchemaAttDef@xercesc_2_8@@QAEXI@Z 12022f27 f i XMLElementDecl.obj
 0001:00021f27       ?setErrorHandler@SAX2XMLFilterImpl@xercesc_2_8@@UAEXQAVErrorHandler@2@@Z 12022f27 f i SAX2XMLFilterImpl.obj
 0001:00021f27       ?setEnclosingCTDefinition@XSAttributeDeclaration@xercesc_2_8@@AAEXQAVXSComplexTypeDefinition@2@@Z 12022f27 f i PSVIAttributeList.obj
 0001:00021f31       ??_FDTDElementDecl@xercesc_2_8@@QAEXXZ 12022f31 f i XMLElementDecl.obj
 0001:00021f3d       ?getContentModel@DTDElementDecl@xercesc_2_8@@UAEPAVXMLContentModel@2@XZ 12022f3d f i XMLElementDecl.obj
 0001:00021f53       ?setContentModel@DTDElementDecl@xercesc_2_8@@UAEXQAVXMLContentModel@2@@Z 12022f53 f i XMLElementDecl.obj
 0001:00021f82       ??1XMLElementDecl@xercesc_2_8@@UAE@XZ 12022f82 f   XMLElementDecl.obj
 0001:00021fb6       ?setElementName@XMLElementDecl@xercesc_2_8@@QAEXQB_W0H@Z 12022fb6 f   XMLElementDecl.obj
 0001:00022017       ?setElementName@XMLElementDecl@xercesc_2_8@@QAEXQB_WH@Z 12023017 f   XMLElementDecl.obj
 0001:00022072       ?setElementName@XMLElementDecl@xercesc_2_8@@QAEXQBVQName@2@@Z 12023072 f   XMLElementDecl.obj
 0001:000220c4       ??0XMLElementDecl@xercesc_2_8@@IAE@QAVMemoryManager@1@@Z 120230c4 f   XMLElementDecl.obj
 0001:000220e8       ?getProtoType@XMLElementDecl@xercesc_2_8@@UBEPAVXProtoType@2@XZ 120230e8 f   XMLElementDecl.obj
 0001:000220ee       ?serialize@XMLElementDecl@xercesc_2_8@@UAEXAAVXSerializeEngine@2@@Z 120230ee f   XMLElementDecl.obj
 0001:00022163       ?storeElementDecl@XMLElementDecl@xercesc_2_8@@SAXAAVXSerializeEngine@2@QAV12@@Z 12023163 f   XMLElementDecl.obj
 0001:00022196       ?loadElementDecl@XMLElementDecl@xercesc_2_8@@SAPAV12@AAVXSerializeEngine@2@@Z 12023196 f   XMLElementDecl.obj
 0001:000221cb       ??1?$XMLEnumerator@VSchemaAttDef@xercesc_2_8@@@xercesc_2_8@@UAE@XZ 120231cb f i XMLElementDecl.obj
 0001:000221d2       ??_G?$XMLEnumerator@VSchemaAttDef@xercesc_2_8@@@xercesc_2_8@@UAEPAXI@Z 120231d2 f i XMLElementDecl.obj
 0001:000221d2       ??_E?$XMLEnumerator@VSchemaAttDef@xercesc_2_8@@@xercesc_2_8@@UAEPAXI@Z 120231d2 f i  CIL library: CIL module
 0001:000221ef       ?elementAt@?$BaseRefVectorOf@VDatatypeValidator@xercesc_2_8@@@xercesc_2_8@@QAEPAVDatatypeValidator@2@I@Z 120231ef f i XMLElementDecl.obj
 0001:000221ef       ?elementAt@?$BaseRefVectorOf@_W@xercesc_2_8@@QAEPA_WI@Z 120231ef f i RegularExpression.obj
 0001:00022227       ??4?$ValueVectorOf@I@xercesc_2_8@@QAEAAV01@ABV01@@Z 12023227 f i XMLElementDecl.obj
 0001:00022277       ??0?$RefVectorOf@VSchemaElementDecl@xercesc_2_8@@@xercesc_2_8@@QAE@I_NQAVMemoryManager@1@@Z 12023277 f i XMLElementDecl.obj
 0001:000222b7       ??1?$BaseRefVectorOf@VSchemaElementDecl@xercesc_2_8@@@xercesc_2_8@@UAE@XZ 120232b7 f i XMLElementDecl.obj
 0001:000222be       ?containsElement@?$BaseRefVectorOf@VSchemaInfo@xercesc_2_8@@@xercesc_2_8@@QAE_NQBVSchemaInfo@2@@Z 120232be f i IGXMLScanner2.obj
 0001:000222be       ?containsElement@?$BaseRefVectorOf@VSchemaElementDecl@xercesc_2_8@@@xercesc_2_8@@QAE_NQBVSchemaElementDecl@2@@Z 120232be f i XMLElementDecl.obj
 0001:000222e5       ??0?$RefHash2KeysTableOfEnumerator@VSchemaAttDef@xercesc_2_8@@@xercesc_2_8@@QAE@QAV?$RefHash2KeysTableOf@VSchemaAttDef@xercesc_2_8@@@1@_NQAVMemoryManager@1@@Z 120232e5 f i XMLElementDecl.obj
 0001:0002234b       ??1?$RefHash2KeysTableOfEnumerator@VSchemaAttDef@xercesc_2_8@@@xercesc_2_8@@UAE@XZ 1202334b f i XMLElementDecl.obj
 0001:00022384       ??0?$RefVectorOf@VIC_Field@xercesc_2_8@@@xercesc_2_8@@QAE@I_NQAVMemoryManager@1@@Z 12023384 f i XMLElementDecl.obj
 0001:000223c4       ??1?$BaseRefVectorOf@VIC_Field@xercesc_2_8@@@xercesc_2_8@@UAE@XZ 120233c4 f i XMLElementDecl.obj
 0001:000223cb       ??0?$RefVectorOf@VIdentityConstraint@xercesc_2_8@@@xercesc_2_8@@QAE@I_NQAVMemoryManager@1@@Z 120233cb f i XMLElementDecl.obj
 0001:0002240b       ??1?$BaseRefVectorOf@VIdentityConstraint@xercesc_2_8@@@xercesc_2_8@@UAE@XZ 1202340b f i XMLElementDecl.obj
 0001:00022412       ??_G?$RefVectorOf@VSchemaElementDecl@xercesc_2_8@@@xercesc_2_8@@UAEPAXI@Z 12023412 f i XMLElementDecl.obj
 0001:00022412       ??_E?$RefVectorOf@VSchemaElementDecl@xercesc_2_8@@@xercesc_2_8@@UAEPAXI@Z 12023412 f i  CIL library: CIL module
 0001:0002247c       ??_G?$BaseRefVectorOf@VSchemaElementDecl@xercesc_2_8@@@xercesc_2_8@@UAEPAXI@Z 1202347c f i XMLElementDecl.obj
 0001:0002247c       ??_E?$BaseRefVectorOf@VSchemaElementDecl@xercesc_2_8@@@xercesc_2_8@@UAEPAXI@Z 1202347c f i  CIL library: CIL module
 0001:00022499       ??_G?$RefHash2KeysTableOfEnumerator@VSchemaAttDef@xercesc_2_8@@@xercesc_2_8@@UAEPAXI@Z 12023499 f i XMLElementDecl.obj
 0001:00022499       ??_E?$RefHash2KeysTableOfEnumerator@VSchemaAttDef@xercesc_2_8@@@xercesc_2_8@@UAEPAXI@Z 12023499 f i  CIL library: CIL module
 0001:000224b5       ??_G?$RefHash2KeysTableOf@VSchemaAttDef@xercesc_2_8@@@xercesc_2_8@@QAEPAXI@Z 120234b5 f i XMLElementDecl.obj
 0001:000224e0       ??_E?$RefVectorOf@VIC_Field@xercesc_2_8@@@xercesc_2_8@@UAEPAXI@Z 120234e0 f i  CIL library: CIL module
 0001:000224e0       ??_G?$RefVectorOf@VIC_Field@xercesc_2_8@@@xercesc_2_8@@UAEPAXI@Z 120234e0 f i XMLElementDecl.obj
 0001:0002254a       ??_E?$BaseRefVectorOf@VIC_Field@xercesc_2_8@@@xercesc_2_8@@UAEPAXI@Z 1202354a f i  CIL library: CIL module
 0001:0002254a       ??_G?$BaseRefVectorOf@VIC_Field@xercesc_2_8@@@xercesc_2_8@@UAEPAXI@Z 1202354a f i XMLElementDecl.obj
 0001:00022567       ??_E?$RefVectorOf@VIdentityConstraint@xercesc_2_8@@@xercesc_2_8@@UAEPAXI@Z 12023567 f i  CIL library: CIL module
 0001:00022567       ??_G?$RefVectorOf@VIdentityConstraint@xercesc_2_8@@@xercesc_2_8@@UAEPAXI@Z 12023567 f i XMLElementDecl.obj
 0001:000225d1       ??_G?$BaseRefVectorOf@VIdentityConstraint@xercesc_2_8@@@xercesc_2_8@@UAEPAXI@Z 120235d1 f i XMLElementDecl.obj
 0001:000225d1       ??_E?$BaseRefVectorOf@VIdentityConstraint@xercesc_2_8@@@xercesc_2_8@@UAEPAXI@Z 120235d1 f i  CIL library: CIL module
 0001:000225ee       ?findBucketElem@?$RefHash2KeysTableOf@V?$ValueVectorOf@PAVSchemaElementDecl@xercesc_2_8@@@xercesc_2_8@@@xercesc_2_8@@AAEPAU?$RefHash2KeysTableBucketElem@V?$ValueVectorOf@PAVSchemaElementDecl@xercesc_2_8@@@xercesc_2_8@@@2@QBXHAAI@Z 120235ee f i XTemplateSerializer.obj
 0001:000225ee       ?findBucketElem@?$RefHash2KeysTableOf@VIdentityConstraint@xercesc_2_8@@@xercesc_2_8@@AAEPAU?$RefHash2KeysTableBucketElem@VIdentityConstraint@xercesc_2_8@@@2@QBXHAAI@Z 120235ee f i TraverseSchema.obj
 0001:000225ee       ?findBucketElem@?$RefHash2KeysTableOf@VSchemaInfo@xercesc_2_8@@@xercesc_2_8@@AAEPAU?$RefHash2KeysTableBucketElem@VSchemaInfo@xercesc_2_8@@@2@QBXHAAI@Z 120235ee f i TraverseSchema.obj
 0001:000225ee       ?findBucketElem@?$RefHash2KeysTableOf@VValueStore@xercesc_2_8@@@xercesc_2_8@@AAEPAU?$RefHash2KeysTableBucketElem@VValueStore@xercesc_2_8@@@2@QBXHAAI@Z 120235ee f i IGXMLScanner.obj
 0001:000225ee       ?findBucketElem@?$RefHash2KeysTableOf@_W@xercesc_2_8@@AAEPAU?$RefHash2KeysTableBucketElem@_W@2@QBXHAAI@Z 120235ee f i TraverseSchema.obj
 0001:000225ee       ?findBucketElem@?$RefHash2KeysTableOf@V?$KeyRefPair@XVDOMUserDataHandler@xercesc_2_8@@@xercesc_2_8@@@xercesc_2_8@@AAEPAU?$RefHash2KeysTableBucketElem@V?$KeyRefPair@XVDOMUserDataHandler@xercesc_2_8@@@xercesc_2_8@@@2@QBXHAAI@Z 120235ee f i DOMDocumentImpl.obj
 0001:000225ee       ?findBucketElem@?$RefHash2KeysTableOf@VSchemaAttDef@xercesc_2_8@@@xercesc_2_8@@AAEPAU?$RefHash2KeysTableBucketElem@VSchemaAttDef@xercesc_2_8@@@2@QBXHAAI@Z 120235ee f i XMLElementDecl.obj
 0001:0002263a       ?findNext@?$RefHash2KeysTableOfEnumerator@VSchemaAttDef@xercesc_2_8@@@xercesc_2_8@@AAEXXZ 1202363a f i XMLElementDecl.obj
 0001:0002263a       ?findNext@?$RefHash2KeysTableOfEnumerator@V?$ValueVectorOf@PAVSchemaElementDecl@xercesc_2_8@@@xercesc_2_8@@@xercesc_2_8@@AAEXXZ 1202363a f i XTemplateSerializer.obj
 0001:0002263a       ?findNext@?$RefHash2KeysTableOfEnumerator@V?$KeyRefPair@XVDOMUserDataHandler@xercesc_2_8@@@xercesc_2_8@@@xercesc_2_8@@AAEXXZ 1202363a f i DOMDocumentImpl.obj
 0001:000226dd       ?removeAll@?$RefHash2KeysTableOf@VSchemaAttDef@xercesc_2_8@@@xercesc_2_8@@QAEXXZ 120236dd f i XMLElementDecl.obj
 0001:00022733       ??_EXMLEntityDecl@xercesc_2_8@@UAEPAXI@Z 12023733 f i XMLEntityDecl.obj
 0001:0002277c       ??0XMLEntityDecl@xercesc_2_8@@QAE@QAVMemoryManager@1@@Z 1202377c f   XMLEntityDecl.obj
 0001:000227a8       ??0XMLEntityDecl@xercesc_2_8@@QAE@QB_WQAVMemoryManager@1@@Z 120237a8 f   XMLEntityDecl.obj
 0001:000227fa       ??0XMLEntityDecl@xercesc_2_8@@QAE@QB_W0QAVMemoryManager@1@@Z 120237fa f   XMLEntityDecl.obj
 0001:0002288e       ??0XMLEntityDecl@xercesc_2_8@@QAE@QB_W_WQAVMemoryManager@1@@Z 1202388e f   XMLEntityDecl.obj
 0001:00022928       ??1XMLEntityDecl@xercesc_2_8@@UAE@XZ 12023928 f   XMLEntityDecl.obj
 0001:00022954       ?setName@XMLEntityDecl@xercesc_2_8@@QAEXQB_W@Z 12023954 f   XMLEntityDecl.obj
 0001:0002297c       ?cleanUp@XMLEntityDecl@xercesc_2_8@@AAEXXZ 1202397c f   XMLEntityDecl.obj
 0001:000229c3       ?getProtoType@XMLEntityDecl@xercesc_2_8@@UBEPAVXProtoType@2@XZ 120239c3 f   XMLEntityDecl.obj
 0001:000229c9       ?serialize@XMLEntityDecl@xercesc_2_8@@UAEXAAVXSerializeEngine@2@@Z 120239c9 f   XMLEntityDecl.obj
 0001:00022a93       ?inEscapeList@XMLFormatter@xercesc_2_8@@AAE_NW4EscapeFlags@12@_W@Z 12023a93 f   XMLFormatter.obj
 0001:00022ad6       ??0XMLFormatter@xercesc_2_8@@QAE@QBD0QAVXMLFormatTarget@1@W4EscapeFlags@01@W4UnRepFlags@01@QAVMemoryManager@1@@Z 12023ad6 f   XMLFormatter.obj
 0001:00022bf0       ??0XMLFormatter@xercesc_2_8@@QAE@QB_W0QAVXMLFormatTarget@1@W4EscapeFlags@01@W4UnRepFlags@01@QAVMemoryManager@1@@Z 12023bf0 f   XMLFormatter.obj
 0001:00022cd4       ??0XMLFormatter@xercesc_2_8@@QAE@QBDQAVXMLFormatTarget@1@W4EscapeFlags@01@W4UnRepFlags@01@QAVMemoryManager@1@@Z 12023cd4 f   XMLFormatter.obj
 0001:00022dbc       ??0XMLFormatter@xercesc_2_8@@QAE@QB_WQAVXMLFormatTarget@1@W4EscapeFlags@01@W4UnRepFlags@01@QAVMemoryManager@1@@Z 12023dbc f   XMLFormatter.obj
 0001:00022e92       ??1XMLFormatter@xercesc_2_8@@QAE@XZ 12023e92 f   XMLFormatter.obj
 0001:00022f07       ?formatBuf@XMLFormatter@xercesc_2_8@@QAEXQB_WIW4EscapeFlags@12@W4UnRepFlags@12@@Z 12023f07 f   XMLFormatter.obj
 0001:00023086       ?handleUnEscapedChars@XMLFormatter@xercesc_2_8@@AAEIPB_WIW4UnRepFlags@12@@Z 12024086 f   XMLFormatter.obj
 0001:00023110       ??6XMLFormatter@xercesc_2_8@@QAEAAV01@QB_W@Z 12024110 f   XMLFormatter.obj
 0001:00023136       ??6XMLFormatter@xercesc_2_8@@QAEAAV01@_W@Z 12024136 f   XMLFormatter.obj
 0001:00023162       ?writeBOM@XMLFormatter@xercesc_2_8@@QAEXQBEI@Z 12024162 f   XMLFormatter.obj
 0001:00023178       ?writeCharRef@XMLFormatter@xercesc_2_8@@AAEXAB_W@Z 12024178 f   XMLFormatter.obj
 0001:000231f0       ?writeCharRef@XMLFormatter@xercesc_2_8@@AAEXK@Z 120241f0 f   XMLFormatter.obj
 0001:00023264       ?getCharRef@XMLFormatter@xercesc_2_8@@AAEPBEAAIAAPAEPB_W@Z 12024264 f   XMLFormatter.obj
 0001:000232e5       ?specialFormat@XMLFormatter@xercesc_2_8@@AAEXQB_WIW4EscapeFlags@12@@Z 120242e5 f   XMLFormatter.obj
 0001:0002339c       ??0XMLGrammarDescription@xercesc_2_8@@IAE@QAVMemoryManager@1@@Z 1202439c f   XMLGrammarDescription.obj
 0001:000233ae       ?getProtoType@XMLGrammarDescription@xercesc_2_8@@UBEPAVXProtoType@2@XZ 120243ae f   XMLGrammarDescription.obj
 0001:000233b4       ??_EXMLNotationDecl@xercesc_2_8@@UAEPAXI@Z 120243b4 f i XMLNotationDecl.obj
 0001:000233fd       ??0XMLNotationDecl@xercesc_2_8@@QAE@QAVMemoryManager@1@@Z 120243fd f   XMLNotationDecl.obj
 0001:00023423       ??0XMLNotationDecl@xercesc_2_8@@QAE@QB_W000QAVMemoryManager@1@@Z 12024423 f   XMLNotationDecl.obj
 0001:000234c6       ??1XMLNotationDecl@xercesc_2_8@@UAE@XZ 120244c6 f   XMLNotationDecl.obj
 0001:000234f2       ?setName@XMLNotationDecl@xercesc_2_8@@QAEXQB_W@Z 120244f2 f   XMLNotationDecl.obj
 0001:0002351a       ?cleanUp@XMLNotationDecl@xercesc_2_8@@AAEXXZ 1202451a f   XMLNotationDecl.obj
 0001:0002354b       ?createObject@XMLNotationDecl@xercesc_2_8@@SAPAVXSerializable@2@PAVMemoryManager@2@@Z 1202454b f   XMLNotationDecl.obj
 0001:0002356b       ?getProtoType@XMLNotationDecl@xercesc_2_8@@UBEPAVXProtoType@2@XZ 1202456b f   XMLNotationDecl.obj
 0001:00023571       ?serialize@XMLNotationDecl@xercesc_2_8@@UAEXAAVXSerializeEngine@2@@Z 12024571 f   XMLNotationDecl.obj
 0001:0002360d       ?basicEncodingProbe@XMLRecognizer@xercesc_2_8@@SA?AW4Encodings@12@QBEI@Z 1202460d f   XMLRecognizer.obj
 0001:00023733       ?encodingForName@XMLRecognizer@xercesc_2_8@@SA?AW4Encodings@12@QB_W@Z 12024733 f   XMLRecognizer.obj
 0001:000238a8       ?nameForEncoding@XMLRecognizer@xercesc_2_8@@SAPB_WW4Encodings@12@QAVMemoryManager@2@@Z 120248a8 f   XMLRecognizer.obj
 0001:000238e4       ??_FXMLRefInfo@xercesc_2_8@@QAEXXZ 120248e4 f i XMLRefInfo.obj
 0001:000238f0       ??_EXMLRefInfo@xercesc_2_8@@UAEPAXI@Z 120248f0 f i XMLRefInfo.obj
 0001:00023939       ??0XMLRefInfo@xercesc_2_8@@QAE@QB_W_N1QAVMemoryManager@1@@Z 12024939 f i XMLRefInfo.obj
 0001:00023982       ??1XMLRefInfo@xercesc_2_8@@UAE@XZ 12024982 f i XMLRefInfo.obj
 0001:000239b4       ?createObject@XMLRefInfo@xercesc_2_8@@SAPAVXSerializable@2@PAVMemoryManager@2@@Z 120249b4 f   XMLRefInfo.obj
 0001:000239d4       ?getProtoType@XMLRefInfo@xercesc_2_8@@UBEPAVXProtoType@2@XZ 120249d4 f   XMLRefInfo.obj
 0001:000239da       ?serialize@XMLRefInfo@xercesc_2_8@@UAEXAAVXSerializeEngine@2@@Z 120249da f   XMLRefInfo.obj
 0001:00023a34       ??0XMLRefInfo@xercesc_2_8@@QAE@QAVMemoryManager@1@@Z 12024a34 f   XMLRefInfo.obj
 0001:00023a51       ??_FXMLSchemaDescription@xercesc_2_8@@QAEXXZ 12024a51 f i XMLSchemaDescription.obj
 0001:00023a60       ??0XMLSchemaDescription@xercesc_2_8@@IAE@QAVMemoryManager@1@@Z 12024a60 f   XMLSchemaDescription.obj
 0001:00023a72       ?getProtoType@XMLSchemaDescription@xercesc_2_8@@UBEPAVXProtoType@2@XZ 12024a72 f   XMLSchemaDescription.obj
 0001:00023a78       ?errorType@XMLValid@xercesc_2_8@@SA?AW4ErrTypes@XMLErrorReporter@2@W4Codes@12@@Z 12024a78 f i XMLValidator.obj
 0001:00023a9c       ??1XMLValidator@xercesc_2_8@@UAE@XZ 12024a9c f i XMLValidator.obj
 0001:00023a9c       ??1DTDValidator@xercesc_2_8@@UAE@XZ 12024a9c f i DTDValidator.obj
 0001:00023aa3       ??_FXMLValidator@xercesc_2_8@@QAEXXZ 12024aa3 f i XMLValidator.obj
 0001:00023aab       ??_EXMLValidator@xercesc_2_8@@UAEPAXI@Z 12024aab f i XMLValidator.obj
 0001:00023af5       ?setScannerInfo@XMLValidator@xercesc_2_8@@QAEXQAVXMLScanner@2@QAVReaderMgr@2@QAVXMLBufferMgr@2@@Z 12024af5 f i XMLValidator.obj
 0001:00023b0d       ?getUserInfo@XMLUri@xercesc_2_8@@QBEPB_WXZ 12024b0d f i XMLString.obj
 0001:00023b0d       ?getReferenceNo@StringToken@xercesc_2_8@@UBEHXZ 12024b0d f i ParserForXMLSchema.obj
 0001:00023b0d       ?getCreateReason@XMLElementDecl@xercesc_2_8@@QBE?AW4CreateReasons@12@XZ 12024b0d f i XMLDTDDescription.obj
 0001:00023b0d       ?getSystemId@XSDLocator@xercesc_2_8@@UBEPB_WXZ 12024b0d f i IGXMLScanner2.obj
 0001:00023b0d       ?getWhatToShow@DOMNodeIteratorImpl@xercesc_2_8@@UAEKXZ 12024b0d f i DOMNodeIteratorImpl.obj
 0001:00023b0d       ?getDocTypeHandler@DTDScanner@xercesc_2_8@@QBEPBVDocTypeHandler@2@XZ 12024b0d f i DGXMLScanner.obj
 0001:00023b0d       ?getElementDecl@ContentSpecNode@xercesc_2_8@@QAEPAVXMLElementDecl@2@XZ 12024b0d f i XSWildcard.obj
 0001:00023b0d       ?getUnRepFlags@XMLFormatter@xercesc_2_8@@QBE?AW4UnRepFlags@12@XZ 12024b0d f i LocalFileFormatTarget.obj
 0001:00023b0d       ?getLen@MemBufFormatTarget@xercesc_2_8@@QBEIXZ 12024b0d f i MemBufFormatTarget.obj
 0001:00023b0d       ?getLeafCount@ContentLeafNameTypeVector@xercesc_2_8@@QBE?BIXZ 12024b0d f i ContentLeafNameTypeVector.obj
 0001:00023b0d       ?getOptions@ModifierToken@xercesc_2_8@@QBEHXZ 12024b0d f i ModifierToken.obj
 0001:00023b0d       ?getNextOp@Op@xercesc_2_8@@QBEPBV12@XZ 12024b0d f i Op.obj
 0001:00023b0d       ?getDerivedBy@ComplexTypeInfo@xercesc_2_8@@QBEHXZ 12024b0d f i XMLElementDecl.obj
 0001:00023b0d       ?getDocTypeHandler@DTDScanner@xercesc_2_8@@QAEPAVDocTypeHandler@2@XZ 12024b0d f i DGXMLScanner.obj
 0001:00023b0d       ?getSize@BinMemInputStream@xercesc_2_8@@QBEIXZ 12024b0d f i BinMemInputStream.obj
 0001:00023b0d       ?getSelector@IdentityConstraint@xercesc_2_8@@QBEPAVIC_Selector@2@XZ 12024b0d f i XMLElementDecl.obj
 0001:00023b0d       ?curPos@BinMemOutputStream@xercesc_2_8@@UBEIXZ 12024b0d f i BinMemOutputStream.obj
 0001:00023b0d       ?getReferenceNo@ConditionToken@xercesc_2_8@@UBEHXZ 12024b0d f i ConditionToken.obj
 0001:00023b0d       ?getRootName@XMLDTDDescriptionImpl@xercesc_2_8@@UBEPB_WXZ 12024b0d f i XMLDTDDescriptionImpl.obj
 0001:00023b0d       ?getPublicId@InputSource@xercesc_2_8@@UBEPB_WXZ 12024b0d f i LocalFileInputSource.obj
 0001:00023b0d       ?getLocation@DOMErrorImpl@xercesc_2_8@@UBEPAVDOMLocator@2@XZ 12024b0d f i DOMBuilderImpl.obj
 0001:00023b0d       ?getTargetNSURI@SchemaInfo@xercesc_2_8@@QBEHXZ 12024b0d f i IGXMLScanner2.obj
 0001:00023b0d       ?getOwnerDocument@DOMEntityImpl@xercesc_2_8@@UBEPAVDOMDocument@2@XZ 12024b0d f i DOMEntityImpl.obj
 0001:00023b0d       ?getOwnerDocument@DOMElementImpl@xercesc_2_8@@UBEPAVDOMDocument@2@XZ 12024b0d f i DOMElementImpl.obj
 0001:00023b0d       ?curPos@BinHTTPURLInputStream@xercesc_2_8@@UBEIXZ 12024b0d f i BinHTTPURLInputStream.obj
 0001:00023b0d       ?getCurrentNode@DOMTreeWalkerImpl@xercesc_2_8@@UAEPAVDOMNode@2@XZ 12024b0d f i DOMTreeWalkerImpl.obj
 0001:00023b0d       ?getTokenFactory@RangeTokenMap@xercesc_2_8@@QBEPAVTokenFactory@2@XZ 12024b0d f i ASCIIRangeFactory.obj
 0001:00023b0d       ?getOwnerDocument@DOMEntityReferenceImpl@xercesc_2_8@@UBEPAVDOMDocument@2@XZ 12024b0d f i DOMEntityReferenceImpl.obj
 0001:00023b0d       ?getNamespaceId@XercesAttGroupInfo@xercesc_2_8@@QBEIXZ 12024b0d f i XSAttributeGroupDefinition.obj
 0001:00023b0d       ?getMemoryManager@XMLTranscoder@xercesc_2_8@@QBEPAVMemoryManager@2@XZ 12024b0d f i PlatformUtils.obj
 0001:00023b0d       ?getNewLine@DOMWriterImpl@xercesc_2_8@@UBEPB_WXZ 12024b0d f i DOMWriterImpl.obj
 0001:00023b0d       ?getColumnNumber@SAXParseException@xercesc_2_8@@QBEJXZ 12024b0d f i SAXParseException.obj
 0001:00023b0d       ?getValue@XMLEntityDecl@xercesc_2_8@@QBEPB_WXZ 12024b0d f i XMLDTDDescription.obj
 0001:00023b0d       ?getScale@XMLBigDecimal@xercesc_2_8@@QBEIXZ 12024b0d f i XMLAbstractDoubleFloat.obj
 0001:00023b0d       ?getKey@KVStringPair@xercesc_2_8@@QBEPB_WXZ 12024b0d f i KVStringPair.obj
 0001:00023b0d       ?getLocationPaths@XercesXPath@xercesc_2_8@@QBEPAV?$RefVectorOf@VXercesLocationPath@xercesc_2_8@@@2@XZ 12024b0d f i XSIDCDefinition.obj
 0001:00023b0d       ?getMin@ClosureToken@xercesc_2_8@@UBEHXZ 12024b0d f i ClosureToken.obj
 0001:00023b0d       ?getChar@CharToken@xercesc_2_8@@UBEHXZ 12024b0d f i CharToken.obj
 0001:00023b0d       ?getKey@XMLNotationDecl@xercesc_2_8@@QBEPB_WXZ 12024b0d f i XMLDTDDescription.obj
 0001:00023b0d       ?getBaseURI@XMLResourceIdentifier@xercesc_2_8@@QBEPB_WXZ 12024b0d f i DGXMLScanner.obj
 0001:00023b0d       ?getOffset@DOMLocatorImpl@xercesc_2_8@@UBEJXZ 12024b0d f i DOMBuilderImpl.obj
 0001:00023b0d       ?getSrcLine@XMLException@xercesc_2_8@@QBEIXZ 12024b0d f i Base64.obj
 0001:00023b0d       ?getOwnerDocument@DOMDocumentTypeImpl@xercesc_2_8@@UBEPAVDOMDocument@2@XZ 12024b0d f i DOMDocumentTypeImpl.obj
 0001:00023b0d       ?getNoParen@ParenToken@xercesc_2_8@@UBEHXZ 12024b0d f i ParenToken.obj
 0001:00023b0d       ?getEntityDeclPool@ValidationContextImpl@xercesc_2_8@@UBEPBV?$NameIdPool@VDTDEntityDecl@xercesc_2_8@@@2@XZ 12024b0d f i ValidationContextImpl.obj
 0001:00023b0d       ?getNameId@XercesGroupInfo@xercesc_2_8@@QBEIXZ 12024b0d f i XSModel.obj
 0001:00023b0d       ?getOwnerDocument@DOMAttrImpl@xercesc_2_8@@UBEPAVDOMDocument@2@XZ 12024b0d f i DOMAttrImpl.obj
 0001:00023b0d       ?getOwnerDocument@DOMDocumentFragmentImpl@xercesc_2_8@@UBEPAVDOMDocument@2@XZ 12024b0d f i DOMDocumentFragmentImpl.obj
 0001:00023b0d       ?getKey@KVStringPair@xercesc_2_8@@QAEPA_WXZ 12024b0d f i KVStringPair.obj
 0001:00023b0d       ?getReaderMgr@XMLValidator@xercesc_2_8@@IBEPBVReaderMgr@2@XZ 12024b0d f i XMLValidator.obj
 0001:00023b0d       ?getSchemaType@DOMConfigurationImpl@xercesc_2_8@@QBEPB_WXZ 12024b0d f i DOMConfigurationImpl.obj
 0001:00023b0d       ?getOwnerDocument@DOMCDATASectionImpl@xercesc_2_8@@UBEPAVDOMDocument@2@XZ 12024b0d f i DOMCDATASectionImpl.obj
 0001:00023b0d       ?getFinalSet@DatatypeValidator@xercesc_2_8@@QBEHXZ 12024b0d f i XMLAttr.obj
 0001:00023b0d       ?getReaderMgr@XMLValidator@xercesc_2_8@@IAEPAVReaderMgr@2@XZ 12024b0d f i XMLValidator.obj
 0001:00023b0d       ?getSchemaNormalizedValue@PSVIItem@xercesc_2_8@@QAEPB_WXZ 12024b0d f i PSVIAttribute.obj
 0001:00023b0d       ?getCreateReason@XMLAttDef@xercesc_2_8@@QBE?AW4CreateReasons@12@XZ 12024b0d f i XMLAttDef.obj
 0001:00023b0d       ?getName@XMLNotationDecl@xercesc_2_8@@QBEPB_WXZ 12024b0d f i XMLDTDDescription.obj
 0001:00023b0d       ?getTargetNamespace@XMLSchemaDescriptionImpl@xercesc_2_8@@UBEPB_WXZ 12024b0d f i XMLSchemaDescriptionImpl.obj
 0001:00023b0d       ?getValue@XMLAttr@xercesc_2_8@@QBEPB_WXZ 12024b0d f i XMLAttr.obj
 0001:00023b0d       ?getNodeName@DOMNotationImpl@xercesc_2_8@@UBEPB_WXZ 12024b0d f i DOMNotationImpl.obj
 0001:00023b0d       ?getElementDecl@ContentSpecNode@xercesc_2_8@@QBEPBVXMLElementDecl@2@XZ 12024b0d f i XSWildcard.obj
 0001:00023b0d       ?getHost@XMLURL@xercesc_2_8@@QBEPB_WXZ 12024b0d f i PlatformUtils.obj
 0001:00023b11       ??0SecurityManager@xercesc_2_8@@QAE@XZ 12024b11 f i XMLValidator.obj
 0001:00023b21       ??1SecurityManager@xercesc_2_8@@UAE@XZ 12024b21 f i XMLValidator.obj
 0001:00023b28       ?setId@XMLNotationDecl@xercesc_2_8@@QAEXI@Z 12024b28 f i XMLDTDDescription.obj
 0001:00023b28       ?setId@XMLEntityDecl@xercesc_2_8@@QAEXI@Z 12024b28 f i XMLDTDDescription.obj
 0001:00023b28       ?setMatcherStack@FieldActivator@xercesc_2_8@@QAEXQAVXPathMatcherStack@2@@Z 12024b28 f i FieldActivator.obj
 0001:00023b28       ?setEntityExpansionLimit@SecurityManager@xercesc_2_8@@UAEXI@Z 12024b28 f i XMLValidator.obj
 0001:00023b28       ?setLineNumber@DOMLocatorImpl@xercesc_2_8@@UAEXJ@Z 12024b28 f i DOMBuilderImpl.obj
 0001:00023b28       ?setType@XMLAttr@xercesc_2_8@@QAEXW4AttTypes@XMLAttDef@2@@Z 12024b28 f i XMLAttr.obj
 0001:00023b28       ?setValidationContext@GeneralAttributeCheck@xercesc_2_8@@QAEXQAVValidationContext@2@@Z 12024b28 f i IGXMLScanner2.obj
 0001:00023b28       ?setBlockDefault@SchemaInfo@xercesc_2_8@@QAEXH@Z 12024b28 f i IGXMLScanner2.obj
 0001:00023b28       ?setDefaultType@XMLAttDef@xercesc_2_8@@QAEXW4DefAttTypes@12@@Z 12024b28 f i XMLAttDef.obj
 0001:00023b32       ??_ESecurityManager@xercesc_2_8@@UAEPAXI@Z 12024b32 f i XMLValidator.obj
 0001:00023b7c       ??0Locator@xercesc_2_8@@QAE@XZ 12024b7c f i XMLValidator.obj
 0001:00023b85       ??1Locator@xercesc_2_8@@UAE@XZ 12024b85 f i XMLValidator.obj
 0001:00023b85       ??1XSDLocator@xercesc_2_8@@UAE@XZ 12024b85 f i IGXMLScanner2.obj
 0001:00023b8c       ??_ELocator@xercesc_2_8@@UAEPAXI@Z 12024b8c f i XMLValidator.obj
 0001:00023bd6       ??_FReaderMgr@xercesc_2_8@@QAEXXZ 12024bd6 f i XMLValidator.obj
 0001:00023be2       ?getCurrentReaderNum@ReaderMgr@xercesc_2_8@@QBEIXZ 12024be2 f i XMLValidator.obj
 0001:00023bec       ?getIdentityConstraint@ValueStore@xercesc_2_8@@QBEPAVIdentityConstraint@2@XZ 12024bec f i FieldActivator.obj
 0001:00023bec       ?getNodeTest@XercesStep@xercesc_2_8@@QBEPAVXercesNodeTest@2@XZ 12024bec f i XSIDCDefinition.obj
 0001:00023bec       ?getValueLen@XMLEntityDecl@xercesc_2_8@@QBEIXZ 12024bec f i XMLDTDDescription.obj
 0001:00023bec       ?getFinalDefault@SchemaInfo@xercesc_2_8@@QBEHXZ 12024bec f i IGXMLScanner2.obj
 0001:00023bec       ?getContextType@XMLSchemaDescriptionImpl@xercesc_2_8@@UBE?AW4ContextType@XMLSchemaDescription@2@XZ 12024bec f i XMLSchemaDescriptionImpl.obj
 0001:00023bec       ?getNamespaceItems@XSModel@xercesc_2_8@@QAEPAV?$RefVectorOf@VXSNamespaceItem@xercesc_2_8@@@2@XZ 12024bec f i XMLValidator.obj
 0001:00023bec       ?getValidationContext@PSVIItem@xercesc_2_8@@QAEPB_WXZ 12024bec f i PSVIAttribute.obj
 0001:00023bec       ?getIdentityConstraint@IC_Field@xercesc_2_8@@QBEPAVIdentityConstraint@2@XZ 12024bec f i XMLElementDecl.obj
 0001:00023bec       ?getType@XMLAttDef@xercesc_2_8@@QBE?AW4AttTypes@12@XZ 12024bec f i XMLAttDef.obj
 0001:00023bec       ?getEntityResolver@DOMBuilderImpl@xercesc_2_8@@UBEPBVDOMEntityResolver@2@XZ 12024bec f i DOMBuilderImpl.obj
 0001:00023bec       ?getMessage@DOMException@xercesc_2_8@@QBEPB_WXZ 12024bec f i AbstractDOMParser.obj
 0001:00023bec       ?getElement@ContentSpecNode@xercesc_2_8@@QBEPBVQName@2@XZ 12024bec f i XSWildcard.obj
 0001:00023bec       ?getFilter@DOMTreeWalkerImpl@xercesc_2_8@@UAEPAVDOMNodeFilter@2@XZ 12024bec f i DOMTreeWalkerImpl.obj
 0001:00023bec       ?getName@XercesNodeTest@xercesc_2_8@@QBEPAVQName@2@XZ 12024bec f i XSIDCDefinition.obj
 0001:00023bec       ?getColumnNumber@XSDLocator@xercesc_2_8@@UBEJXZ 12024bec f i IGXMLScanner2.obj
 0001:00023bec       ?getCurrentReader@ReaderMgr@xercesc_2_8@@QBEPBVXMLReader@2@XZ 12024bec f i XMLValidator.obj
 0001:00023bec       ?getElementName@IdentityConstraint@xercesc_2_8@@QBEPA_WXZ 12024bec f i XMLElementDecl.obj
 0001:00023bec       ?getScope@XercesGroupInfo@xercesc_2_8@@QBEHXZ 12024bec f i XSModel.obj
 0001:00023bec       ?getColumnNumber@DOMLocatorImpl@xercesc_2_8@@UBEJXZ 12024bec f i DOMBuilderImpl.obj
 0001:00023bec       ?getRefName@XMLRefInfo@xercesc_2_8@@QBEPB_WXZ 12024bec f i XMLRefInfo.obj
 0001:00023bec       ?getEncodingName@XMLTranscoder@xercesc_2_8@@QBEPB_WXZ 12024bec f i PlatformUtils.obj
 0001:00023bec       ?getFragment@XMLURL@xercesc_2_8@@QBEPB_WXZ 12024bec f i PlatformUtils.obj
 0001:00023bec       ?getTotalDigit@XMLBigDecimal@xercesc_2_8@@QBEIXZ 12024bec f i XMLAbstractDoubleFloat.obj
 0001:00023bec       ?getLength@VecAttrListImpl@xercesc_2_8@@UBEIXZ 12024bec f i VecAttrListImpl.obj
 0001:00023bec       ?getErrorHandler@DOMConfigurationImpl@xercesc_2_8@@QBEPAVDOMErrorHandler@2@XZ 12024bec f i DOMConfigurationImpl.obj
 0001:00023bec       ?getScheme@XMLUri@xercesc_2_8@@QBEPB_WXZ 12024bec f i XMLString.obj
 0001:00023bec       ?getNameId@XercesAttGroupInfo@xercesc_2_8@@QBEIXZ 12024bec f i XSAttributeGroupDefinition.obj
 0001:00023bec       ?getEncoding@DOMWriterImpl@xercesc_2_8@@UBEPB_WXZ 12024bec f i DOMWriterImpl.obj
 0001:00023bec       ?getCurrentReader@ReaderMgr@xercesc_2_8@@QAEPAVXMLReader@2@XZ 12024bec f i XMLValidator.obj
 0001:00023bec       ?getMessage@DOMErrorImpl@xercesc_2_8@@UBEPB_WXZ 12024bec f i DOMBuilderImpl.obj
 0001:00023bec       ?getSystemId@XMLDTDDescriptionImpl@xercesc_2_8@@UBEPB_WXZ 12024bec f i XMLDTDDescriptionImpl.obj
 0001:00023bec       ?getIdentityConstraint@IC_Selector@xercesc_2_8@@QBEPAVIdentityConstraint@2@XZ 12024bec f i XSIDCDefinition.obj
 0001:00023bec       ?getEntityResolver@DOMBuilderImpl@xercesc_2_8@@UAEPAVDOMEntityResolver@2@XZ 12024bec f i DOMBuilderImpl.obj
 0001:00023bec       ?getEncoding@InputSource@xercesc_2_8@@UBEPB_WXZ 12024bec f i LocalFileInputSource.obj
 0001:00023bec       ?getSchemaLocation@XMLResourceIdentifier@xercesc_2_8@@QBEPB_WXZ 12024bec f i DGXMLScanner.obj
 0001:00023bec       ?getIdRefList@ValidationContextImpl@xercesc_2_8@@UBEPAV?$RefHashTableOf@VXMLRefInfo@xercesc_2_8@@@2@XZ 12024bec f i ValidationContextImpl.obj
 0001:00023bec       ?getElement@ContentSpecNode@xercesc_2_8@@QAEPAVQName@2@XZ 12024bec f i XSWildcard.obj
 0001:00023bec       ?getCategories@RangeTokenMap@xercesc_2_8@@IBEPAVXMLStringPool@2@XZ 12024bec f i ASCIIRangeFactory.obj
 0001:00023bec       ?getRawData@XMLBigInteger@xercesc_2_8@@QBEPA_WXZ 12024bec f i XMLBigDecimal.obj
 0001:00023bec       ?getElementName@XMLElementDecl@xercesc_2_8@@QAEPAVQName@2@XZ 12024bec f i XMLDTDDescription.obj
 0001:00023bec       ?getExpression@XercesXPath@xercesc_2_8@@QAEPA_WXZ 12024bec f i XSIDCDefinition.obj
 0001:00023bec       ?getElementName@XMLElementDecl@xercesc_2_8@@QBEPBVQName@2@XZ 12024bec f i XMLDTDDescription.obj
 0001:00023bec       ?getSystemId@XMLResourceIdentifier@xercesc_2_8@@QBEPB_WXZ 12024bec f i DGXMLScanner.obj
 0001:00023bec       ?getLength@VecAttributesImpl@xercesc_2_8@@UBEIXZ 12024bec f i VecAttributesImpl.obj
 0001:00023bec       ?getNameSpaceId@XMLNotationDecl@xercesc_2_8@@QBEIXZ 12024bec f i XMLDTDDescription.obj
 0001:00023bf0       ?getName@ReaderMgr@xercesc_2_8@@QAE_NAAVXMLBuffer@2@@Z 12024bf0 f i XMLValidator.obj
 0001:00023c0d       ?getQName@ReaderMgr@xercesc_2_8@@QAE_NAAVXMLBuffer@2@PAH@Z 12024c0d f i XMLValidator.obj
 0001:00023c2b       ?getNameToken@ReaderMgr@xercesc_2_8@@QAE_NAAVXMLBuffer@2@@Z 12024c2b f i XMLValidator.obj
 0001:00023c47       ?getNextCharIfNot@ReaderMgr@xercesc_2_8@@QAE_N_WAA_W@Z 12024c47 f i XMLValidator.obj
 0001:00023c4f       ?movePlainContentChars@ReaderMgr@xercesc_2_8@@QAEXAAVXMLBuffer@2@@Z 12024c4f f i XMLValidator.obj
 0001:00023c57       ?getSrcOffset@ReaderMgr@xercesc_2_8@@QBEIXZ 12024c57 f i XMLValidator.obj
 0001:00023c66       ?lookingAtChar@ReaderMgr@xercesc_2_8@@QAE_N_W@Z 12024c66 f i XMLValidator.obj
 0001:00023c7a       ?lookingAtSpace@ReaderMgr@xercesc_2_8@@QAE_NXZ 12024c7a f i XMLValidator.obj
 0001:00023c9a       ?setSchemaValidated@XMLAttr@xercesc_2_8@@QAEX_N@Z 12024c9a f i XMLAttr.obj
 0001:00023c9a       ?setAdoptFirst@ContentSpecNode@xercesc_2_8@@QAEX_N@Z 12024c9a f i XSWildcard.obj
 0001:00023c9a       ?setIgnoreAnnotations@XMLScanner@xercesc_2_8@@QAEX_N@Z 12024c9a f i XMLValidator.obj
 0001:00023c9a       ?setThrowEOE@ReaderMgr@xercesc_2_8@@QAEX_N@Z 12024c9a f i XMLValidator.obj
 0001:00023ca4       ?setStandardUriConformant@ReaderMgr@xercesc_2_8@@QAEX_N@Z 12024ca4 f i XMLValidator.obj
 0001:00023ca4       ?setNillable@SchemaValidator@xercesc_2_8@@QAEX_N@Z 12024ca4 f i IGXMLScanner.obj
 0001:00023cae       ?skippedString@ReaderMgr@xercesc_2_8@@QAE_NQB_W@Z 12024cae f i XMLValidator.obj
 0001:00023cb6       ?skipToChar@ReaderMgr@xercesc_2_8@@QAEX_W@Z 12024cb6 f i XMLValidator.obj
 0001:00023cd3       ?skipPastChar@ReaderMgr@xercesc_2_8@@QAEX_W@Z 12024cd3 f i XMLValidator.obj
 0001:00023cf2       ?peekString@ReaderMgr@xercesc_2_8@@QAE_NQB_W@Z 12024cf2 f i XMLValidator.obj
 0001:00023cfa       ?setXMLVersion@ReaderMgr@xercesc_2_8@@QAEXW4XMLVersion@XMLReader@2@@Z 12024cfa f i XMLValidator.obj
 0001:00023d0d       ??0ThrowEOEJanitor@xercesc_2_8@@QAE@PAVReaderMgr@1@_N@Z 12024d0d f i XMLValidator.obj
 0001:00023d25       ??1ThrowEOEJanitor@xercesc_2_8@@QAE@XZ 12024d25 f i XMLValidator.obj
 0001:00023d2e       ??_FElemStack@xercesc_2_8@@QAEXXZ 12024d2e f i XMLValidator.obj
 0001:00023d3a       ??_FWFElemStack@xercesc_2_8@@QAEXXZ 12024d3a f i XMLValidator.obj
 0001:00023d46       ?isEmpty@ElemStack@xercesc_2_8@@QBE_NXZ 12024d46 f i XMLValidator.obj
 0001:00023d4f       ?getValidationFlag@ElemStack@xercesc_2_8@@QAE_NXZ 12024d4f f i XMLValidator.obj
 0001:00023d5d       ?setValidationFlag@ElemStack@xercesc_2_8@@QAEX_N@Z 12024d5d f i XMLValidator.obj
 0001:00023d71       ?getCommentOrPISeen@ElemStack@xercesc_2_8@@QBE_NXZ 12024d71 f i XMLValidator.obj
 0001:00023d7f       ?setCommentOrPISeen@ElemStack@xercesc_2_8@@QAEXXZ 12024d7f f i XMLValidator.obj
 0001:00023d8e       ?getReferenceEscaped@ElemStack@xercesc_2_8@@QBE_NXZ 12024d8e f i XMLValidator.obj
 0001:00023d9c       ?setReferenceEscaped@ElemStack@xercesc_2_8@@QAEXXZ 12024d9c f i XMLValidator.obj
 0001:00023dab       ?setCurrentSchemaElemName@ElemStack@xercesc_2_8@@QAEXQB_W@Z 12024dab f i XMLValidator.obj
 0001:00023e1c       ?getCurrentSchemaElemName@ElemStack@xercesc_2_8@@QAEPA_WXZ 12024e1c f i XMLValidator.obj
 0001:00023e2a       ?getCurrentScope@ElemStack@xercesc_2_8@@QAEHXZ 12024e2a f i XMLValidator.obj
 0001:00023e38       ?setCurrentScope@ElemStack@xercesc_2_8@@QAEXH@Z 12024e38 f i XMLValidator.obj
 0001:00023e4c       ?getCurrentGrammar@ElemStack@xercesc_2_8@@QAEPAVGrammar@2@XZ 12024e4c f i XMLValidator.obj
 0001:00023e5a       ?setCurrentGrammar@ElemStack@xercesc_2_8@@QAEXPAVGrammar@2@@Z 12024e5a f i XMLValidator.obj
 0001:00023e6e       ?getCurrentURI@ElemStack@xercesc_2_8@@QAEIXZ 12024e6e f i XMLValidator.obj
 0001:00023e7c       ?setCurrentURI@ElemStack@xercesc_2_8@@QAEXI@Z 12024e7c f i XMLValidator.obj
 0001:00023e90       ?getPrefixId@ElemStack@xercesc_2_8@@QBEIQB_W@Z 12024e90 f i XMLValidator.obj
 0001:00023e98       ?getPrefixForId@ElemStack@xercesc_2_8@@QBEPB_WI@Z 12024e98 f i XMLValidator.obj
 0001:00023ea0       ?setPrefixColonPos@ElemStack@xercesc_2_8@@QAEXH@Z 12024ea0 f i XMLValidator.obj
 0001:00023eb4       ?getPrefixColonPos@ElemStack@xercesc_2_8@@QBEHXZ 12024eb4 f i XMLValidator.obj
 0001:00023ec2       ?isEmpty@WFElemStack@xercesc_2_8@@QBE_NXZ 12024ec2 f i XMLValidator.obj
 0001:00023ecb       ?getCurrentURI@WFElemStack@xercesc_2_8@@QAEIXZ 12024ecb f i XMLValidator.obj
 0001:00023ed9       ?setCurrentURI@WFElemStack@xercesc_2_8@@QAEXI@Z 12024ed9 f i XMLValidator.obj
 0001:00023eed       ??_FDTDEntityDecl@xercesc_2_8@@QAEXXZ 12024eed f i XMLValidator.obj
 0001:00023ef9       ??_EDTDEntityDecl@xercesc_2_8@@UAEPAXI@Z 12024ef9 f i XMLValidator.obj
 0001:00023f48       ??0DTDEntityDecl@xercesc_2_8@@QAE@QAVMemoryManager@1@@Z 12024f48 f i XMLValidator.obj
 0001:00023f69       ??0DTDEntityDecl@xercesc_2_8@@QAE@QB_W_NQAVMemoryManager@1@@Z 12024f69 f i XMLValidator.obj
 0001:00023f94       ??0DTDEntityDecl@xercesc_2_8@@QAE@QB_W0_NQAVMemoryManager@1@@Z 12024f94 f i XMLValidator.obj
 0001:00023fc3       ??0DTDEntityDecl@xercesc_2_8@@QAE@QB_W_W_N2@Z 12024fc3 f i XMLValidator.obj
 0001:00023ff7       ??1DTDEntityDecl@xercesc_2_8@@UAE@XZ 12024ff7 f i XMLValidator.obj
 0001:00024002       ?getDeclaredInIntSubset@DTDEntityDecl@xercesc_2_8@@UBE_NXZ 12025002 f i XMLValidator.obj
 0001:00024006       ?getIsParameter@DTDEntityDecl@xercesc_2_8@@UBE_NXZ 12025006 f i XMLValidator.obj
 0001:0002400a       ?getIsSpecialChar@DTDEntityDecl@xercesc_2_8@@UBE_NXZ 1202500a f i XMLValidator.obj
 0001:0002400e       ?setDeclaredInIntSubset@DTDEntityDecl@xercesc_2_8@@QAEX_N@Z 1202500e f i XMLValidator.obj
 0001:00024018       ?setIsParameter@DTDEntityDecl@xercesc_2_8@@QAEX_N@Z 12025018 f i XMLValidator.obj
 0001:00024022       ?setIsSpecialChar@DTDEntityDecl@xercesc_2_8@@QAEX_N@Z 12025022 f i XMLValidator.obj
 0001:0002402c       ??1XMLGrammarPool@xercesc_2_8@@UAE@XZ 1202502c f i XMLValidator.obj
 0001:00024033       ?getXSModel@XMLGrammarPool@xercesc_2_8@@UAEPAVXSModel@2@AA_N@Z 12025033 f i XMLValidator.obj
 0001:00024042       ?setIgnoreSerializedAnnotations@XMLGrammarPool@xercesc_2_8@@QAEX_N@Z 12025042 f i XMLValidator.obj
 0001:00024042       ?setPreprocessed@ComplexTypeInfo@xercesc_2_8@@QAEX_N@Z 12025042 f i XMLElementDecl.obj
 0001:0002404c       ??0XMLGrammarPool@xercesc_2_8@@IAE@QAVMemoryManager@1@@Z 1202504c f i XMLValidator.obj
 0001:00024062       ??_FXMLGrammarPool@xercesc_2_8@@QAEXXZ 12025062 f i XMLValidator.obj
 0001:00024075       ??_EXMLGrammarPool@xercesc_2_8@@UAEPAXI@Z 12025075 f i XMLValidator.obj
 0001:000240bf       ?useCachedGrammarInParse@GrammarResolver@xercesc_2_8@@QAEX_N@Z 120250bf f i XMLValidator.obj
 0001:000240bf       ?setProcessed@SchemaInfo@xercesc_2_8@@QAEX_N@Z 120250bf f i IGXMLScanner2.obj
 0001:000240c9       ?getGrammarPoolMemoryManager@GrammarResolver@xercesc_2_8@@QBEPAVMemoryManager@2@XZ 120250c9 f i XMLValidator.obj
 0001:000240d0       ?bufferFull@XMLScanner@xercesc_2_8@@UAE_NAAVXMLBuffer@2@@Z 120250d0 f i XMLValidator.obj
 0001:000240de       ?getDocTypeHandler@XMLScanner@xercesc_2_8@@QBEPBVDocTypeHandler@2@XZ 120250de f i XMLValidator.obj
 0001:000240de       ?getLocator@ComplexTypeInfo@xercesc_2_8@@QBEPAVXSDLocator@2@XZ 120250de f i XMLElementDecl.obj
 0001:000240de       ?getPSVIHandler@AbstractDOMParser@xercesc_2_8@@QBEPBVPSVIHandler@2@XZ 120250de f i XSAnnotation.obj
 0001:000240de       ?getFractionDigits@DecimalDatatypeValidator@xercesc_2_8@@QBEIXZ 120250de f i DatatypeValidator.obj
 0001:000240de       ?getDocTypeHandler@XMLScanner@xercesc_2_8@@QAEPAVDocTypeHandler@2@XZ 120250de f i XMLValidator.obj
 0001:000240de       ?getLexicalHandler@SAX2XMLReaderImpl@xercesc_2_8@@UBEPAVLexicalHandler@2@XZ 120250de f i SAX2XMLReaderImpl.obj
 0001:000240de       ?getPSVIHandler@AbstractDOMParser@xercesc_2_8@@QAEPAVPSVIHandler@2@XZ 120250de f i XSAnnotation.obj
 0001:000240e2       ?getDoNamespaces@XMLScanner@xercesc_2_8@@QBE_NXZ 120250e2 f i XMLValidator.obj
 0001:000240e6       ?getXMLEntityResolver@XercesDOMParser@xercesc_2_8@@QAEPAVXMLEntityResolver@2@XZ 120250e6 f i XSAnnotation.obj
 0001:000240e6       ?getErrorReporter@XMLScanner@xercesc_2_8@@QAEPAVXMLErrorReporter@2@XZ 120250e6 f i XMLValidator.obj
 0001:000240e6       ?getXMLEntityResolver@XercesDOMParser@xercesc_2_8@@QBEPBVXMLEntityResolver@2@XZ 120250e6 f i XSAnnotation.obj
 0001:000240e6       ?getErrorReporter@XMLScanner@xercesc_2_8@@QBEPBVXMLErrorReporter@2@XZ 120250e6 f i XMLValidator.obj
 0001:000240ea       ?getErrorHandler@XMLScanner@xercesc_2_8@@QAEPAVErrorHandler@2@XZ 120250ea f i XMLValidator.obj
 0001:000240ea       ?getErrorHandler@XercesDOMParser@xercesc_2_8@@QAEPAVErrorHandler@2@XZ 120250ea f i XSAnnotation.obj
 0001:000240ea       ?getErrorHandler@XMLScanner@xercesc_2_8@@QBEPBVErrorHandler@2@XZ 120250ea f i XMLValidator.obj
 0001:000240ea       ?getErrorHandler@XercesDOMParser@xercesc_2_8@@QBEPBVErrorHandler@2@XZ 120250ea f i XSAnnotation.obj
 0001:000240ee       ?getExitOnFirstFatal@XMLScanner@xercesc_2_8@@QBE_NXZ 120250ee f i XMLValidator.obj
 0001:000240f2       ?hasDefaults@DOMAttrMapImpl@xercesc_2_8@@UAE_NXZ 120250f2 f i AbstractDOMParser.obj
 0001:000240f2       ?getValidationConstraintFatal@XMLScanner@xercesc_2_8@@QBE_NXZ 120250f2 f i XMLValidator.obj
 0001:000240f2       ?getInUse@XMLBuffer@xercesc_2_8@@QBE_NXZ 120250f2 f i Base64.obj
 0001:000240f6       ?getInException@XMLScanner@xercesc_2_8@@QBE_NXZ 120250f6 f i XMLValidator.obj
 0001:000240fa       ?getIDRefList@XMLScanner@xercesc_2_8@@QAEPAV?$RefHashTableOf@VXMLRefInfo@xercesc_2_8@@@2@XZ 120250fa f i XMLValidator.obj
 0001:000240fa       ?getIDRefList@XMLScanner@xercesc_2_8@@QBEPBV?$RefHashTableOf@VXMLRefInfo@xercesc_2_8@@@2@XZ 120250fa f i XMLValidator.obj
 0001:00024102       ?getValidationContext@XMLScanner@xercesc_2_8@@QAEPAVValidationContext@2@XZ 12025102 f i XMLValidator.obj
 0001:00024127       ?getReaderMgr@XMLScanner@xercesc_2_8@@QBEPBVReaderMgr@2@XZ 12025127 f i XMLValidator.obj
 0001:00024127       ?getLocator@XMLScanner@xercesc_2_8@@QBEPBVLocator@2@XZ 12025127 f i XMLValidator.obj
 0001:0002412e       ?getSrcOffset@XMLScanner@xercesc_2_8@@QBEIXZ 1202512e f i XMLValidator.obj
 0001:00024140       ?getStandalone@XMLScanner@xercesc_2_8@@QBE_NXZ 12025140 f i XMLValidator.obj
 0001:00024144       ?getValidationScheme@XMLScanner@xercesc_2_8@@QBE?AW4ValSchemes@12@XZ 12025144 f i XMLValidator.obj
 0001:0002414b       ?getValidator@XMLScanner@xercesc_2_8@@QAEPAVXMLValidator@2@XZ 1202514b f i XMLValidator.obj
 0001:0002414b       ?getValidator@XMLScanner@xercesc_2_8@@QBEPBVXMLValidator@2@XZ 1202514b f i XMLValidator.obj
 0001:00024152       ?getDoSchema@XMLScanner@xercesc_2_8@@QBE_NXZ 12025152 f i XMLValidator.obj
 0001:00024156       ?getValidationSchemaFullChecking@XMLScanner@xercesc_2_8@@QBE_NXZ 12025156 f i XMLValidator.obj
 0001:0002415a       ?isExternal@XMLAttDef@xercesc_2_8@@QBE_NXZ 1202515a f i XMLAttDef.obj
 0001:0002415a       ?isValidatorFromUser@XMLScanner@xercesc_2_8@@QAE_NXZ 1202515a f i XMLValidator.obj
 0001:0002415e       ?getURIStringPool@XMLScanner@xercesc_2_8@@QAEPAVXMLStringPool@2@XZ 1202515e f i XMLValidator.obj
 0001:0002415e       ?getURIStringPool@XMLScanner@xercesc_2_8@@QBEPBVXMLStringPool@2@XZ 1202515e f i XMLValidator.obj
 0001:00024165       ?getHasNoDTD@XMLScanner@xercesc_2_8@@QBE_NXZ 12025165 f i XMLValidator.obj
 0001:00024169       ?getExternalSchemaLocation@XMLScanner@xercesc_2_8@@QBEPA_WXZ 12025169 f i XMLValidator.obj
 0001:00024170       ?getExternalNoNamespaceSchemaLocation@XMLScanner@xercesc_2_8@@QBEPA_WXZ 12025170 f i XMLValidator.obj
 0001:00024177       ?getSecurityManager@XMLScanner@xercesc_2_8@@QBEPAVSecurityManager@2@XZ 12025177 f i XMLValidator.obj
 0001:0002417e       ?getLoadExternalDTD@XMLScanner@xercesc_2_8@@QBE_NXZ 1202517e f i XMLValidator.obj
 0001:0002417e       ?getParseInProgress@AbstractDOMParser@xercesc_2_8@@IBE_NXZ 1202517e f i XSAnnotation.obj
 0001:00024182       ?isUsingCachedGrammarInParse@XMLScanner@xercesc_2_8@@QBE_NXZ 12025182 f i XMLValidator.obj
 0001:00024186       ?getCalculateSrcOfs@XMLScanner@xercesc_2_8@@QBE_NXZ 12025186 f i XMLValidator.obj
 0001:0002418a       ?getRootGrammar@XMLScanner@xercesc_2_8@@QBEPAVGrammar@2@XZ 1202518a f i XMLValidator.obj
 0001:00024191       ?getXMLVersion@XMLScanner@xercesc_2_8@@QBE?AW4XMLVersion@XMLReader@2@XZ 12025191 f i XMLValidator.obj
 0001:00024198       ?getMemoryManager@XMLScanner@xercesc_2_8@@QBEPAVMemoryManager@2@XZ 12025198 f i XMLValidator.obj
 0001:0002419f       ?getNamespaceContext@XMLScanner@xercesc_2_8@@QBEPAV?$ValueVectorOf@PAUPrefMapElem@xercesc_2_8@@@2@XZ 1202519f f i XMLValidator.obj
 0001:000241aa       ?getPrefixId@XMLScanner@xercesc_2_8@@QBEIQB_W@Z 120251aa f i XMLValidator.obj
 0001:000241b5       ?getPrefixForId@XMLScanner@xercesc_2_8@@QBEPB_WI@Z 120251b5 f i XMLValidator.obj
 0001:000241c0       ?getCreateSchemaInfo@AbstractDOMParser@xercesc_2_8@@QBE_NXZ 120251c0 f i XSAnnotation.obj
 0001:000241c0       ?getValidateAnnotations@XMLScanner@xercesc_2_8@@QBE_NXZ 120251c0 f i XMLValidator.obj
 0001:000241c4       ?getIgnoreCachedDTD@XMLScanner@xercesc_2_8@@QBE_NXZ 120251c4 f i XMLValidator.obj
 0001:000241c8       ?getSkipDTDValidation@XMLScanner@xercesc_2_8@@QBE_NXZ 120251c8 f i XMLValidator.obj
 0001:000241cc       ?setErrorHandler@XMLScanner@xercesc_2_8@@QAEXQAVErrorHandler@2@@Z 120251cc f i XMLValidator.obj
 0001:000241d6       ?setPSVIHandler@XMLScanner@xercesc_2_8@@QAEXQAVPSVIHandler@2@@Z 120251d6 f i XMLValidator.obj
 0001:000241e0       ?setEntityHandler@XMLScanner@xercesc_2_8@@QAEXQAVXMLEntityHandler@2@@Z 120251e0 f i XMLValidator.obj
 0001:000241f0       ?setErrorReporter@XMLScanner@xercesc_2_8@@QAEXQAVXMLErrorReporter@2@@Z 120251f0 f i XMLValidator.obj
 0001:000241fa       ?setExitOnFirstFatal@XMLScanner@xercesc_2_8@@QAEX_N@Z 120251fa f i XMLValidator.obj
 0001:00024204       ?setValidationScheme@XMLScanner@xercesc_2_8@@QAEXW4ValSchemes@12@@Z 12025204 f i XMLValidator.obj
 0001:0002421a       ?setDoSchema@XMLScanner@xercesc_2_8@@QAEX_N@Z 1202521a f i XMLValidator.obj
 0001:00024224       ?setDoNamespaces@XMLScanner@xercesc_2_8@@QAEX_N@Z 12025224 f i XMLValidator.obj
 0001:0002422e       ?setValidationSchemaFullChecking@XMLScanner@xercesc_2_8@@QAEX_N@Z 1202522e f i XMLValidator.obj
 0001:00024238       ?setHasNoDTD@XMLScanner@xercesc_2_8@@QAEX_N@Z 12025238 f i XMLValidator.obj
 0001:00024242       ?setRootElemName@XMLScanner@xercesc_2_8@@QAEXPA_W@Z 12025242 f i XMLValidator.obj
 0001:0002426f       ?setExternalSchemaLocation@XMLScanner@xercesc_2_8@@QAEXQB_W@Z 1202526f f i XMLValidator.obj
 0001:0002429c       ?setExternalNoNamespaceSchemaLocation@XMLScanner@xercesc_2_8@@QAEXQB_W@Z 1202529c f i XMLValidator.obj
 0001:000242c9       ?setExternalSchemaLocation@XMLScanner@xercesc_2_8@@QAEXQBD@Z 120252c9 f i XMLValidator.obj
 0001:000242f6       ?setExternalNoNamespaceSchemaLocation@XMLScanner@xercesc_2_8@@QAEXQBD@Z 120252f6 f i XMLValidator.obj
 0001:00024323       ?setSecurityManager@XMLScanner@xercesc_2_8@@QAEXQAVSecurityManager@2@@Z 12025323 f i XMLValidator.obj
 0001:00024344       ?setParseInProgress@AbstractDOMParser@xercesc_2_8@@IAEX_N@Z 12025344 f i XSAnnotation.obj
 0001:00024344       ?setLoadExternalDTD@XMLScanner@xercesc_2_8@@QAEX_N@Z 12025344 f i XMLValidator.obj
 0001:0002434e       ?setCreateCommentNodes@AbstractDOMParser@xercesc_2_8@@QAEX_N@Z 1202534e f i XSAnnotation.obj
 0001:0002434e       ?setNormalizeData@XMLScanner@xercesc_2_8@@QAEX_N@Z 1202534e f i XMLValidator.obj
 0001:00024358       ?useCachedGrammarInParse@XMLScanner@xercesc_2_8@@QAEX_N@Z 12025358 f i XMLValidator.obj
 0001:00024362       ?setCalculateSrcOfs@XMLScanner@xercesc_2_8@@QAEX_N@Z 12025362 f i XMLValidator.obj
 0001:0002436c       ?setStandardUriConformant@XMLScanner@xercesc_2_8@@QAEX_N@Z 1202536c f i XMLValidator.obj
 0001:0002437c       ?setGenerateSyntheticAnnotations@XMLScanner@xercesc_2_8@@QAEX_N@Z 1202537c f i XMLValidator.obj
 0001:00024386       ?setValidateAnnotations@XMLScanner@xercesc_2_8@@QAEX_N@Z 12025386 f i XMLValidator.obj
 0001:00024390       ?setInputBufferSize@XMLScanner@xercesc_2_8@@QAEXI@Z 12025390 f i XMLValidator.obj
 0001:000243a7       ?setIgnoredCachedDTD@XMLScanner@xercesc_2_8@@QAEX_N@Z 120253a7 f i XMLValidator.obj
 0001:000243b1       ?setDisableDefaultEntityResolution@XMLScanner@xercesc_2_8@@QAEX_N@Z 120253b1 f i XMLValidator.obj
 0001:000243b1       ?setAdoptSecond@ContentSpecNode@xercesc_2_8@@QAEX_N@Z 120253b1 f i XSWildcard.obj
 0001:000243bb       ?setSkipDTDValidation@XMLScanner@xercesc_2_8@@QAEX_N@Z 120253bb f i XMLValidator.obj
 0001:000243c5       ?incrementErrorCount@XMLScanner@xercesc_2_8@@QAEXXZ 120253c5 f i XMLValidator.obj
 0001:000243c9       ?getDoValidation@XMLScanner@xercesc_2_8@@QBE_NXZ 120253c9 f i XMLValidator.obj
 0001:000243c9       ?getProvided@XMLAttDef@xercesc_2_8@@QBE_NXZ 120253c9 f i XMLAttDef.obj
 0001:000243cd       ?setDoValidation@XMLScanner@xercesc_2_8@@QAEX_N@Z 120253cd f i XMLValidator.obj
 0001:000243e4       ?resetValidationContext@XMLScanner@xercesc_2_8@@IAEXXZ 120253e4 f i XMLValidator.obj
 0001:000243ff       ?setAttrDupChkRegistry@XMLScanner@xercesc_2_8@@IAEXABIAA_N@Z 120253ff f i XMLValidator.obj
 0001:00024483       ?getCurrentGrammarType@XMLScanner@xercesc_2_8@@UBE?AW4GrammarType@Grammar@2@XZ 12025483 f i XMLValidator.obj
 0001:00024483       ?size@ConcatToken@xercesc_2_8@@UBEHXZ 12025483 f i ConcatToken.obj
 0001:0002457d       ?initializeValidatorMsgLoader@XMLInitializer@xercesc_2_8@@CAXXZ 1202557d f   XMLValidator.obj
 0001:000245a1       ?emitError@XMLValidator@xercesc_2_8@@QAEXW4Codes@XMLValid@2@@Z 120255a1 f   XMLValidator.obj
 0001:00024676       ?emitError@XMLValidator@xercesc_2_8@@QAEXW4Codes@XMLValid@2@QB_W111@Z 12025676 f   XMLValidator.obj
 0001:00024781       ?emitError@XMLValidator@xercesc_2_8@@QAEXW4Codes@XMLValid@2@QBD111@Z 12025781 f   XMLValidator.obj
 0001:0002488c       ?emitError@XMLValidator@xercesc_2_8@@QAEXW4Codes@XMLValid@2@W43XMLExcepts@2@QB_W222@Z 1202588c f   XMLValidator.obj
 0001:00024999       ??0XMLValidator@xercesc_2_8@@IAE@QAVXMLErrorReporter@1@@Z 12025999 f   XMLValidator.obj
 0001:000249b6       ?reinitMsgMutex@XMLValidator@xercesc_2_8@@SAXXZ 120259b6 f   XMLValidator.obj
 0001:000249d8       ?reinitMsgLoader@XMLValidator@xercesc_2_8@@SAXXZ 120259d8 f   XMLValidator.obj
 0001:000249f0       ??0?$RefHash2KeysTableOf@VXMLAttr@xercesc_2_8@@@xercesc_2_8@@QAE@I_NPAVHashBase@1@QAVMemoryManager@1@@Z 120259f0 f i XMLValidator.obj
 0001:00024a58       ?removeAll@?$RefHash2KeysTableOf@VXMLAttr@xercesc_2_8@@@xercesc_2_8@@QAEXXZ 12025a58 f i XMLValidator.obj
 0001:00024aba       ??_FPSVIItem@xercesc_2_8@@QAEXXZ 12025aba f i PSVIAttribute.obj
 0001:00024ac6       ??_EPSVIItem@xercesc_2_8@@UAEPAXI@Z 12025ac6 f i PSVIAttribute.obj
 0001:00024b10       ??1PSVIItem@xercesc_2_8@@UAE@XZ 12025b10 f i PSVIAttribute.obj
 0001:00024b17       ?getIsSchemaSpecified@PSVIItem@xercesc_2_8@@QBE_NXZ 12025b17 f i PSVIAttribute.obj
 0001:00024b17       ?getValidated@DTDGrammar@xercesc_2_8@@UBE_NXZ 12025b17 f i DGXMLScanner.obj
 0001:00024b1b       ??_FPSVIAttribute@xercesc_2_8@@QAEXXZ 12025b1b f i PSVIAttribute.obj
 0001:00024b27       ??_EPSVIAttribute@xercesc_2_8@@UAEPAXI@Z 12025b27 f i PSVIAttribute.obj
 0001:00024b70       ??1PSVIAttribute@xercesc_2_8@@UAE@XZ 12025b70 f i PSVIAttribute.obj
 0001:00024ba2       ??0PSVIAttribute@xercesc_2_8@@QAE@QAVMemoryManager@1@@Z 12025ba2 f   PSVIAttribute.obj
 0001:00024bc0       ?reset@PSVIAttribute@xercesc_2_8@@QAEXQB_WW4VALIDITY_STATE@PSVIItem@2@W4ASSESSMENT_TYPE@42@PAVXSSimpleTypeDefinition@2@30_NPAVXSAttributeDeclaration@2@PAVDatatypeValidator@2@@Z 12025bc0 f   PSVIAttribute.obj
 0001:00024c14       ?setValue@PSVIAttribute@xercesc_2_8@@QAEXQB_W@Z 12025c14 f   PSVIAttribute.obj
 0001:00024c41       ??_FPSVIAttributeList@xercesc_2_8@@QAEXXZ 12025c41 f i PSVIAttributeList.obj
 0001:00024c4d       ??1PSVIAttributeList@xercesc_2_8@@QAE@XZ 12025c4d f i PSVIAttributeList.obj
 0001:00024c79       ?getPSVIAttributeToFill@PSVIAttributeList@xercesc_2_8@@QAEPAVPSVIAttribute@2@PB_W0@Z 12025c79 f i PSVIAttributeList.obj
 0001:00024d20       ??0PSVIAttributeList@xercesc_2_8@@QAE@QAVMemoryManager@1@@Z 12025d20 f   PSVIAttributeList.obj
 0001:00024dd8       ?getAttributePSVIAtIndex@PSVIAttributeList@xercesc_2_8@@QAEPAVPSVIAttribute@2@I@Z 12025dd8 f   PSVIAttributeList.obj
 0001:00024dfd       ?getAttributeNameAtIndex@PSVIAttributeList@xercesc_2_8@@QAEPB_WI@Z 12025dfd f   PSVIAttributeList.obj
 0001:00024e17       ?getAttributeNamespaceAtIndex@PSVIAttributeList@xercesc_2_8@@QAEPB_WI@Z 12025e17 f   PSVIAttributeList.obj
 0001:00024e31       ?getAttributePSVIByName@PSVIAttributeList@xercesc_2_8@@QAEPAVPSVIAttribute@2@PB_W0@Z 12025e31 f   PSVIAttributeList.obj
 0001:00024e9b       ??0?$RefVectorOf@VPSVIAttribute@xercesc_2_8@@@xercesc_2_8@@QAE@I_NQAVMemoryManager@1@@Z 12025e9b f i PSVIAttributeList.obj
 0001:00024edb       ??1?$BaseRefVectorOf@VPSVIAttribute@xercesc_2_8@@@xercesc_2_8@@UAE@XZ 12025edb f i PSVIAttributeList.obj
 0001:00024ee2       ??_G?$RefVectorOf@VPSVIAttribute@xercesc_2_8@@@xercesc_2_8@@UAEPAXI@Z 12025ee2 f i PSVIAttributeList.obj
 0001:00024ee2       ??_E?$RefVectorOf@VPSVIAttribute@xercesc_2_8@@@xercesc_2_8@@UAEPAXI@Z 12025ee2 f i  CIL library: CIL module
 0001:00024f4c       ??_G?$BaseRefVectorOf@VPSVIAttribute@xercesc_2_8@@@xercesc_2_8@@UAEPAXI@Z 12025f4c f i PSVIAttributeList.obj
 0001:00024f4c       ??_E?$BaseRefVectorOf@VPSVIAttribute@xercesc_2_8@@@xercesc_2_8@@UAEPAXI@Z 12025f4c f i  CIL library: CIL module
 0001:00024f69       ??_FPSVIElement@xercesc_2_8@@QAEXXZ 12025f69 f i PSVIElement.obj
 0001:00024f75       ??_EPSVIElement@xercesc_2_8@@UAEPAXI@Z 12025f75 f i PSVIElement.obj
 0001:00024fbe       ?getSubstitutionGroupExclusions@XSElementDeclaration@xercesc_2_8@@QBEFXZ 12025fbe f i PSVIElement.obj
 0001:00024fc3       ?getDisallowedSubstitutions@XSElementDeclaration@xercesc_2_8@@QBEFXZ 12025fc3 f i PSVIElement.obj
 0001:00024fc8       ?setMinOccurs@ContentSpecNode@xercesc_2_8@@QAEXH@Z 12025fc8 f i XSWildcard.obj
 0001:00024fc8       ?setGroupInfoRegistry@SchemaGrammar@xercesc_2_8@@QAEXQAV?$RefHashTableOf@VXercesGroupInfo@xercesc_2_8@@@2@@Z 12025fc8 f i XSAttributeDeclaration.obj
 0001:00024fc8       ?setTypeDefinition@XSElementDeclaration@xercesc_2_8@@QAEXPAVXSTypeDefinition@2@@Z 12025fc8 f i PSVIElement.obj
 0001:00024fc8       ?setEntityResolver@SAX2XMLFilterImpl@xercesc_2_8@@UAEXQAVEntityResolver@2@@Z 12025fc8 f i SAX2XMLFilterImpl.obj
 0001:00024fc8       ?setValidity@SchemaElementDecl@xercesc_2_8@@QAEXW4Validity@PSVIDefs@2@@Z 12025fc8 f i XMLElementDecl.obj
 0001:00024fc8       ?setTypeInfo@DOMAttrImpl@xercesc_2_8@@UAEXPBVDOMTypeInfoImpl@2@@Z 12025fc8 f i DOMAttrImpl.obj
 0001:00024fc8       ?setElementId@ComplexTypeInfo@xercesc_2_8@@QAEXI@Z 12025fc8 f i XMLElementDecl.obj
 0001:00024fd2       ?getProhibitedSubstitutions@XSComplexTypeDefinition@xercesc_2_8@@QBEFXZ 12025fd2 f i PSVIElement.obj
 0001:00024fd7       ??0PSVIElement@xercesc_2_8@@QAE@QAVMemoryManager@1@@Z 12025fd7 f   PSVIElement.obj
 0001:00024ff8       ??1PSVIElement@xercesc_2_8@@UAE@XZ 12025ff8 f   PSVIElement.obj
 0001:0002502a       ?reset@PSVIElement@xercesc_2_8@@QAEXW4VALIDITY_STATE@PSVIItem@2@W4ASSESSMENT_TYPE@42@QB_W_NQAVXSElementDeclaration@2@QAVXSTypeDefinition@2@QAVXSSimpleTypeDefinition@2@QAVXSModel@2@22QA_WQAVXSNotationDeclaration@2@@Z 1202602a f   PSVIElement.obj
 0001:00025088       ??_FDatatypeValidatorFactory@xercesc_2_8@@QAEXXZ 12026088 f i PSVIItem.obj
 0001:0002509b       ?getDatatypeValidator@DatatypeValidatorFactory@xercesc_2_8@@QBEPAVDatatypeValidator@2@QB_W@Z 1202609b f i PSVIItem.obj
 0001:000250e8       ?getTargetNamespace@SchemaGrammar@xercesc_2_8@@UBEPB_WXZ 120260e8 f i XSAttributeDeclaration.obj
 0001:000250e8       ?getBlockDefault@SchemaInfo@xercesc_2_8@@QBEHXZ 120260e8 f i IGXMLScanner2.obj
 0001:000250e8       ?getCode@XMLException@xercesc_2_8@@QBE?AW4Codes@XMLExcepts@2@XZ 120260e8 f i Base64.obj
 0001:000250e8       ?getBufMgr@XMLValidator@xercesc_2_8@@IAEPAVXMLBufferMgr@2@XZ 120260e8 f i XMLValidator.obj
 0001:000250e8       ?getId@XMLNotationDecl@xercesc_2_8@@QBEIXZ 120260e8 f i XMLDTDDescription.obj
 0001:000250e8       ?getCurrentEntity@ReaderMgr@xercesc_2_8@@QBEPBVXMLEntityDecl@2@XZ 120260e8 f i ReaderMgr.obj
 0001:000250e8       ?getLineNumber@XSDLocator@xercesc_2_8@@UBEJXZ 120260e8 f i IGXMLScanner2.obj
 0001:000250e8       ?getGrammarPool@XSerializeEngine@xercesc_2_8@@QBEPAVXMLGrammarPool@2@XZ 120260e8 f i XSerializeEngine.obj
 0001:000250e8       ?getType@XSObject@xercesc_2_8@@QBE?AW4COMPONENT_TYPE@XSConstants@2@XZ 120260e8 f i XMLAttr.obj
 0001:000250e8       ?getWhatToShow@DOMTreeWalkerImpl@xercesc_2_8@@UAEKXZ 120260e8 f i DOMTreeWalkerImpl.obj
 0001:000250e8       ?getNextSibling@DOMChildNode@xercesc_2_8@@QBEPAVDOMNode@2@XZ 120260e8 f i DOMChildNode.obj
 0001:000250e8       ?getXPath@IC_Field@xercesc_2_8@@QBEPAVXercesXPath@2@XZ 120260e8 f i XMLElementDecl.obj
 0001:000250e8       ?getId@XMLEntityDecl@xercesc_2_8@@QBEIXZ 120260e8 f i XMLDTDDescription.obj
 0001:000250e8       ?getMemoryManager@XMLAttDefList@xercesc_2_8@@QBEPAVMemoryManager@2@XZ 120260e8 f i XMLAttDefList.obj
 0001:000250e8       ?getPublicId@XMLResourceIdentifier@xercesc_2_8@@QBEPB_WXZ 120260e8 f i DGXMLScanner.obj
 0001:000250e8       ?getEncodingName@XMLFormatter@xercesc_2_8@@QBEPB_WXZ 120260e8 f i LocalFileFormatTarget.obj
 0001:000250e8       ?getDefaultType@XMLAttDef@xercesc_2_8@@QBE?AW4DefAttTypes@12@XZ 120260e8 f i XMLAttDef.obj
 0001:000250e8       ?getLineNumber@DOMLocatorImpl@xercesc_2_8@@UBEJXZ 120260e8 f i DOMBuilderImpl.obj
 0001:000250e8       ?getRoot@DOMNodeIteratorImpl@xercesc_2_8@@UAEPAVDOMNode@2@XZ 120260e8 f i DOMNodeIteratorImpl.obj
 0001:000250e8       ?getBlockSize@XMLTranscoder@xercesc_2_8@@QBEIXZ 120260e8 f i PlatformUtils.obj
 0001:000250e8       ?getXPath@IC_Selector@xercesc_2_8@@QBEPAVXercesXPath@2@XZ 120260e8 f i XSIDCDefinition.obj
 0001:000250e8       ?getMemoryManager@XMLGrammarPool@xercesc_2_8@@QAEPAVMemoryManager@2@XZ 120260e8 f i XMLValidator.obj
 0001:000250e8       ?getPort@XMLUri@xercesc_2_8@@QBEHXZ 120260e8 f i XMLString.obj
 0001:000250e8       ?getRangeMap@RangeTokenMap@xercesc_2_8@@IBEPAV?$RefHashTableOf@VRangeFactory@xercesc_2_8@@@2@XZ 120260e8 f i ASCIIRangeFactory.obj
 0001:000250e8       ?getMemoryManager@XMLURL@xercesc_2_8@@QBEPAVMemoryManager@2@XZ 120260e8 f i PlatformUtils.obj
 0001:000250e8       ?getMemoryManager@RegxParser@xercesc_2_8@@IBEPAVMemoryManager@2@XZ 120260e8 f i ParserForXMLSchema.obj
 0001:000250e8       ?getSign@XMLBigDecimal@xercesc_2_8@@UBEHXZ 120260e8 f i XMLAbstractDoubleFloat.obj
 0001:000250e8       ?getMemoryManager@XMLElementDecl@xercesc_2_8@@QBEPAVMemoryManager@2@XZ 120260e8 f i XMLDTDDescription.obj
 0001:000250e8       ?getMessage@SAXException@xercesc_2_8@@UBEPB_WXZ 120260e8 f i XSAnnotation.obj
 0001:000250e8       ?getBufMgr@XMLValidator@xercesc_2_8@@IBEPBVXMLBufferMgr@2@XZ 120260e8 f i XMLValidator.obj
 0001:000250e8       ?getStringPool@GrammarResolver@xercesc_2_8@@QAEPAVXMLStringPool@2@XZ 120260e8 f i XMLValidator.obj
 0001:000250e8       ?getReaderNum@EndOfEntityException@xercesc_2_8@@QBEIXZ 120260e8 f i DGXMLScanner.obj
 0001:000250e8       ?getEntityExpansionLimit@SecurityManager@xercesc_2_8@@UBEIXZ 120260e8 f i XMLValidator.obj
 0001:000250e8       ?getNamespaces@XSModel@xercesc_2_8@@QAEPAV?$RefArrayVectorOf@_W@2@XZ 120260e8 f i XMLValidator.obj
 0001:000250e8       ?getFirstChild@DOMParentNode@xercesc_2_8@@QBEPAVDOMNode@2@XZ 120260e8 f i DOMParentNode.obj
 0001:000250e8       ?getIdentityConstraintName@IdentityConstraint@xercesc_2_8@@QBEPA_WXZ 120260e8 f i XMLElementDecl.obj
 0001:000250e8       ?getUserDefinedRegistry@DatatypeValidatorFactory@xercesc_2_8@@QBEPAV?$RefHashTableOf@VDatatypeValidator@xercesc_2_8@@@2@XZ 120260e8 f i PSVIItem.obj
 0001:000250e8       ?getMemoryManager@InputSource@xercesc_2_8@@QBEPAVMemoryManager@2@XZ 120260e8 f i LocalFileInputSource.obj
 0001:000250e8       ?getCurrentEntity@ReaderMgr@xercesc_2_8@@QAEPAVXMLEntityDecl@2@XZ 120260e8 f i ReaderMgr.obj
 0001:000250e8       ?getType@XMLAttr@xercesc_2_8@@QBE?AW4AttTypes@XMLAttDef@2@XZ 120260e8 f i XMLAttr.obj
 0001:000250e8       ?getMemoryManager@XMLGrammarDescription@xercesc_2_8@@QBEPAVMemoryManager@2@XZ 120260e8 f i XMLDTDDescription.obj
 0001:000250ec       ?getBuiltInRegistry@DatatypeValidatorFactory@xercesc_2_8@@SAPAV?$RefHashTableOf@VDatatypeValidator@xercesc_2_8@@@2@XZ 120260ec f i PSVIItem.obj
 0001:000250f2       ?cleanUp@DatatypeValidatorFactory@xercesc_2_8@@AAEXXZ 120260f2 f i PSVIItem.obj
 0001:00025107       ??0PSVIItem@xercesc_2_8@@QAE@QAVMemoryManager@1@@Z 12026107 f   PSVIItem.obj
 0001:0002513a       ?reset@PSVIItem@xercesc_2_8@@QAEXQB_W0W4VALIDITY_STATE@12@W4ASSESSMENT_TYPE@12@@Z 1202613a f   PSVIItem.obj
 0001:00025159       ?setValidity@PSVIItem@xercesc_2_8@@QAEXW4VALIDITY_STATE@12@@Z 12026159 f   PSVIItem.obj
 0001:00025159       ?setNamespaceURI@IdentityConstraint@xercesc_2_8@@QAEXH@Z 12026159 f   XMLElementDecl.obj
 0001:00025159       ?setType@ContentSpecNode@xercesc_2_8@@QAEXW4NodeTypes@12@@Z 12026159 f   XSWildcard.obj
 0001:00025159       ?setContentHandler@SAX2XMLFilterImpl@xercesc_2_8@@UAEXQAVContentHandler@2@@Z 12026159 f   SAX2XMLFilterImpl.obj
 0001:00025159       ?updateValidity@PSVIAttribute@xercesc_2_8@@QAEXW4VALIDITY_STATE@PSVIItem@2@@Z 12026159 f   PSVIAttribute.obj
 0001:00025159       ?setAttributeDeclRegistry@SchemaGrammar@xercesc_2_8@@QAEXQAV?$RefHashTableOf@VXMLAttDef@xercesc_2_8@@@2@@Z 12026159 f   XSAttributeDeclaration.obj
 0001:00025159       ?setElemStack@ValidationContextImpl@xercesc_2_8@@UAEXPAVElemStack@2@@Z 12026159 f   ValidationContextImpl.obj
 0001:00025159       ?setModelType@DTDElementDecl@xercesc_2_8@@QAEXW4ModelTypes@12@@Z 12026159 f   XMLElementDecl.obj
 0001:00025159       ?setScopeDefined@ComplexTypeInfo@xercesc_2_8@@QAEXH@Z 12026159 f   XMLElementDecl.obj
 0001:00025159       ?setDatatypeValidator@XMLAttr@xercesc_2_8@@QAEXPAVDatatypeValidator@2@@Z 12026159 f   XMLAttr.obj
 0001:00025159       ?setModelType@SchemaElementDecl@xercesc_2_8@@QAEXW4ModelTypes@12@@Z 12026159 f   XMLElementDecl.obj
 0001:00025159       ?setType@DatatypeValidator@xercesc_2_8@@IAEXW4ValidatorType@12@@Z 12026159 f   XMLAttr.obj
 0001:00025159       ?setGrammar@SchemaValidator@xercesc_2_8@@UAEXPAVGrammar@2@@Z 12026159 f   IGXMLScanner.obj
 0001:00025163       ?getActualValue@PSVIItem@xercesc_2_8@@UBEPAVXSValue@2@XZ 12026163 f   PSVIItem.obj
 0001:000251e5       ??_EXSAnnotation@xercesc_2_8@@UAEPAXI@Z 120261e5 f i XSAnnotation.obj
 0001:0002522e       ?getLineCol@XSAnnotation@xercesc_2_8@@QBEXAAH0@Z 1202622e f i XSAnnotation.obj
 0001:00025243       ?setLineCol@XSAnnotation@xercesc_2_8@@QAEXHH@Z 12026243 f i XSAnnotation.obj
 0001:00025254       ??0XMLPScanToken@xercesc_2_8@@QAE@XZ 12026254 f i XSAnnotation.obj
 0001:00025254       ??0DOMChildNode@xercesc_2_8@@QAE@XZ 12026254 f i DOMChildNode.obj
 0001:0002525e       ??4FieldActivator@xercesc_2_8@@QAEAAV01@ABV01@@Z 1202625e f i FieldActivator.obj
 0001:0002525e       ??4XMLPScanToken@xercesc_2_8@@QAEAAV01@ABV01@@Z 1202625e f i XSAnnotation.obj
 0001:00025275       ?set@XMLPScanToken@xercesc_2_8@@IAEXII@Z 12026275 f i XSAnnotation.obj
 0001:00025285       ??0SAX2XMLReader@xercesc_2_8@@QAE@XZ 12026285 f i XSAnnotation.obj
 0001:0002528e       ??0SAXException@xercesc_2_8@@QAE@QAVMemoryManager@1@@Z 1202628e f i XSAnnotation.obj
 0001:000252b6       ??0SAXException@xercesc_2_8@@QAE@QB_WQAVMemoryManager@1@@Z 120262b6 f i XSAnnotation.obj
 0001:000252dd       ??0SAXException@xercesc_2_8@@QAE@QBDQAVMemoryManager@1@@Z 120262dd f i XSAnnotation.obj
 0001:00025304       ??0SAXException@xercesc_2_8@@QAE@ABV01@@Z 12026304 f i XSAnnotation.obj
 0001:0002532f       ??1SAXException@xercesc_2_8@@UAE@XZ 1202632f f i XSAnnotation.obj
 0001:00025343       ??4SAXException@xercesc_2_8@@QAEAAV01@ABV01@@Z 12026343 f i XSAnnotation.obj
 0001:00025377       ??_FSAXException@xercesc_2_8@@QAEXXZ 12026377 f i XSAnnotation.obj
 0001:00025383       ??_ESAXException@xercesc_2_8@@UAEPAXI@Z 12026383 f i XSAnnotation.obj
 0001:000253cc       ??1SAXNotSupportedException@xercesc_2_8@@UAE@XZ 120263cc f i XSAnnotation.obj
 0001:000253cc       ??1SAXNotRecognizedException@xercesc_2_8@@UAE@XZ 120263cc f i XSAnnotation.obj
 0001:000253d1       ??4SAXNotRecognizedException@xercesc_2_8@@QAEAAV01@ABV01@@Z 120263d1 f i XSAnnotation.obj
 0001:000253d1       ??4SAXNotSupportedException@xercesc_2_8@@QAEAAV01@ABV01@@Z 120263d1 f i XSAnnotation.obj
 0001:000253e3       ??_FSAXNotSupportedException@xercesc_2_8@@QAEXXZ 120263e3 f i XSAnnotation.obj
 0001:000253ef       ??0SAXNotRecognizedException@xercesc_2_8@@QAE@ABV01@@Z 120263ef f i XSAnnotation.obj
 0001:000253ef       ??0SAXNotRecognizedException@xercesc_2_8@@QAE@ABVSAXException@1@@Z 120263ef f i SAXException.obj
 0001:00025407       ??_FSAXNotRecognizedException@xercesc_2_8@@QAEXXZ 12026407 f i XSAnnotation.obj
 0001:00025413       ??_ESAXNotRecognizedException@xercesc_2_8@@UAEPAXI@Z 12026413 f i XSAnnotation.obj
 0001:00025413       ??_ESAXNotSupportedException@xercesc_2_8@@UAEPAXI@Z 12026413 f i XSAnnotation.obj
 0001:0002545c       ?createXMLReader@XMLReaderFactory@xercesc_2_8@@SAPAVSAX2XMLReader@2@PB_W@Z 1202645c f i XSAnnotation.obj
 0001:0002547f       ??0DOMNode@xercesc_2_8@@IAE@XZ 1202647f f i XSAnnotation.obj
 0001:00025488       ??0DOMNode@xercesc_2_8@@IAE@ABV01@@Z 12026488 f i XSAnnotation.obj
 0001:00025493       ??1DOMCDATASection@xercesc_2_8@@UAE@XZ 12026493 f i AbstractDOMParser.obj
 0001:00025493       ??1DOMProcessingInstructionImpl@xercesc_2_8@@UAE@XZ 12026493 f i DOMProcessingInstructionImpl.obj
 0001:00025493       ??1DOMDocumentType@xercesc_2_8@@UAE@XZ 12026493 f i XSAnnotation.obj
 0001:00025493       ??1DOMDocumentFragment@xercesc_2_8@@UAE@XZ 12026493 f i DOMDocumentFragmentImpl.obj
 0001:00025493       ??1DOMCharacterData@xercesc_2_8@@UAE@XZ 12026493 f i AbstractDOMParser.obj
 0001:00025493       ??1DOMXPathNamespace@xercesc_2_8@@UAE@XZ 12026493 f i DOMImplementationImpl.obj
 0001:00025493       ??1DOMElement@xercesc_2_8@@UAE@XZ 12026493 f i XSAnnotation.obj
 0001:00025493       ??1DOMNotation@xercesc_2_8@@UAE@XZ 12026493 f i AbstractDOMParser.obj
 0001:00025493       ??1DOMNode@xercesc_2_8@@UAE@XZ 12026493 f i XSAnnotation.obj
 0001:00025493       ??1DOMComment@xercesc_2_8@@UAE@XZ 12026493 f i AbstractDOMParser.obj
 0001:00025493       ??1DOMCommentImpl@xercesc_2_8@@UAE@XZ 12026493 f i DOMCommentImpl.obj
 0001:00025493       ??1DOMTextImpl@xercesc_2_8@@UAE@XZ 12026493 f i DOMTextImpl.obj
 0001:00025493       ??1DOMEntityReference@xercesc_2_8@@UAE@XZ 12026493 f i AbstractDOMParser.obj
 0001:00025493       ??1DOMNotationImpl@xercesc_2_8@@UAE@XZ 12026493 f i DOMNotationImpl.obj
 0001:00025493       ??1DOMText@xercesc_2_8@@UAE@XZ 12026493 f i AbstractDOMParser.obj
 0001:00025493       ??1DOMEntity@xercesc_2_8@@UAE@XZ 12026493 f i AbstractDOMParser.obj
 0001:00025493       ??1DOMAttr@xercesc_2_8@@UAE@XZ 12026493 f i IGXMLScanner2.obj
 0001:00025493       ??1DOMProcessingInstruction@xercesc_2_8@@UAE@XZ 12026493 f i AbstractDOMParser.obj
 0001:0002549a       ??0DOMDocumentRange@xercesc_2_8@@IAE@XZ 1202649a f i XSAnnotation.obj
 0001:000254a3       ??1DOMDocumentRange@xercesc_2_8@@UAE@XZ 120264a3 f i XSAnnotation.obj
 0001:000254aa       ??_EDOMDocumentRange@xercesc_2_8@@UAEPAXI@Z 120264aa f i XSAnnotation.obj
 0001:000254f4       ??0DOMDocumentTraversal@xercesc_2_8@@IAE@XZ 120264f4 f i XSAnnotation.obj
 0001:000254fd       ??1DOMDocumentTraversal@xercesc_2_8@@UAE@XZ 120264fd f i XSAnnotation.obj
 0001:00025504       ??_EDOMDocumentTraversal@xercesc_2_8@@UAEPAXI@Z 12026504 f i XSAnnotation.obj
 0001:0002554e       ??0DOMXPathEvaluator@xercesc_2_8@@IAE@XZ 1202654e f i XSAnnotation.obj
 0001:00025557       ??1DOMXPathEvaluator@xercesc_2_8@@UAE@XZ 12026557 f i XSAnnotation.obj
 0001:0002555e       ??_EDOMXPathEvaluator@xercesc_2_8@@UAEPAXI@Z 1202655e f i XSAnnotation.obj
 0001:000255a8       ??0DOMDocument@xercesc_2_8@@IAE@XZ 120265a8 f i XSAnnotation.obj
 0001:000255db       ??1DOMDocument@xercesc_2_8@@UAE@XZ 120265db f i XSAnnotation.obj
 0001:0002560c       ?createDocumentType@DOMDocument@xercesc_2_8@@UAEPAVDOMDocumentType@2@PB_W00@Z 1202660c f i XSAnnotation.obj
 0001:0002561b       ??_EDOMDocument@xercesc_2_8@@UAEPAXI@Z 1202661b f i XSAnnotation.obj
 0001:00025664       ??1XMLDocumentHandler@xercesc_2_8@@UAE@XZ 12026664 f i XSAnnotation.obj
 0001:0002566b       ??0XMLDocumentHandler@xercesc_2_8@@IAE@XZ 1202666b f i XSAnnotation.obj
 0001:00025674       ??_EXMLDocumentHandler@xercesc_2_8@@UAEPAXI@Z 12026674 f i XSAnnotation.obj
 0001:000256be       ??1XMLEntityHandler@xercesc_2_8@@UAE@XZ 120266be f i XSAnnotation.obj
 0001:000256c5       ??0XMLEntityHandler@xercesc_2_8@@IAE@XZ 120266c5 f i XSAnnotation.obj
 0001:000256ce       ??_EXMLEntityHandler@xercesc_2_8@@UAEPAXI@Z 120266ce f i XSAnnotation.obj
 0001:00025718       ??0DocTypeHandler@xercesc_2_8@@QAE@XZ 12026718 f i XSAnnotation.obj
 0001:00025721       ??1DocTypeHandler@xercesc_2_8@@UAE@XZ 12026721 f i XSAnnotation.obj
 0001:00025728       ??_EDocTypeHandler@xercesc_2_8@@UAEPAXI@Z 12026728 f i XSAnnotation.obj
 0001:00025772       ??0DOMDocumentType@xercesc_2_8@@IAE@XZ 12026772 f i XSAnnotation.obj
 0001:0002577b       ??1PSVIHandler@xercesc_2_8@@UAE@XZ 1202677b f i XSAnnotation.obj
 0001:00025782       ??0PSVIHandler@xercesc_2_8@@IAE@XZ 12026782 f i XSAnnotation.obj
 0001:0002578b       ??_EPSVIHandler@xercesc_2_8@@UAEPAXI@Z 1202678b f i XSAnnotation.obj
 0001:000257d5       ??_FAbstractDOMParser@xercesc_2_8@@QAEXXZ 120267d5 f i XSAnnotation.obj
 0001:000257e5       ?getExpandEntityReferences@AbstractDOMParser@xercesc_2_8@@QBE_NXZ 120267e5 f i XSAnnotation.obj
 0001:000257ee       ?setExpandEntityReferences@AbstractDOMParser@xercesc_2_8@@QAEX_N@Z 120267ee f i XSAnnotation.obj
 0001:000257fc       ?setExternalElemDeclaration@XMLElementDecl@xercesc_2_8@@QAEX_N@Z 120267fc f i XMLDTDDescription.obj
 0001:000257fc       ?setIdentityConstraintChecking@XMLScanner@xercesc_2_8@@QAEX_N@Z 120267fc f i XMLValidator.obj
 0001:000257fc       ?setIssueFatalErrorIfNotFound@InputSource@xercesc_2_8@@UAEX_N@Z 120267fc f i LocalFileInputSource.obj
 0001:000257fc       ?setCreateEntityReferenceNodes@AbstractDOMParser@xercesc_2_8@@QAEX_N@Z 120267fc f i XSAnnotation.obj
 0001:00025806       ?setIncludeIgnorableWhitespace@AbstractDOMParser@xercesc_2_8@@QAEX_N@Z 12026806 f i XSAnnotation.obj
 0001:00025806       ?cacheGrammarFromParse@XMLScanner@xercesc_2_8@@QAEX_N@Z 12026806 f i XMLValidator.obj
 0001:00025810       ?useImplementation@AbstractDOMParser@xercesc_2_8@@QAEXQB_W@Z 12026810 f i XSAnnotation.obj
 0001:00025833       ?getMaxExclusive@AbstractNumericFacetValidator@xercesc_2_8@@QBEQAVXMLNumber@2@XZ 12026833 f i AbstractNumericFacetValidator.obj
 0001:00025833       ?getMemberTypeValidator@UnionDatatypeValidator@xercesc_2_8@@QBEPBVDatatypeValidator@2@XZ 12026833 f i XMLElementDecl.obj
 0001:00025833       ?getAttDefList@ComplexTypeInfo@xercesc_2_8@@QBEAAVXMLAttDefList@2@XZ 12026833 f i ComplexTypeInfo.obj
 0001:00025833       ?getMemoryManager@AbstractDOMParser@xercesc_2_8@@IBEPAVMemoryManager@2@XZ 12026833 f i XSAnnotation.obj
 0001:00025837       ?setEnclosingScope@SchemaElementDecl@xercesc_2_8@@QAEXH@Z 12026837 f i XMLElementDecl.obj
 0001:00025837       ?setNamespaceScope@SchemaGrammar@xercesc_2_8@@QAEXQAVNamespaceScope@2@@Z 12026837 f i XSAttributeDeclaration.obj
 0001:00025837       ?setValidity@SchemaAttDef@xercesc_2_8@@QAEXW4Validity@PSVIDefs@2@@Z 12026837 f i XMLElementDecl.obj
 0001:00025837       ?setCurrentNode@AbstractDOMParser@xercesc_2_8@@IAEXPAVDOMNode@2@@Z 12026837 f i XSAnnotation.obj
 0001:00025841       ??_FXercesDOMParser@xercesc_2_8@@QAEXXZ 12026841 f i XSAnnotation.obj
 0001:00025851       ?expandSystemId@SAXParser@xercesc_2_8@@UAE_NQB_WAAVXMLBuffer@2@@Z 12026851 f i SAXParser.obj
 0001:00025851       ?expandSystemId@XercesDOMParser@xercesc_2_8@@UAE_NQB_WAAVXMLBuffer@2@@Z 12026851 f i XSAnnotation.obj
 0001:00025851       ?expandSystemId@DOMBuilderImpl@xercesc_2_8@@UAE_NQB_WAAVXMLBuffer@2@@Z 12026851 f i DOMBuilderImpl.obj
 0001:00025851       ?expandSystemId@SAX2XMLReaderImpl@xercesc_2_8@@UAE_NQB_WAAVXMLBuffer@2@@Z 12026851 f i SAX2XMLReaderImpl.obj
 0001:00025851       ?customNodeSerialize@DOMWriterImpl@xercesc_2_8@@MAE_NQBVDOMNode@2@H@Z 12026851 f i DOMWriterImpl.obj
 0001:00025856       ??0DOMElement@xercesc_2_8@@IAE@XZ 12026856 f i XSAnnotation.obj
 0001:0002585f       ??0DOMElement@xercesc_2_8@@IAE@ABV01@@Z 1202685f f i XSAnnotation.obj
 0001:0002586a       ??0XSAnnotation@xercesc_2_8@@QAE@QB_WQAVMemoryManager@1@@Z 1202686a f   XSAnnotation.obj
 0001:000258cc       ??0XSAnnotation@xercesc_2_8@@QAE@QAVMemoryManager@1@@Z 120268cc f   XSAnnotation.obj
 0001:0002591d       ??1XSAnnotation@xercesc_2_8@@UAE@XZ 1202691d f   XSAnnotation.obj
 0001:00025978       ?writeAnnotation@XSAnnotation@xercesc_2_8@@QAEXPAVDOMNode@2@W4ANNOTATION_TARGET@12@@Z 12026978 f   XSAnnotation.obj
 0001:00025aad       ?writeAnnotation@XSAnnotation@xercesc_2_8@@QAEXPAVContentHandler@2@@Z 12026aad f   XSAnnotation.obj
 0001:00025b84       ?setNext@XSAnnotation@xercesc_2_8@@QAEXQAV12@@Z 12026b84 f   XSAnnotation.obj
 0001:00025b99       ?setSystemId@XSAnnotation@xercesc_2_8@@QAEXQB_W@Z 12026b99 f   XSAnnotation.obj
 0001:00025bcc       ?createObject@XSAnnotation@xercesc_2_8@@SAPAVXSerializable@2@PAVMemoryManager@2@@Z 12026bcc f   XSAnnotation.obj
 0001:00025c00       ?getProtoType@XSAnnotation@xercesc_2_8@@UBEPAVXProtoType@2@XZ 12026c00 f   XSAnnotation.obj
 0001:00025c06       ?serialize@XSAnnotation@xercesc_2_8@@UAEXAAVXSerializeEngine@2@@Z 12026c06 f   XSAnnotation.obj
 0001:00025c8d       ??_EDOMDocument@xercesc_2_8@@W3AEPAXI@Z 12026c8d f i XSAnnotation.obj
 0001:00025c95       ??_EDOMDocument@xercesc_2_8@@W7AEPAXI@Z 12026c95 f i XSAnnotation.obj
 0001:00025c9d       ??_EXSAnnotation@xercesc_2_8@@W3AEPAXI@Z 12026c9d f i XSAnnotation.obj
 0001:00025ca5       ??_EDOMDocument@xercesc_2_8@@WM@AEPAXI@Z 12026ca5 f i XSAnnotation.obj
 0001:00025cad       ??_EXSAttributeDeclaration@xercesc_2_8@@UAEPAXI@Z 12026cad f i XSAttributeDeclaration.obj
 0001:00025cf7       ?getDocumentElement@DOMDocumentImpl@xercesc_2_8@@UBEPAVDOMElement@2@XZ 12026cf7 f i DOMDocumentImpl.obj
 0001:00025cf7       ?getAnnotations@XSModel@xercesc_2_8@@QAEPAV?$RefVectorOf@VXSAnnotation@xercesc_2_8@@@2@XZ 12026cf7 f i XSModel.obj
 0001:00025cf7       ?getSchemaNamespace@XSNamespaceItem@xercesc_2_8@@QAEPB_WXZ 12026cf7 f i XSAttributeDeclaration.obj
 0001:00025cfe       ?getXMLEntityResolver@SAXParser@xercesc_2_8@@QBEPBVXMLEntityResolver@2@XZ 12026cfe f i SAX2XMLReaderImpl.obj
 0001:00025cfe       ?getMemberTypes@XSSimpleTypeDefinition@xercesc_2_8@@QBEPAV?$RefVectorOf@VXSSimpleTypeDefinition@xercesc_2_8@@@2@XZ 12026cfe f i XMLAttr.obj
 0001:00025cfe       ?getGrammarResolver@AbstractDOMParser@xercesc_2_8@@IBEPAVGrammarResolver@2@XZ 12026cfe f i XSAnnotation.obj
 0001:00025cfe       ?getBaseComplexTypeInfo@ComplexTypeInfo@xercesc_2_8@@QBEPAV12@XZ 12026cfe f i XMLElementDecl.obj
 0001:00025cfe       ?getLineNo@XSDElementNSImpl@xercesc_2_8@@QBEJXZ 12026cfe f i TraverseSchema.obj
 0001:00025cfe       ?getXMLEntityResolver@SAXParser@xercesc_2_8@@QAEPAVXMLEntityResolver@2@XZ 12026cfe f i SAX2XMLReaderImpl.obj
 0001:00025cfe       ?getLength@AbstractStringValidator@xercesc_2_8@@QBEIXZ 12026cfe f i XSAttributeDeclaration.obj
 0001:00025d02       ?setEnumeration@AbstractStringValidator@xercesc_2_8@@IAEXPAV?$RefArrayVectorOf@_W@2@_N@Z 12026d02 f i XSAttributeDeclaration.obj
 0001:00025d34       ??_FStringDatatypeValidator@xercesc_2_8@@QAEXXZ 12026d34 f i XSAttributeDeclaration.obj
 0001:00025d40       ??_FIDDatatypeValidator@xercesc_2_8@@QAEXXZ 12026d40 f i XSAttributeDeclaration.obj
 0001:00025d4c       ??_FSchemaGrammar@xercesc_2_8@@QAEXXZ 12026d4c f i XSAttributeDeclaration.obj
 0001:00025d58       ?getElemEnumerator@SchemaGrammar@xercesc_2_8@@QBE?AV?$RefHash3KeysIdPoolEnumerator@VSchemaElementDecl@xercesc_2_8@@@2@XZ 12026d58 f i XSAttributeDeclaration.obj
 0001:00025d75       ?getNotationEnumerator@SchemaGrammar@xercesc_2_8@@QBE?AV?$NameIdPoolEnumerator@VXMLNotationDecl@xercesc_2_8@@@2@XZ 12026d75 f i XSAttributeDeclaration.obj
 0001:00025d99       ?getDatatypeRegistry@SchemaGrammar@xercesc_2_8@@QAEPAVDatatypeValidatorFactory@2@XZ 12026d99 f i XSAttributeDeclaration.obj
 0001:00025d9d       ?getIDRefList@SchemaGrammar@xercesc_2_8@@QBEPAV?$RefHashTableOf@VXMLRefInfo@xercesc_2_8@@@2@XZ 12026d9d f i XSAttributeDeclaration.obj
 0001:00025da5       ?getGrammarDescription@SchemaGrammar@xercesc_2_8@@UBEPAVXMLGrammarDescription@2@XZ 12026da5 f i XSAttributeDeclaration.obj
 0001:00025da5       ?getXMLNSNamespaceId@XMLScanner@xercesc_2_8@@QBEIXZ 12026da5 f i XMLValidator.obj
 0001:00025da5       ?getBaseDatatypeValidator@ComplexTypeInfo@xercesc_2_8@@QBEPAVDatatypeValidator@2@XZ 12026da5 f i XMLElementDecl.obj
 0001:00025da5       ?getRecursingAnonTypes@SchemaInfo@xercesc_2_8@@QBEPAV?$ValueVectorOf@PBVDOMElement@xercesc_2_8@@@2@XZ 12026da5 f i IGXMLScanner2.obj
 0001:00025da5       ?getVersion@DOMDocumentImpl@xercesc_2_8@@UBEPB_WXZ 12026da5 f i DOMDocumentImpl.obj
 0001:00025da5       ?getLexicalPattern@XSSimpleTypeDefinition@xercesc_2_8@@QAEPAV?$RefArrayVectorOf@_W@2@XZ 12026da5 f i XMLAttr.obj
 0001:00025da5       ?getPrefix@DOMElementNSImpl@xercesc_2_8@@UBEPB_WXZ 12026da5 f i DOMElementNSImpl.obj
 0001:00025da5       ?getDefaultValue@SchemaElementDecl@xercesc_2_8@@QBEPA_WXZ 12026da5 f i XMLElementDecl.obj
 0001:00025da5       ?getDatatypeValidator@SchemaAttDef@xercesc_2_8@@QBEPAVDatatypeValidator@2@XZ 12026da5 f i XMLElementDecl.obj
 0001:00025da5       ?getSystemId@DOMDocumentTypeImpl@xercesc_2_8@@UBEPB_WXZ 12026da5 f i DOMDocumentTypeImpl.obj
 0001:00025da5       ?getVersion@DOMEntityImpl@xercesc_2_8@@UBEPB_WXZ 12026da5 f i DOMEntityImpl.obj
 0001:00025da5       ?getTypeUri@DatatypeValidator@xercesc_2_8@@QBEPB_WXZ 12026da5 f i XMLAttr.obj
 0001:00025da9       ?getAnnotation@SchemaGrammar@xercesc_2_8@@QAEPAVXSAnnotation@2@QBX@Z 12026da9 f i XSAttributeDeclaration.obj
 0001:00025da9       ?getAnnotation@SchemaGrammar@xercesc_2_8@@QBEPBVXSAnnotation@2@QBX@Z 12026da9 f i XSAttributeDeclaration.obj
 0001:00025dba       ?getAnnotation@SchemaGrammar@xercesc_2_8@@QAEPAVXSAnnotation@2@XZ 12026dba f i XSAttributeDeclaration.obj
 0001:00025dba       ?getAnnotation@SchemaGrammar@xercesc_2_8@@QBEPBVXSAnnotation@2@XZ 12026dba f i XSAttributeDeclaration.obj
 0001:00025dc6       ?setTargetNamespace@SchemaGrammar@xercesc_2_8@@QAEXQB_W@Z 12026dc6 f i XSAttributeDeclaration.obj
 0001:00025dee       ?setBaseGroup@XercesGroupInfo@xercesc_2_8@@QAEXQAV12@@Z 12026dee f i XSModel.obj
 0001:00025dee       ?setRootElemId@DTDGrammar@xercesc_2_8@@QAEXI@Z 12026dee f i DGXMLScanner.obj
 0001:00025dee       ?setAttributes@XMLSchemaDescriptionImpl@xercesc_2_8@@UAEXQAVXMLAttDef@2@@Z 12026dee f i XMLSchemaDescriptionImpl.obj
 0001:00025dee       ?setValidationAttempted@PSVIItem@xercesc_2_8@@QAEXW4ASSESSMENT_TYPE@12@@Z 12026dee f i PSVIItem.obj
 0001:00025dee       ?setGrammarResolver@SchemaValidator@xercesc_2_8@@QAEXPAVGrammarResolver@2@@Z 12026dee f i IGXMLScanner.obj
 0001:00025dee       ?setPSVIScope@SchemaElementDecl@xercesc_2_8@@QAEXW4PSVIScope@PSVIDefs@2@@Z 12026dee f i XMLElementDecl.obj
 0001:00025dee       ?setContentType@ComplexTypeInfo@xercesc_2_8@@QAEXH@Z 12026dee f i XMLElementDecl.obj
 0001:00025dee       ?setBaseType@XSComplexTypeDefinition@xercesc_2_8@@AAEXQAVXSTypeDefinition@2@@Z 12026dee f i PSVIElement.obj
 0001:00025dee       ?setDTDHandler@SAX2XMLFilterImpl@xercesc_2_8@@UAEXQAVDTDHandler@2@@Z 12026dee f i SAX2XMLFilterImpl.obj
 0001:00025dee       ?setOrdered@DatatypeValidator@xercesc_2_8@@IAEXW4ORDERING@XSSimpleTypeDefinition@2@@Z 12026dee f i XMLAttr.obj
 0001:00025dee       ?setComplexTypeRegistry@SchemaGrammar@xercesc_2_8@@QAEXQAV?$RefHashTableOf@VComplexTypeInfo@xercesc_2_8@@@2@@Z 12026dee f i XSAttributeDeclaration.obj
 0001:00025df8       ?getElemId@SchemaGrammar@xercesc_2_8@@UBEIIQB_W0I@Z 12026df8 f i XSAttributeDeclaration.obj
 0001:00025e37       ?getElemDecl@SchemaGrammar@xercesc_2_8@@UBEPBVXMLElementDecl@2@IQB_W0I@Z 12026e37 f i XSAttributeDeclaration.obj
 0001:00025e37       ?getElemDecl@SchemaGrammar@xercesc_2_8@@UAEPAVXMLElementDecl@2@IQB_W0I@Z 12026e37 f i XSAttributeDeclaration.obj
 0001:00025e83       ?getElemDecl@SchemaGrammar@xercesc_2_8@@UBEPBVXMLElementDecl@2@I@Z 12026e83 f i XSAttributeDeclaration.obj
 0001:00025e83       ?getElemDecl@SchemaGrammar@xercesc_2_8@@UAEPAVXMLElementDecl@2@I@Z 12026e83 f i XSAttributeDeclaration.obj
 0001:00025ea6       ?putElemDecl@SchemaGrammar@xercesc_2_8@@UAEIQAVXMLElementDecl@2@_N@Z 12026ea6 f i XSAttributeDeclaration.obj
 0001:00025f2f       ?putGroupElemDecl@SchemaGrammar@xercesc_2_8@@QBEIQAVXMLElementDecl@2@@Z 12026f2f f i XSAttributeDeclaration.obj
 0001:00025f51       ?setValidated@SchemaGrammar@xercesc_2_8@@UAEX_N@Z 12026f51 f i XSAttributeDeclaration.obj
 0001:00025f5b       ??0XSAttributeDeclaration@xercesc_2_8@@QAE@QAVSchemaAttDef@1@QAVXSSimpleTypeDefinition@1@QAVXSAnnotation@1@QAVXSModel@1@W4SCOPE@XSConstants@1@PAVXSComplexTypeDefinition@1@QAVMemoryManager@1@@Z 12026f5b f   XSAttributeDeclaration.obj
 0001:00025f99       ?getName@XSAttributeDeclaration@xercesc_2_8@@UAEPB_WXZ 12026f99 f   XSAttributeDeclaration.obj
 0001:00025fa3       ?getNamespace@XSAttributeDeclaration@xercesc_2_8@@UAEPB_WXZ 12026fa3 f   XSAttributeDeclaration.obj
 0001:00025fbb       ?getConstraintType@XSAttributeDeclaration@xercesc_2_8@@QBE?AW4VALUE_CONSTRAINT@XSConstants@2@XZ 12026fbb f   XSAttributeDeclaration.obj
 0001:00025fde       ?getConstraintValue@XSAttributeDeclaration@xercesc_2_8@@QAEPB_WXZ 12026fde f   XSAttributeDeclaration.obj
 0001:00025fee       ?getRequired@XSAttributeDeclaration@xercesc_2_8@@QBE_NXZ 12026fee f   XSAttributeDeclaration.obj
 0001:00026004       ??1?$XMLEnumerator@VSchemaElementDecl@xercesc_2_8@@@xercesc_2_8@@UAE@XZ 12027004 f i XSAttributeDeclaration.obj
 0001:0002600b       ??_G?$XMLEnumerator@VSchemaElementDecl@xercesc_2_8@@@xercesc_2_8@@UAEPAXI@Z 1202700b f i XSAttributeDeclaration.obj
 0001:0002600b       ??_E?$XMLEnumerator@VSchemaElementDecl@xercesc_2_8@@@xercesc_2_8@@UAEPAXI@Z 1202700b f i  CIL library: CIL module
 0001:00026028       ??_G?$XMLEnumerator@VXMLNotationDecl@xercesc_2_8@@@xercesc_2_8@@UAEPAXI@Z 12027028 f i XSAttributeDeclaration.obj
 0001:00026028       ??_E?$XMLEnumerator@VXMLNotationDecl@xercesc_2_8@@@xercesc_2_8@@UAEPAXI@Z 12027028 f i  CIL library: CIL module
 0001:00026045       ??0?$RefHash3KeysIdPoolEnumerator@VSchemaElementDecl@xercesc_2_8@@@xercesc_2_8@@QAE@QAV?$RefHash3KeysIdPool@VSchemaElementDecl@xercesc_2_8@@@1@_NQAVMemoryManager@1@@Z 12027045 f i XSAttributeDeclaration.obj
 0001:000260b8       ??1?$RefHash3KeysIdPoolEnumerator@VSchemaElementDecl@xercesc_2_8@@@xercesc_2_8@@UAE@XZ 120270b8 f i XSAttributeDeclaration.obj
 0001:000260f1       ?hasMoreElements@?$RefHash3KeysIdPoolEnumerator@VSchemaElementDecl@xercesc_2_8@@@xercesc_2_8@@UBE_NXZ 120270f1 f i XSAttributeDeclaration.obj
 0001:00026106       ?nextElement@?$RefHash3KeysIdPoolEnumerator@VSchemaElementDecl@xercesc_2_8@@@xercesc_2_8@@UAEAAVSchemaElementDecl@2@XZ 12027106 f i XSAttributeDeclaration.obj
 0001:0002614d       ?Reset@?$RefHash3KeysIdPoolEnumerator@VSchemaElementDecl@xercesc_2_8@@@xercesc_2_8@@UAEXXZ 1202714d f i XSAttributeDeclaration.obj
 0001:0002615c       ??1?$NameIdPoolEnumerator@VXMLNotationDecl@xercesc_2_8@@@xercesc_2_8@@UAE@XZ 1202715c f i XSAttributeDeclaration.obj
 0001:00026163       ?hasMoreElements@?$NameIdPoolEnumerator@VDTDElementDecl@xercesc_2_8@@@xercesc_2_8@@UBE_NXZ 12027163 f i DGXMLScanner.obj
 0001:00026163       ?hasMoreElements@?$NameIdPoolEnumerator@VDTDEntityDecl@xercesc_2_8@@@xercesc_2_8@@UBE_NXZ 12027163 f i DGXMLScanner.obj
 0001:00026163       ?hasMoreElements@?$NameIdPoolEnumerator@VXMLNotationDecl@xercesc_2_8@@@xercesc_2_8@@UBE_NXZ 12027163 f i XSAttributeDeclaration.obj
 0001:00026178       ??0?$RefHash3KeysIdPool@VSchemaElementDecl@xercesc_2_8@@@xercesc_2_8@@QAE@I_NIQAVMemoryManager@1@@Z 12027178 f i XSAttributeDeclaration.obj
 0001:00026221       ?getByKey@?$RefHash3KeysIdPool@VSchemaElementDecl@xercesc_2_8@@@xercesc_2_8@@QAEPAVSchemaElementDecl@2@QBXHH@Z 12027221 f i XSAttributeDeclaration.obj
 0001:00026240       ?getById@?$RefHash3KeysIdPool@VSchemaElementDecl@xercesc_2_8@@@xercesc_2_8@@QAEPAVSchemaElementDecl@2@I@Z 12027240 f i XSAttributeDeclaration.obj
 0001:0002627c       ?put@?$RefHash3KeysIdPool@VSchemaElementDecl@xercesc_2_8@@@xercesc_2_8@@QAEIPAXHHQAVSchemaElementDecl@2@@Z 1202727c f i XSAttributeDeclaration.obj
 0001:0002636f       ?getByKey@?$NameIdPool@VXMLNotationDecl@xercesc_2_8@@@xercesc_2_8@@QAEPAVXMLNotationDecl@2@QB_W@Z 1202736f f i XSAttributeDeclaration.obj
 0001:0002638b       ?put@?$NameIdPool@VXMLNotationDecl@xercesc_2_8@@@xercesc_2_8@@QAEIQAVXMLNotationDecl@2@@Z 1202738b f i XSAttributeDeclaration.obj
 0001:0002646b       ??_G?$RefHash3KeysIdPoolEnumerator@VSchemaElementDecl@xercesc_2_8@@@xercesc_2_8@@UAEPAXI@Z 1202746b f i XSAttributeDeclaration.obj
 0001:0002646b       ??_E?$RefHash3KeysIdPoolEnumerator@VSchemaElementDecl@xercesc_2_8@@@xercesc_2_8@@UAEPAXI@Z 1202746b f i  CIL library: CIL module
 0001:00026487       ??_G?$RefHash3KeysIdPool@VSchemaElementDecl@xercesc_2_8@@@xercesc_2_8@@QAEPAXI@Z 12027487 f i XSAttributeDeclaration.obj
 0001:000264bc       ??_G?$NameIdPoolEnumerator@VXMLNotationDecl@xercesc_2_8@@@xercesc_2_8@@UAEPAXI@Z 120274bc f i XSAttributeDeclaration.obj
 0001:000264bc       ??_E?$NameIdPoolEnumerator@VXMLNotationDecl@xercesc_2_8@@@xercesc_2_8@@UAEPAXI@Z 120274bc f i  CIL library: CIL module
 0001:000264d9       ?findBucketElem@?$RefHash3KeysIdPool@VSchemaElementDecl@xercesc_2_8@@@xercesc_2_8@@AAEPAU?$RefHash3KeysTableBucketElem@VSchemaElementDecl@xercesc_2_8@@@2@QBXHHAAI@Z 120274d9 f i XSAttributeDeclaration.obj
 0001:0002652d       ?findBucketElem@?$NameIdPool@VXMLNotationDecl@xercesc_2_8@@@xercesc_2_8@@AAEPAU?$NameIdPoolBucketElem@VXMLNotationDecl@xercesc_2_8@@@2@QB_WAAI@Z 1202752d f i XSAttributeDeclaration.obj
 0001:00026574       ?findNext@?$RefHash3KeysIdPoolEnumerator@VSchemaElementDecl@xercesc_2_8@@@xercesc_2_8@@AAEXXZ 12027574 f i XSAttributeDeclaration.obj
 0001:000265c2       ?removeAll@?$RefHash3KeysIdPool@VSchemaElementDecl@xercesc_2_8@@@xercesc_2_8@@QAEXXZ 120275c2 f i XSAttributeDeclaration.obj
 0001:00026618       ??_EXSAttributeGroupDefinition@xercesc_2_8@@UAEPAXI@Z 12027618 f i XSAttributeGroupDefinition.obj
 0001:00026661       ??_FXercesAttGroupInfo@xercesc_2_8@@QAEXXZ 12027661 f i XSAttributeGroupDefinition.obj
 0001:0002666d       ?anyAttributeCount@XercesAttGroupInfo@xercesc_2_8@@QBEIXZ 1202766d f i XSAttributeGroupDefinition.obj
 0001:0002667b       ?attributeAt@XercesAttGroupInfo@xercesc_2_8@@QBEPBVSchemaAttDef@2@I@Z 1202767b f i XSAttributeGroupDefinition.obj
 0001:0002667b       ?getFieldAt@IdentityConstraint@xercesc_2_8@@QAEPAVIC_Field@2@I@Z 1202767b f i XMLElementDecl.obj
 0001:0002667b       ?getFieldAt@IdentityConstraint@xercesc_2_8@@QBEPBVIC_Field@2@I@Z 1202767b f i XMLElementDecl.obj
 0001:0002667b       ?attributeAt@XercesAttGroupInfo@xercesc_2_8@@QAEPAVSchemaAttDef@2@I@Z 1202767b f i XSAttributeGroupDefinition.obj
 0001:0002669f       ?anyAttributeAt@XercesAttGroupInfo@xercesc_2_8@@QAEPAVSchemaAttDef@2@I@Z 1202769f f i XSAttributeGroupDefinition.obj
 0001:0002669f       ?anyAttributeAt@XercesAttGroupInfo@xercesc_2_8@@QBEPBVSchemaAttDef@2@I@Z 1202769f f i XSAttributeGroupDefinition.obj
 0001:000266c3       ?addAttDef@XercesAttGroupInfo@xercesc_2_8@@QAEXQAVSchemaAttDef@2@_N@Z 120276c3 f i XSAttributeGroupDefinition.obj
 0001:0002675d       ?addAnyAttDef@XercesAttGroupInfo@xercesc_2_8@@QAEXQAVSchemaAttDef@2@_N@Z 1202775d f i XSAttributeGroupDefinition.obj
 0001:000267f7       ?setCompleteWildCard@XercesAttGroupInfo@xercesc_2_8@@QAEXQAVSchemaAttDef@2@@Z 120277f7 f i XSAttributeGroupDefinition.obj
 0001:00026812       ??0XSAttributeGroupDefinition@xercesc_2_8@@QAE@QAVXercesAttGroupInfo@1@QAV?$RefVectorOf@VXSAttributeUse@xercesc_2_8@@@1@QAVXSWildcard@1@QAVXSAnnotation@1@QAVXSModel@1@QAVMemoryManager@1@@Z 12027812 f   XSAttributeGroupDefinition.obj
 0001:0002684a       ??1XSAttributeGroupDefinition@xercesc_2_8@@UAE@XZ 1202784a f   XSAttributeGroupDefinition.obj
 0001:0002687e       ??0?$RefVectorOf@VSchemaAttDef@xercesc_2_8@@@xercesc_2_8@@QAE@I_NQAVMemoryManager@1@@Z 1202787e f i XSAttributeGroupDefinition.obj
 0001:000268be       ??1?$BaseRefVectorOf@VSchemaAttDef@xercesc_2_8@@@xercesc_2_8@@UAE@XZ 120278be f i XSAttributeGroupDefinition.obj
 0001:000268c5       ??_E?$RefVectorOf@VSchemaAttDef@xercesc_2_8@@@xercesc_2_8@@UAEPAXI@Z 120278c5 f i  CIL library: CIL module
 0001:000268c5       ??_G?$RefVectorOf@VSchemaAttDef@xercesc_2_8@@@xercesc_2_8@@UAEPAXI@Z 120278c5 f i XSAttributeGroupDefinition.obj
 0001:0002692f       ??_E?$BaseRefVectorOf@VSchemaAttDef@xercesc_2_8@@@xercesc_2_8@@UAEPAXI@Z 1202792f f i  CIL library: CIL module
 0001:0002692f       ??_G?$BaseRefVectorOf@VSchemaAttDef@xercesc_2_8@@@xercesc_2_8@@UAEPAXI@Z 1202792f f i XSAttributeGroupDefinition.obj
 0001:0002694c       ??_EXSAttributeUse@xercesc_2_8@@UAEPAXI@Z 1202794c f i XSAttributeUse.obj
 0001:0002694c       ??_EXSFacet@xercesc_2_8@@UAEPAXI@Z 1202794c f i XSFacet.obj
 0001:00026996       ??0XSAttributeUse@xercesc_2_8@@QAE@QAVXSAttributeDeclaration@1@QAVXSModel@1@QAVMemoryManager@1@@Z 12027996 f   XSAttributeUse.obj
 0001:000269c6       ?set@XSAttributeUse@xercesc_2_8@@AAEX_NW4VALUE_CONSTRAINT@XSConstants@2@QB_W@Z 120279c6 f   XSAttributeUse.obj
 0001:000269de       ??_EXSComplexTypeDefinition@xercesc_2_8@@UAEPAXI@Z 120279de f i XSComplexTypeDefinition.obj
 0001:00026a27       ??_FSchemaAttDefList@xercesc_2_8@@QAEXXZ 12027a27 f i XSComplexTypeDefinition.obj
 0001:00026a33       ?findAttDefLocalPart@SchemaAttDefList@xercesc_2_8@@QBEPBVXMLAttDef@2@KQB_W@Z 12027a33 f i XSComplexTypeDefinition.obj
 0001:00026a33       ?findAttDefLocalPart@SchemaAttDefList@xercesc_2_8@@QAEPAVXMLAttDef@2@KQB_W@Z 12027a33 f i XSComplexTypeDefinition.obj
 0001:00026a48       ??0XSComplexTypeDefinition@xercesc_2_8@@QAE@QAVComplexTypeInfo@1@QAVXSWildcard@1@QAVXSSimpleTypeDefinition@1@QAV?$RefVectorOf@VXSAttributeUse@xercesc_2_8@@@1@QAVXSTypeDefinition@1@QAVXSParticle@1@QAVXSAnnotation@1@QAVXSModel@1@QAVMemoryManager@1@@Z 12027a48 f   XSComplexTypeDefinition.obj
 0001:00026b1f       ??1XSComplexTypeDefinition@xercesc_2_8@@UAE@XZ 12027b1f f   XSComplexTypeDefinition.obj
 0001:00026b6d       ?getDerivationMethod@XSComplexTypeDefinition@xercesc_2_8@@QBE?AW4DERIVATION_TYPE@XSConstants@2@XZ 12027b6d f   XSComplexTypeDefinition.obj
 0001:00026b7d       ?getAbstract@XSComplexTypeDefinition@xercesc_2_8@@QBE_NXZ 12027b7d f   XSComplexTypeDefinition.obj
 0001:00026b84       ?getContentType@XSComplexTypeDefinition@xercesc_2_8@@QBE?AW4CONTENT_TYPE@12@XZ 12027b84 f   XSComplexTypeDefinition.obj
 0001:00026ba6       ?isProhibitedSubstitution@XSComplexTypeDefinition@xercesc_2_8@@QAE_NW4DERIVATION_TYPE@XSConstants@2@@Z 12027ba6 f   XSComplexTypeDefinition.obj
 0001:00026bb4       ?getName@XSComplexTypeDefinition@xercesc_2_8@@UAEPB_WXZ 12027bb4 f   XSComplexTypeDefinition.obj
 0001:00026bbb       ?getNamespace@XSComplexTypeDefinition@xercesc_2_8@@UAEPB_WXZ 12027bbb f   XSComplexTypeDefinition.obj
 0001:00026bc2       ?getAnonymous@XSComplexTypeDefinition@xercesc_2_8@@UBE_NXZ 12027bc2 f   XSComplexTypeDefinition.obj
 0001:00026bc9       ?derivedFromType@XSComplexTypeDefinition@xercesc_2_8@@UAE_NQBVXSTypeDefinition@2@@Z 12027bc9 f   XSComplexTypeDefinition.obj
 0001:00026c15       ??0?$RefVectorOf@VXSAnnotation@xercesc_2_8@@@xercesc_2_8@@QAE@I_NQAVMemoryManager@1@@Z 12027c15 f i XSComplexTypeDefinition.obj
 0001:00026c56       ??1?$BaseRefVectorOf@VXSAnnotation@xercesc_2_8@@@xercesc_2_8@@UAE@XZ 12027c56 f i XSComplexTypeDefinition.obj
 0001:00026c5d       ?addElement@?$BaseRefVectorOf@VOp@xercesc_2_8@@@xercesc_2_8@@QAEXQAVOp@2@@Z 12027c5d f i Op.obj
 0001:00026c5d       ?addElement@?$BaseRefVectorOf@VDatatypeValidator@xercesc_2_8@@@xercesc_2_8@@QAEXQAVDatatypeValidator@2@@Z 12027c5d f i XTemplateSerializer.obj
 0001:00026c5d       ?addElement@?$BaseRefVectorOf@VDOMImplementationSource@xercesc_2_8@@@xercesc_2_8@@QAEXQAVDOMImplementationSource@2@@Z 12027c5d f i DOMImplementationRegistry.obj
 0001:00026c5d       ?addElement@?$BaseRefVectorOf@VXSAnnotation@xercesc_2_8@@@xercesc_2_8@@QAEXQAVXSAnnotation@2@@Z 12027c5d f i XSComplexTypeDefinition.obj
 0001:00026c5d       ?addElement@?$BaseRefVectorOf@VReferencePosition@RegxParser@xercesc_2_8@@@xercesc_2_8@@QAEXQAVReferencePosition@RegxParser@2@@Z 12027c5d f i RegxParser.obj
 0001:00026c5d       ?addElement@?$BaseRefVectorOf@VSchemaInfo@xercesc_2_8@@@xercesc_2_8@@QAEXQAVSchemaInfo@2@@Z 12027c5d f i IGXMLScanner2.obj
 0001:00026c5d       ?addElement@?$BaseRefVectorOf@VXSAttributeUse@xercesc_2_8@@@xercesc_2_8@@QAEXQAVXSAttributeUse@2@@Z 12027c5d f i XSObjectFactory.obj
 0001:00026c5d       ?addElement@?$BaseRefVectorOf@VValueStore@xercesc_2_8@@@xercesc_2_8@@QAEXQAVValueStore@2@@Z 12027c5d f i ValueStoreCache.obj
 0001:00026c5d       ?addElement@?$BaseRefVectorOf@VXSNamespaceItem@xercesc_2_8@@@xercesc_2_8@@QAEXQAVXSNamespaceItem@2@@Z 12027c5d f i XSModel.obj
 0001:00026c5d       ?addElement@?$BaseRefVectorOf@VXSParticle@xercesc_2_8@@@xercesc_2_8@@QAEXQAVXSParticle@2@@Z 12027c5d f i XSObjectFactory.obj
 0001:00026c5d       ?addElement@?$BaseRefVectorOf@VXMLAttr@xercesc_2_8@@@xercesc_2_8@@QAEXQAVXMLAttr@2@@Z 12027c5d f i DGXMLScanner.obj
 0001:00026c5d       ?addElement@?$BaseRefVectorOf@VXSFacet@xercesc_2_8@@@xercesc_2_8@@QAEXQAVXSFacet@2@@Z 12027c5d f i XSObjectFactory.obj
 0001:00026c5d       ?addElement@?$BaseRefVectorOf@VFieldValueMap@xercesc_2_8@@@xercesc_2_8@@QAEXQAVFieldValueMap@2@@Z 12027c5d f i ValueStore.obj
 0001:00026c5d       ?addElement@?$BaseRefVectorOf@VToken@xercesc_2_8@@@xercesc_2_8@@QAEXQAVToken@2@@Z 12027c5d f i TokenFactory.obj
 0001:00026c5d       ?addElement@?$BaseRefVectorOf@VDOMNode@xercesc_2_8@@@xercesc_2_8@@QAEXQAVDOMNode@2@@Z 12027c5d f i DOMDocumentImpl.obj
 0001:00026c5d       ?addElement@?$BaseRefVectorOf@_W@xercesc_2_8@@QAEXQA_W@Z 12027c5d f i XMLString.obj
 0001:00026c5d       ?addElement@?$BaseRefVectorOf@VIdentityConstraint@xercesc_2_8@@@xercesc_2_8@@QAEXQAVIdentityConstraint@2@@Z 12027c5d f i XMLElementDecl.obj
 0001:00026c5d       ?addElement@?$BaseRefVectorOf@VXSMultiValueFacet@xercesc_2_8@@@xercesc_2_8@@QAEXQAVXSMultiValueFacet@2@@Z 12027c5d f i XSObjectFactory.obj
 0001:00026c5d       ?addElement@?$BaseRefVectorOf@VXMLElementDecl@xercesc_2_8@@@xercesc_2_8@@QAEXQAVXMLElementDecl@2@@Z 12027c5d f i WFXMLScanner.obj
 0001:00026c5d       ?addElement@?$BaseRefVectorOf@V?$RefHashTableOf@_W@xercesc_2_8@@@xercesc_2_8@@QAEXQAV?$RefHashTableOf@_W@2@@Z 12027c5d f i DOMWriterImpl.obj
 0001:00026c5d       ?addElement@?$BaseRefVectorOf@VSchemaElementDecl@xercesc_2_8@@@xercesc_2_8@@QAEXQAVSchemaElementDecl@2@@Z 12027c5d f i XMLElementDecl.obj
 0001:00026c5d       ?addElement@?$BaseRefVectorOf@VIC_Field@xercesc_2_8@@@xercesc_2_8@@QAEXQAVIC_Field@2@@Z 12027c5d f i XMLElementDecl.obj
 0001:00026c5d       ?addElement@?$BaseRefVectorOf@VKVStringPair@xercesc_2_8@@@xercesc_2_8@@QAEXQAVKVStringPair@2@@Z 12027c5d f i IGXMLScanner.obj
 0001:00026c5d       ?addElement@?$BaseRefVectorOf@VXercesLocationPath@xercesc_2_8@@@xercesc_2_8@@QAEXQAVXercesLocationPath@2@@Z 12027c5d f i XTemplateSerializer.obj
 0001:00026c5d       ?addElement@?$BaseRefVectorOf@VSchemaAttDef@xercesc_2_8@@@xercesc_2_8@@QAEXQAVSchemaAttDef@2@@Z 12027c5d f i XSAttributeGroupDefinition.obj
 0001:00026c5d       ?addElement@?$BaseRefVectorOf@VXercesStep@xercesc_2_8@@@xercesc_2_8@@QAEXQAVXercesStep@2@@Z 12027c5d f i XSIDCDefinition.obj
 0001:00026c5d       ?addElement@?$BaseRefVectorOf@VXSObject@xercesc_2_8@@@xercesc_2_8@@QAEXQAVXSObject@2@@Z 12027c5d f i XSModel.obj
 0001:00026c83       ??_G?$RefVectorOf@VXSAnnotation@xercesc_2_8@@@xercesc_2_8@@UAEPAXI@Z 12027c83 f i XSComplexTypeDefinition.obj
 0001:00026c83       ??_E?$RefVectorOf@VXSAnnotation@xercesc_2_8@@@xercesc_2_8@@UAEPAXI@Z 12027c83 f i  CIL library: CIL module
 0001:00026ced       ??_G?$BaseRefVectorOf@VXSAnnotation@xercesc_2_8@@@xercesc_2_8@@UAEPAXI@Z 12027ced f i XSComplexTypeDefinition.obj
 0001:00026ced       ??_E?$BaseRefVectorOf@VXSAnnotation@xercesc_2_8@@@xercesc_2_8@@UAEPAXI@Z 12027ced f i  CIL library: CIL module
 0001:00026d0a       ??_EXSElementDeclaration@xercesc_2_8@@UAEPAXI@Z 12027d0a f i XSElementDeclaration.obj
 0001:00026d53       ??0XSElementDeclaration@xercesc_2_8@@QAE@QAVSchemaElementDecl@1@QAVXSTypeDefinition@1@QAV01@QAVXSAnnotation@1@QAV?$XSNamedMap@VXSIDCDefinition@xercesc_2_8@@@1@QAVXSModel@1@W4SCOPE@XSConstants@1@QAVXSComplexTypeDefinition@1@QAVMemoryManager@1@@Z 12027d53 f   XSElementDeclaration.obj
 0001:00026de7       ??1XSElementDeclaration@xercesc_2_8@@UAE@XZ 12027de7 f   XSElementDeclaration.obj
 0001:00026e3c       ?getName@XSElementDeclaration@xercesc_2_8@@UAEPB_WXZ 12027e3c f   XSElementDeclaration.obj
 0001:00026e46       ?getNamespace@XSElementDeclaration@xercesc_2_8@@UAEPB_WXZ 12027e46 f   XSElementDeclaration.obj
 0001:00026e5e       ?getConstraintType@XSElementDeclaration@xercesc_2_8@@QBE?AW4VALUE_CONSTRAINT@XSConstants@2@XZ 12027e5e f   XSElementDeclaration.obj
 0001:00026e76       ?getConstraintValue@XSElementDeclaration@xercesc_2_8@@QAEPB_WXZ 12027e76 f   XSElementDeclaration.obj
 0001:00026e7d       ?getNillable@XSElementDeclaration@xercesc_2_8@@QBE_NXZ 12027e7d f   XSElementDeclaration.obj
 0001:00026e86       ?isSubstitutionGroupExclusion@XSElementDeclaration@xercesc_2_8@@QAE_NW4DERIVATION_TYPE@XSConstants@2@@Z 12027e86 f   XSElementDeclaration.obj
 0001:00026e94       ?isDisallowedSubstitution@XSElementDeclaration@xercesc_2_8@@QAE_NW4DERIVATION_TYPE@XSConstants@2@@Z 12027e94 f   XSElementDeclaration.obj
 0001:00026ea2       ?getAbstract@XSElementDeclaration@xercesc_2_8@@QBE_NXZ 12027ea2 f   XSElementDeclaration.obj
 0001:00026ead       ?isFixed@XSMultiValueFacet@xercesc_2_8@@QBE_NXZ 12027ead f i XSMultiValueFacet.obj
 0001:00026ead       ?getNormalizeData@XMLScanner@xercesc_2_8@@QBE_NXZ 12027ead f i XMLValidator.obj
 0001:00026ead       ?getCreateCommentNodes@AbstractDOMParser@xercesc_2_8@@QBE_NXZ 12027ead f i XSAnnotation.obj
 0001:00026ead       ?isFixed@XSFacet@xercesc_2_8@@QBE_NXZ 12027ead f i XSFacet.obj
 0001:00026eb1       ??0XSFacet@xercesc_2_8@@QAE@W4FACET@XSSimpleTypeDefinition@1@QB_W_NQAVXSAnnotation@1@QAVXSModel@1@QAVMemoryManager@1@@Z 12027eb1 f   XSFacet.obj
 0001:00026ee9       ??_EXSIDCDefinition@xercesc_2_8@@UAEPAXI@Z 12027ee9 f i XSIDCDefinition.obj
 0001:00026f32       ??_FIC_KeyRef@xercesc_2_8@@QAEXXZ 12027f32 f i XSIDCDefinition.obj
 0001:00026f3e       ?getNodeType@DOMAttrImpl@xercesc_2_8@@UBEFXZ 12027f3e f i DOMAttrImpl.obj
 0001:00026f3e       ?getType@IC_KeyRef@xercesc_2_8@@UBEFXZ 12027f3e f i XSIDCDefinition.obj
 0001:00026f43       ??_FIC_Selector@xercesc_2_8@@QAEXXZ 12027f43 f i XSIDCDefinition.obj
 0001:00026f52       ??1XPathMatcher@xercesc_2_8@@UAE@XZ 12027f52 f i XPathMatcher.obj
 0001:00026f52       ??1FieldMatcher@xercesc_2_8@@UAE@XZ 12027f52 f i XMLElementDecl.obj
 0001:00026f52       ??1SelectorMatcher@xercesc_2_8@@UAE@XZ 12027f52 f i XSIDCDefinition.obj
 0001:00026f5d       ??_ESelectorMatcher@xercesc_2_8@@UAEPAXI@Z 12027f5d f i XSIDCDefinition.obj
 0001:00026fac       ??1XercesNodeTest@xercesc_2_8@@UAE@XZ 12027fac f i XSIDCDefinition.obj
 0001:00026fe0       ?getType@XercesNodeTest@xercesc_2_8@@QBEFXZ 12027fe0 f i XSIDCDefinition.obj
 0001:00026fe0       ?getAxisType@XercesStep@xercesc_2_8@@QBEGXZ 12027fe0 f i XSIDCDefinition.obj
 0001:00026fe0       ?getTokenType@Token@xercesc_2_8@@QBEGXZ 12027fe0 f i ASCIIRangeFactory.obj
 0001:00026fe5       ??_FXercesNodeTest@xercesc_2_8@@QAEXXZ 12027fe5 f i XSIDCDefinition.obj
 0001:00026ff6       ??_EXercesNodeTest@xercesc_2_8@@UAEPAXI@Z 12027ff6 f i XSIDCDefinition.obj
 0001:0002703f       ??1XercesStep@xercesc_2_8@@UAE@XZ 1202803f f i XSIDCDefinition.obj
 0001:00027073       ??_FXercesStep@xercesc_2_8@@QAEXXZ 12028073 f i XSIDCDefinition.obj
 0001:00027084       ??_EXercesStep@xercesc_2_8@@UAEPAXI@Z 12028084 f i XSIDCDefinition.obj
 0001:000270cd       ??1XercesLocationPath@xercesc_2_8@@UAE@XZ 120280cd f i XSIDCDefinition.obj
 0001:00027101       ??_FXercesLocationPath@xercesc_2_8@@QAEXXZ 12028101 f i XSIDCDefinition.obj
 0001:0002710c       ??_EXercesLocationPath@xercesc_2_8@@UAEPAXI@Z 1202810c f i XSIDCDefinition.obj
 0001:00027155       ??_FXercesXPath@xercesc_2_8@@QAEXXZ 12028155 f i XSIDCDefinition.obj
 0001:00027161       ??_EXPathScannerForSchema@xercesc_2_8@@UAEPAXI@Z 12028161 f i XSIDCDefinition.obj
 0001:00027161       ??_EXPathScanner@xercesc_2_8@@UAEPAXI@Z 12028161 f i XSIDCDefinition.obj
 0001:000271ab       ??1XPathScanner@xercesc_2_8@@UAE@XZ 120281ab f i XSIDCDefinition.obj
 0001:000271ab       ??1XPathScannerForSchema@xercesc_2_8@@UAE@XZ 120281ab f i XSIDCDefinition.obj
 0001:000271b2       ?getStepSize@XercesLocationPath@xercesc_2_8@@QBEIXZ 120281b2 f i XSIDCDefinition.obj
 0001:000271b2       ?getLength@DOMAttrMapImpl@xercesc_2_8@@UBEKXZ 120281b2 f i DOMAttrMapImpl.obj
 0001:000271c0       ?addStep@XercesLocationPath@xercesc_2_8@@QAEXQAVXercesStep@2@@Z 120281c0 f i XSIDCDefinition.obj
 0001:000271c8       ?getStep@XercesLocationPath@xercesc_2_8@@QBEPAVXercesStep@2@I@Z 120281c8 f i XSIDCDefinition.obj
 0001:000271ec       ?addToken@XPathScanner@xercesc_2_8@@MAEXQAV?$ValueVectorOf@H@2@H@Z 120281ec f i XSIDCDefinition.obj
 0001:000271ff       ??0XSIDCDefinition@xercesc_2_8@@QAE@QAVIdentityConstraint@1@QAV01@QAVXSAnnotation@1@QAV?$RefArrayVectorOf@_W@1@QAVXSModel@1@QAVMemoryManager@1@@Z 120281ff f   XSIDCDefinition.obj
 0001:0002728e       ??1XSIDCDefinition@xercesc_2_8@@UAE@XZ 1202828e f   XSIDCDefinition.obj
 0001:000272cf       ?getLength@DOMTextImpl@xercesc_2_8@@UBEKXZ 120282cf f   DOMTextImpl.obj
 0001:000272cf       ?getLength@DOMCommentImpl@xercesc_2_8@@UBEKXZ 120282cf f   DOMCommentImpl.obj
 0001:000272cf       ?getName@XSIDCDefinition@xercesc_2_8@@UAEPB_WXZ 120282cf f   XSIDCDefinition.obj
 0001:000272d6       ?getNamespace@XSIDCDefinition@xercesc_2_8@@UAEPB_WXZ 120282d6 f   XSIDCDefinition.obj
 0001:000272eb       ?getCategory@XSIDCDefinition@xercesc_2_8@@QBE?AW4IC_CATEGORY@12@XZ 120282eb f   XSIDCDefinition.obj
 0001:0002730d       ?getSelectorStr@XSIDCDefinition@xercesc_2_8@@QAEPB_WXZ 1202830d f   XSIDCDefinition.obj
 0001:0002731a       ?getElementId@ComplexTypeInfo@xercesc_2_8@@QBEIXZ 1202831a f   XMLElementDecl.obj
 0001:0002731a       ?getNextSibling@DOMEntityReferenceImpl@xercesc_2_8@@UBEPAVDOMNode@2@XZ 1202831a f   DOMEntityReferenceImpl.obj
 0001:0002731a       ?getAnnotation@XSWildcard@xercesc_2_8@@QBEPAVXSAnnotation@2@XZ 1202831a f   XSComplexTypeDefinition.obj
 0001:0002731a       ?getAnnotation@XSAttributeGroupDefinition@xercesc_2_8@@QBEPAVXSAnnotation@2@XZ 1202831a f   XSAttributeGroupDefinition.obj
 0001:0002731a       ?getBaseURI@XMLEntityDecl@xercesc_2_8@@QBEPB_WXZ 1202831a f   XMLDTDDescription.obj
 0001:0002731a       ?getAnnotation@XSFacet@xercesc_2_8@@QBEPAVXSAnnotation@2@XZ 1202831a f   XSFacet.obj
 0001:0002731a       ?getNextSibling@DOMElementImpl@xercesc_2_8@@UBEPAVDOMNode@2@XZ 1202831a f   DOMElementImpl.obj
 0001:0002731a       ?getPublicId@DOMEntityImpl@xercesc_2_8@@UBEPB_WXZ 1202831a f   DOMEntityImpl.obj
 0001:0002731a       ?getAttrDeclaration@XSAttributeUse@xercesc_2_8@@QBEPAVXSAttributeDeclaration@2@XZ 1202831a f   XSAttributeGroupDefinition.obj
 0001:0002731a       ?getValidity@SchemaElementDecl@xercesc_2_8@@QBE?AW4Validity@PSVIDefs@2@XZ 1202831a f   XMLElementDecl.obj
 0001:0002731a       ?getMemoryManager@XPathMatcher@xercesc_2_8@@QBEPAVMemoryManager@2@XZ 1202831a f   XMLElementDecl.obj
 0001:0002731a       ?getMemoryManager@QName@xercesc_2_8@@QBEPAVMemoryManager@2@XZ 1202831a f   QName.obj
 0001:0002731a       ?getNextSibling@DOMDocumentTypeImpl@xercesc_2_8@@UBEPAVDOMNode@2@XZ 1202831a f   DOMDocumentTypeImpl.obj
 0001:0002731a       ?getLocator@XercesGroupInfo@xercesc_2_8@@QBEPAVXSDLocator@2@XZ 1202831a f   XSModel.obj
 0001:0002731a       ?getMinOccurs@ContentSpecNode@xercesc_2_8@@QBEHXZ 1202831a f   XSWildcard.obj
 0001:0002731a       ?getGroupInfoRegistry@SchemaGrammar@xercesc_2_8@@QBEPAV?$RefHashTableOf@VXercesGroupInfo@xercesc_2_8@@@2@XZ 1202831a f   XSAttributeDeclaration.obj
 0001:0002731a       ?getString@Context@RegularExpression@xercesc_2_8@@QBEPB_WXZ 1202831a f   RegularExpression.obj
 0001:0002731a       ?getEntityResolver@SAX2XMLFilterImpl@xercesc_2_8@@UBEPAVEntityResolver@2@XZ 1202831a f   SAX2XMLFilterImpl.obj
 0001:0002731a       ?getFragment@XMLUri@xercesc_2_8@@QBEPB_WXZ 1202831a f   XMLString.obj
 0001:0002731a       ?getMemoryManager@XMLAttDef@xercesc_2_8@@QBEPAVMemoryManager@2@XZ 1202831a f   XMLAttDef.obj
 0001:0002731a       ?getRoot@SchemaInfo@xercesc_2_8@@QBEPBVDOMElement@2@XZ 1202831a f   IGXMLScanner2.obj
 0001:0002731a       ?getQuery@XMLURL@xercesc_2_8@@QBEPB_WXZ 1202831a f   PlatformUtils.obj
 0001:0002731a       ?getAnnotations@XSIDCDefinition@xercesc_2_8@@QAEPAV?$RefVectorOf@VXSAnnotation@xercesc_2_8@@@2@XZ 1202831a f   XSIDCDefinition.obj
 0001:0002731a       ?getNextSibling@DOMCDATASectionImpl@xercesc_2_8@@UBEPAVDOMNode@2@XZ 1202831a f   DOMCDATASectionImpl.obj
 0001:0002731a       ?getDefinedFacets@XSSimpleTypeDefinition@xercesc_2_8@@QBEHXZ 1202831a f   XMLAttr.obj
 0001:0002731a       ?getTypeDefinition@XSElementDeclaration@xercesc_2_8@@QBEPAVXSTypeDefinition@2@XZ 1202831a f   PSVIElement.obj
 0001:0002731a       ?getErrorCount@XMLScanner@xercesc_2_8@@QAEHXZ 1202831a f   XMLValidator.obj
 0001:0002731a       ?getSystemId@XSAnnotation@xercesc_2_8@@QBEPB_WXZ 1202831a f   XSAnnotation.obj
 0001:0002731a       ?getBaseValidator@DatatypeValidator@xercesc_2_8@@QBEPAV12@XZ 1202831a f   XMLAttr.obj
 0001:0002731a       ?getAnnotations@XSMultiValueFacet@xercesc_2_8@@QAEPAV?$RefVectorOf@VXSAnnotation@xercesc_2_8@@@2@XZ 1202831a f   XSMultiValueFacet.obj
 0001:0002731a       ?getScope@XSAttributeDeclaration@xercesc_2_8@@QBE?AW4SCOPE@XSConstants@2@XZ 1202831a f   PSVIAttributeList.obj
 0001:0002731e       ??_FXercesGroupInfo@xercesc_2_8@@QAEXXZ 1202831e f i XSModel.obj
 0001:0002732a       ?elementCount@XercesGroupInfo@xercesc_2_8@@QBEIXZ 1202832a f i XSModel.obj
 0001:00027331       ?elementAt@XercesGroupInfo@xercesc_2_8@@QBEPBVSchemaElementDecl@2@I@Z 12028331 f i XSModel.obj
 0001:00027331       ?elementAt@XercesGroupInfo@xercesc_2_8@@QAEPAVSchemaElementDecl@2@I@Z 12028331 f i XSModel.obj
 0001:0002734d       ?getAnonymous@ComplexTypeInfo@xercesc_2_8@@QBE_NXZ 1202834d f i XMLElementDecl.obj
 0001:0002734d       ?containsTypeWithId@XercesAttGroupInfo@xercesc_2_8@@QBE_NXZ 1202834d f i XSAttributeGroupDefinition.obj
 0001:0002734d       ?getCheckElementConsistency@XercesGroupInfo@xercesc_2_8@@QBE_NXZ 1202834d f i XSModel.obj
 0001:0002734d       ?getExitOnFirstFatal@XSDErrorReporter@xercesc_2_8@@QBE_NXZ 1202834d f i IGXMLScanner.obj
 0001:0002734d       ?getDeclared@XMLRefInfo@xercesc_2_8@@QBE_NXZ 1202834d f i XMLRefInfo.obj
 0001:0002734d       ?getAnonymous@DatatypeValidator@xercesc_2_8@@QBE_NXZ 1202834d f i XMLAttr.obj
 0001:00027351       ?addElement@XercesGroupInfo@xercesc_2_8@@QAEXQAVSchemaElementDecl@2@@Z 12028351 f i XSModel.obj
 0001:00027373       ?setTypeWithId@XercesAttGroupInfo@xercesc_2_8@@QAEX_N@Z 12028373 f i XSAttributeGroupDefinition.obj
 0001:00027373       ?setDeclared@XMLRefInfo@xercesc_2_8@@QAEX_N@Z 12028373 f i XMLRefInfo.obj
 0001:00027373       ?setCheckElementConsistency@XercesGroupInfo@xercesc_2_8@@QAEX_N@Z 12028373 f i XSModel.obj
 0001:00027373       ?setExitOnFirstFatal@XSDErrorReporter@xercesc_2_8@@QAEX_N@Z 12028373 f i IGXMLScanner.obj
 0001:00027373       ?setAdoptLocation@DOMErrorImpl@xercesc_2_8@@QAEX_N@Z 12028373 f i DOMBuilderImpl.obj
 0001:0002737d       ??_FXSObjectFactory@xercesc_2_8@@QAEXXZ 1202837d f i XSModel.obj
 0001:00027389       ?getObjectFromMap@XSObjectFactory@xercesc_2_8@@AAEPAVXSObject@2@PAX@Z 12028389 f i XSModel.obj
 0001:00027389       ?getGlobalValueStoreFor@ValueStoreCache@xercesc_2_8@@QAEPAVValueStore@2@QBVIdentityConstraint@2@@Z 12028389 f i IGXMLScanner.obj
 0001:0002739a       ??0XSModel@xercesc_2_8@@QAE@PAVXMLGrammarPool@1@QAVMemoryManager@1@@Z 1202839a f   XSModel.obj
 0001:00027746       ??0XSModel@xercesc_2_8@@QAE@PAV01@PAVGrammarResolver@1@QAVMemoryManager@1@@Z 12028746 f   XSModel.obj
 0001:00027d37       ??1XSModel@xercesc_2_8@@QAE@XZ 12028d37 f   XSModel.obj
 0001:00027e20       ??_G?$XSNamedMap@VXSObject@xercesc_2_8@@@xercesc_2_8@@QAEPAXI@Z 12028e20 f i XSModel.obj
 0001:00027e4c       ?addComponentToIdVector@XSModel@xercesc_2_8@@AAEXQAVXSObject@2@H@Z 12028e4c f   XSModel.obj
 0001:00027e6b       ?addComponentToNamespace@XSModel@xercesc_2_8@@AAEXQAVXSNamespaceItem@2@QAVXSObject@2@H_N@Z 12028e6b f   XSModel.obj
 0001:00027ed7       ?addS4SToXSModel@XSModel@xercesc_2_8@@AAEXQAVXSNamespaceItem@2@QAV?$RefHashTableOf@VDatatypeValidator@xercesc_2_8@@@2@@Z 12028ed7 f   XSModel.obj
 0001:00027fd8       ?addGrammarToXSModel@XSModel@xercesc_2_8@@AAEXPAVXSNamespaceItem@2@@Z 12028fd8 f   XSModel.obj
 0001:000282cd       ?getComponents@XSModel@xercesc_2_8@@QAEPAV?$XSNamedMap@VXSObject@xercesc_2_8@@@2@W4COMPONENT_TYPE@XSConstants@2@@Z 120292cd f   XSModel.obj
 0001:000282d8       ?getComponentsByNamespace@XSModel@xercesc_2_8@@QAEPAV?$XSNamedMap@VXSObject@xercesc_2_8@@@2@W4COMPONENT_TYPE@XSConstants@2@PB_W@Z 120292d8 f   XSModel.obj
 0001:00028302       ?getElementDeclaration@XSModel@xercesc_2_8@@QAEPAVXSElementDeclaration@2@PB_W0@Z 12029302 f   XSModel.obj
 0001:0002832f       ?getAttributeDeclaration@XSModel@xercesc_2_8@@QAEPAVXSAttributeDeclaration@2@PB_W0@Z 1202932f f   XSModel.obj
 0001:0002835c       ?getTypeDefinition@XSModel@xercesc_2_8@@QAEPAVXSTypeDefinition@2@PB_W0@Z 1202935c f   XSModel.obj
 0001:00028389       ?getAttributeGroup@XSModel@xercesc_2_8@@QAEPAVXSAttributeGroupDefinition@2@PB_W0@Z 12029389 f   XSModel.obj
 0001:000283b6       ?getModelGroupDefinition@XSModel@xercesc_2_8@@QAEPAVXSModelGroupDefinition@2@PB_W0@Z 120293b6 f   XSModel.obj
 0001:000283e3       ?getNotationDeclaration@XSModel@xercesc_2_8@@QAEPAVXSNotationDeclaration@2@PB_W0@Z 120293e3 f   XSModel.obj
 0001:00028410       ?getXSObjectById@XSModel@xercesc_2_8@@QAEPAVXSObject@2@IW4COMPONENT_TYPE@XSConstants@2@@Z 12029410 f   XSModel.obj
 0001:0002842e       ?getNamespaceItem@XSModel@xercesc_2_8@@QAEPAVXSNamespaceItem@2@QB_W@Z 1202942e f   XSModel.obj
 0001:00028464       ?getXSObject@XSModel@xercesc_2_8@@QAEPAVXSObject@2@PAX@Z 12029464 f   XSModel.obj
 0001:00028494       ??1?$XMLEnumerator@VGrammar@xercesc_2_8@@@xercesc_2_8@@UAE@XZ 12029494 f i XSModel.obj
 0001:0002849b       ??1?$XMLEnumerator@VDatatypeValidator@xercesc_2_8@@@xercesc_2_8@@UAE@XZ 1202949b f i XSModel.obj
 0001:000284a2       ??1?$XMLEnumerator@VXMLAttDef@xercesc_2_8@@@xercesc_2_8@@UAE@XZ 120294a2 f i XSModel.obj
 0001:000284a9       ??1?$XMLEnumerator@VComplexTypeInfo@xercesc_2_8@@@xercesc_2_8@@UAE@XZ 120294a9 f i XSModel.obj
 0001:000284b0       ??1?$XMLEnumerator@VXercesAttGroupInfo@xercesc_2_8@@@xercesc_2_8@@UAE@XZ 120294b0 f i XSModel.obj
 0001:000284b7       ??1?$XMLEnumerator@VXercesGroupInfo@xercesc_2_8@@@xercesc_2_8@@UAE@XZ 120294b7 f i XSModel.obj
 0001:000284be       ??_G?$XMLEnumerator@VGrammar@xercesc_2_8@@@xercesc_2_8@@UAEPAXI@Z 120294be f i XSModel.obj
 0001:000284be       ??_E?$XMLEnumerator@VGrammar@xercesc_2_8@@@xercesc_2_8@@UAEPAXI@Z 120294be f i  CIL library: CIL module
 0001:000284db       ??_E?$XMLEnumerator@VDatatypeValidator@xercesc_2_8@@@xercesc_2_8@@UAEPAXI@Z 120294db f i  CIL library: CIL module
 0001:000284db       ??_G?$XMLEnumerator@VDatatypeValidator@xercesc_2_8@@@xercesc_2_8@@UAEPAXI@Z 120294db f i XSModel.obj
 0001:000284f8       ??_G?$XMLEnumerator@VXMLAttDef@xercesc_2_8@@@xercesc_2_8@@UAEPAXI@Z 120294f8 f i XSModel.obj
 0001:000284f8       ??_E?$XMLEnumerator@VXMLAttDef@xercesc_2_8@@@xercesc_2_8@@UAEPAXI@Z 120294f8 f i  CIL library: CIL module
 0001:00028515       ??_E?$XMLEnumerator@VComplexTypeInfo@xercesc_2_8@@@xercesc_2_8@@UAEPAXI@Z 12029515 f i  CIL library: CIL module
 0001:00028515       ??_G?$XMLEnumerator@VComplexTypeInfo@xercesc_2_8@@@xercesc_2_8@@UAEPAXI@Z 12029515 f i XSModel.obj
 0001:00028532       ??_G?$XMLEnumerator@VXercesAttGroupInfo@xercesc_2_8@@@xercesc_2_8@@UAEPAXI@Z 12029532 f i XSModel.obj
 0001:00028532       ??_E?$XMLEnumerator@VXercesAttGroupInfo@xercesc_2_8@@@xercesc_2_8@@UAEPAXI@Z 12029532 f i  CIL library: CIL module
 0001:0002854f       ??_E?$XMLEnumerator@VXercesGroupInfo@xercesc_2_8@@@xercesc_2_8@@UAEPAXI@Z 1202954f f i  CIL library: CIL module
 0001:0002854f       ??_G?$XMLEnumerator@VXercesGroupInfo@xercesc_2_8@@@xercesc_2_8@@UAEPAXI@Z 1202954f f i XSModel.obj
 0001:0002856c       ??0?$RefVectorOf@VXSNamespaceItem@xercesc_2_8@@@xercesc_2_8@@QAE@I_NQAVMemoryManager@1@@Z 1202956c f i XSModel.obj
 0001:000285ab       ??0?$XSNamedMap@VXSObject@xercesc_2_8@@@xercesc_2_8@@QAE@IIPAVXMLStringPool@1@_NQAVMemoryManager@1@@Z 120295ab f i XSModel.obj
 0001:00028626       ?addElement@?$XSNamedMap@VXSObject@xercesc_2_8@@@xercesc_2_8@@QAEXQAVXSObject@2@PB_W1@Z 12029626 f i XSModel.obj
 0001:00028656       ??0?$RefVectorOf@VXSObject@xercesc_2_8@@@xercesc_2_8@@QAE@I_NQAVMemoryManager@1@@Z 12029656 f i XSModel.obj
 0001:00028696       ??0?$RefHashTableOf@VXSNamespaceItem@xercesc_2_8@@@xercesc_2_8@@QAE@I_NQAVMemoryManager@1@@Z 12029696 f i XSModel.obj
 0001:000286ed       ?put@?$RefHashTableOf@VXSNamespaceItem@xercesc_2_8@@@xercesc_2_8@@QAEXPAXQAVXSNamespaceItem@2@@Z 120296ed f i XSModel.obj
 0001:00028772       ?put@?$RefHashTableOf@VXSObject@xercesc_2_8@@@xercesc_2_8@@QAEXPAXQAVXSObject@2@@Z 12029772 f i XSModel.obj
 0001:000287ef       ??1?$RefHashTableOfEnumerator@VGrammar@xercesc_2_8@@@xercesc_2_8@@UAE@XZ 120297ef f i XSModel.obj
 0001:00028828       ?nextElement@?$RefHashTableOfEnumerator@VXMLRefInfo@xercesc_2_8@@@xercesc_2_8@@UAEAAVXMLRefInfo@2@XZ 12029828 f i XMLScanner.obj
 0001:00028828       ?nextElement@?$RefHashTableOfEnumerator@_W@xercesc_2_8@@UAEAA_WXZ 12029828 f i DOMNormalizer.obj
 0001:00028828       ?nextElement@?$RefHashTableOfEnumerator@VKVStringPair@xercesc_2_8@@@xercesc_2_8@@UAEAAVKVStringPair@2@XZ 12029828 f i XSObjectFactory.obj
 0001:00028828       ?nextElement@?$RefHashTableOfEnumerator@VValueStore@xercesc_2_8@@@xercesc_2_8@@UAEAAVValueStore@2@XZ 12029828 f i ValueStoreCache.obj
 0001:00028828       ?nextElement@?$RefHashTableOfEnumerator@VXercesAttGroupInfo@xercesc_2_8@@@xercesc_2_8@@UAEAAVXercesAttGroupInfo@2@XZ 12029828 f i XSModel.obj
 0001:00028828       ?nextElement@?$RefHashTableOfEnumerator@VComplexTypeInfo@xercesc_2_8@@@xercesc_2_8@@UAEAAVComplexTypeInfo@2@XZ 12029828 f i XSModel.obj
 0001:00028828       ?nextElement@?$RefHashTableOfEnumerator@VDTDAttDef@xercesc_2_8@@@xercesc_2_8@@UAEAAVDTDAttDef@2@XZ 12029828 f i XTemplateSerializer.obj
 0001:00028828       ?nextElement@?$RefHashTableOfEnumerator@VXMLAttDef@xercesc_2_8@@@xercesc_2_8@@UAEAAVXMLAttDef@2@XZ 12029828 f i XSModel.obj
 0001:00028828       ?nextElement@?$RefHashTableOfEnumerator@VGrammar@xercesc_2_8@@@xercesc_2_8@@UAEAAVGrammar@2@XZ 12029828 f i XSModel.obj
 0001:00028828       ?nextElement@?$RefHashTableOfEnumerator@VXSAnnotation@xercesc_2_8@@@xercesc_2_8@@UAEAAVXSAnnotation@2@XZ 12029828 f i XTemplateSerializer.obj
 0001:00028828       ?nextElement@?$RefHashTableOfEnumerator@VXercesGroupInfo@xercesc_2_8@@@xercesc_2_8@@UAEAAVXercesGroupInfo@2@XZ 12029828 f i XSModel.obj
 0001:00028828       ?nextElement@?$RefHashTableOfEnumerator@VDatatypeValidator@xercesc_2_8@@@xercesc_2_8@@UAEAAVDatatypeValidator@2@XZ 12029828 f i XSModel.obj
 0001:00028870       ?Reset@?$RefHashTableOfEnumerator@VDatatypeValidator@xercesc_2_8@@@xercesc_2_8@@UAEXXZ 12029870 f i XSModel.obj
 0001:00028870       ?Reset@?$RefHashTableOfEnumerator@VXMLAttDef@xercesc_2_8@@@xercesc_2_8@@UAEXXZ 12029870 f i XSModel.obj
 0001:00028870       ?Reset@?$RefHashTableOfEnumerator@VXercesAttGroupInfo@xercesc_2_8@@@xercesc_2_8@@UAEXXZ 12029870 f i XSModel.obj
 0001:00028870       ?Reset@?$RefHashTableOfEnumerator@VComplexTypeInfo@xercesc_2_8@@@xercesc_2_8@@UAEXXZ 12029870 f i XSModel.obj
 0001:00028870       ?Reset@?$RefHashTableOfEnumerator@VXSAnnotation@xercesc_2_8@@@xercesc_2_8@@UAEXXZ 12029870 f i XTemplateSerializer.obj
 0001:00028870       ?Reset@?$RefHashTableOfEnumerator@VValueStore@xercesc_2_8@@@xercesc_2_8@@UAEXXZ 12029870 f i ValueStoreCache.obj
 0001:00028870       ?Reset@?$RefHashTableOfEnumerator@VDTDAttDef@xercesc_2_8@@@xercesc_2_8@@UAEXXZ 12029870 f i XTemplateSerializer.obj
 0001:00028870       ?Reset@?$RefHashTableOfEnumerator@VKVStringPair@xercesc_2_8@@@xercesc_2_8@@UAEXXZ 12029870 f i XSObjectFactory.obj
 0001:00028870       ?Reset@?$RefHashTableOfEnumerator@VXercesGroupInfo@xercesc_2_8@@@xercesc_2_8@@UAEXXZ 12029870 f i XSModel.obj
 0001:00028870       ?Reset@?$RefHashTableOfEnumerator@_W@xercesc_2_8@@UAEXXZ 12029870 f i DOMNormalizer.obj
 0001:00028870       ?Reset@?$RefHashTableOfEnumerator@VXMLRefInfo@xercesc_2_8@@@xercesc_2_8@@UAEXXZ 12029870 f i XMLScanner.obj
 0001:00028870       ?Reset@?$RefHashTableOfEnumerator@VGrammar@xercesc_2_8@@@xercesc_2_8@@UAEXXZ 12029870 f i XSModel.obj
 0001:0002887f       ??0?$RefHashTableOfEnumerator@VDatatypeValidator@xercesc_2_8@@@xercesc_2_8@@QAE@QAV?$RefHashTableOf@VDatatypeValidator@xercesc_2_8@@@1@_NQAVMemoryManager@1@@Z 1202987f f i XSModel.obj
 0001:000288e4       ??1?$RefHashTableOfEnumerator@VDatatypeValidator@xercesc_2_8@@@xercesc_2_8@@UAE@XZ 120298e4 f i XSModel.obj
 0001:0002891d       ?hasMoreElements@?$RefHashTableOfEnumerator@VXMLAttDef@xercesc_2_8@@@xercesc_2_8@@UBE_NXZ 1202991d f i XSModel.obj
 0001:0002891d       ?hasMoreElements@?$RefHash2KeysTableOfEnumerator@V?$ValueVectorOf@PAVSchemaElementDecl@xercesc_2_8@@@xercesc_2_8@@@xercesc_2_8@@UBE_NXZ 1202991d f i XTemplateSerializer.obj
 0001:0002891d       ?hasMoreElements@?$RefHashTableOfEnumerator@VComplexTypeInfo@xercesc_2_8@@@xercesc_2_8@@UBE_NXZ 1202991d f i XSModel.obj
 0001:0002891d       ?hasMoreElements@?$RefHashTableOfEnumerator@VXSAnnotation@xercesc_2_8@@@xercesc_2_8@@UBE_NXZ 1202991d f i XTemplateSerializer.obj
 0001:0002891d       ?hasMoreElements@?$RefHashTableOfEnumerator@VXMLRefInfo@xercesc_2_8@@@xercesc_2_8@@UBE_NXZ 1202991d f i XMLScanner.obj
 0001:0002891d       ?hasMoreElements@?$RefHashTableOfEnumerator@VDTDAttDef@xercesc_2_8@@@xercesc_2_8@@UBE_NXZ 1202991d f i XTemplateSerializer.obj
 0001:0002891d       ?hasMoreElements@?$RefHash2KeysTableOfEnumerator@VSchemaAttDef@xercesc_2_8@@@xercesc_2_8@@UBE_NXZ 1202991d f i XMLElementDecl.obj
 0001:0002891d       ?hasMoreElements@?$RefHashTableOfEnumerator@VGrammar@xercesc_2_8@@@xercesc_2_8@@UBE_NXZ 1202991d f i XSModel.obj
 0001:0002891d       ?hasMoreElements@?$RefHashTableOfEnumerator@VDatatypeValidator@xercesc_2_8@@@xercesc_2_8@@UBE_NXZ 1202991d f i XSModel.obj
 0001:0002891d       ?hasMoreElements@?$RefHashTableOfEnumerator@VValueStore@xercesc_2_8@@@xercesc_2_8@@UBE_NXZ 1202991d f i ValueStoreCache.obj
 0001:0002891d       ?hasMoreElements@?$RefHashTableOfEnumerator@VKVStringPair@xercesc_2_8@@@xercesc_2_8@@UBE_NXZ 1202991d f i XSObjectFactory.obj
 0001:0002891d       ?hasMoreElements@?$RefHashTableOfEnumerator@VXercesGroupInfo@xercesc_2_8@@@xercesc_2_8@@UBE_NXZ 1202991d f i XSModel.obj
 0001:0002891d       ?hasMoreElements@?$RefHashTableOfEnumerator@_W@xercesc_2_8@@UBE_NXZ 1202991d f i DOMNormalizer.obj
 0001:0002891d       ?hasMoreElements@?$RefHashTableOfEnumerator@VXercesAttGroupInfo@xercesc_2_8@@@xercesc_2_8@@UBE_NXZ 1202991d f i XSModel.obj
 0001:0002891d       ?hasMoreElements@?$RefHash2KeysTableOfEnumerator@V?$KeyRefPair@XVDOMUserDataHandler@xercesc_2_8@@@xercesc_2_8@@@xercesc_2_8@@UBE_NXZ 1202991d f i DOMDocumentImpl.obj
 0001:00028934       ??1?$BaseRefVectorOf@VXSObject@xercesc_2_8@@@xercesc_2_8@@UAE@XZ 12029934 f i XSModel.obj
 0001:0002893b       ?removeLastElement@?$BaseRefVectorOf@VXSIDCDefinition@xercesc_2_8@@@xercesc_2_8@@UAEXXZ 1202993b f i XSObjectFactory.obj
 0001:0002893b       ?removeLastElement@?$BaseRefVectorOf@VENameMap@xercesc_2_8@@@xercesc_2_8@@UAEXXZ 1202993b f i TransService.obj
 0001:0002893b       ?removeLastElement@?$BaseRefVectorOf@VXSAttributeUse@xercesc_2_8@@@xercesc_2_8@@UAEXXZ 1202993b f i XSObjectFactory.obj
 0001:0002893b       ?removeLastElement@?$BaseRefVectorOf@VXercesLocationPath@xercesc_2_8@@@xercesc_2_8@@UAEXXZ 1202993b f i XTemplateSerializer.obj
 0001:0002893b       ?removeLastElement@?$BaseRefVectorOf@VOp@xercesc_2_8@@@xercesc_2_8@@UAEXXZ 1202993b f i Op.obj
 0001:0002893b       ?removeLastElement@?$BaseRefVectorOf@VSchemaAttDef@xercesc_2_8@@@xercesc_2_8@@UAEXXZ 1202993b f i XSAttributeGroupDefinition.obj
 0001:0002893b       ?removeLastElement@?$BaseRefVectorOf@VXMLElementDecl@xercesc_2_8@@@xercesc_2_8@@UAEXXZ 1202993b f i WFXMLScanner.obj
 0001:0002893b       ?removeLastElement@?$BaseRefVectorOf@VDOMNodeIteratorImpl@xercesc_2_8@@@xercesc_2_8@@UAEXXZ 1202993b f i DOMDocumentImpl.obj
 0001:0002893b       ?removeLastElement@?$BaseRefVectorOf@VContentSpecNode@xercesc_2_8@@@xercesc_2_8@@UAEXXZ 1202993b f i XTemplateSerializer.obj
 0001:0002893b       ?removeLastElement@?$BaseRefVectorOf@VXSSimpleTypeDefinition@xercesc_2_8@@@xercesc_2_8@@UAEXXZ 1202993b f i XSObjectFactory.obj
 0001:0002893b       ?removeLastElement@?$BaseRefVectorOf@VPSVIAttribute@xercesc_2_8@@@xercesc_2_8@@UAEXXZ 1202993b f i PSVIAttributeList.obj
 0001:0002893b       ?removeLastElement@?$BaseRefVectorOf@VDOMRangeImpl@xercesc_2_8@@@xercesc_2_8@@UAEXXZ 1202993b f i DOMDocumentImpl.obj
 0001:0002893b       ?removeLastElement@?$BaseRefVectorOf@VXSMultiValueFacet@xercesc_2_8@@@xercesc_2_8@@UAEXXZ 1202993b f i XSObjectFactory.obj
 0001:0002893b       ?removeLastElement@?$BaseRefVectorOf@VDOMNode@xercesc_2_8@@@xercesc_2_8@@UAEXXZ 1202993b f i DOMDocumentImpl.obj
 0001:0002893b       ?removeLastElement@?$BaseRefVectorOf@VXSParticle@xercesc_2_8@@@xercesc_2_8@@UAEXXZ 1202993b f i XSObjectFactory.obj
 0001:0002893b       ?removeLastElement@?$BaseRefVectorOf@VToken@xercesc_2_8@@@xercesc_2_8@@UAEXXZ 1202993b f i TokenFactory.obj
 0001:0002893b       ?removeLastElement@?$BaseRefVectorOf@VXercesStep@xercesc_2_8@@@xercesc_2_8@@UAEXXZ 1202993b f i XTemplateSerializer.obj
 0001:0002893b       ?removeLastElement@?$BaseRefVectorOf@VXPathMatcher@xercesc_2_8@@@xercesc_2_8@@UAEXXZ 1202993b f i XPathMatcherStack.obj
 0001:0002893b       ?removeLastElement@?$BaseRefVectorOf@VXSFacet@xercesc_2_8@@@xercesc_2_8@@UAEXXZ 1202993b f i XSObjectFactory.obj
 0001:0002893b       ?removeLastElement@?$BaseRefVectorOf@VSchemaElementDecl@xercesc_2_8@@@xercesc_2_8@@UAEXXZ 1202993b f i XMLElementDecl.obj
 0001:0002893b       ?removeLastElement@?$BaseRefVectorOf@VDOMImplementationSource@xercesc_2_8@@@xercesc_2_8@@UAEXXZ 1202993b f i DOMImplementationRegistry.obj
 0001:0002893b       ?removeLastElement@?$BaseRefVectorOf@VMatch@xercesc_2_8@@@xercesc_2_8@@UAEXXZ 1202993b f i RegularExpression.obj
 0001:0002893b       ?removeLastElement@?$BaseRefVectorOf@VXMLNumber@xercesc_2_8@@@xercesc_2_8@@UAEXXZ 1202993b f i XTemplateSerializer.obj
 0001:0002893b       ?removeLastElement@?$BaseRefVectorOf@VXSAnnotation@xercesc_2_8@@@xercesc_2_8@@UAEXXZ 1202993b f i XSComplexTypeDefinition.obj
 0001:0002893b       ?removeLastElement@?$BaseRefVectorOf@VXMLEntityDecl@xercesc_2_8@@@xercesc_2_8@@UAEXXZ 1202993b f i ReaderMgr.obj
 0001:0002893b       ?removeLastElement@?$BaseRefVectorOf@VIC_Field@xercesc_2_8@@@xercesc_2_8@@UAEXXZ 1202993b f i XMLElementDecl.obj
 0001:0002893b       ?removeLastElement@?$BaseRefVectorOf@VXSObject@xercesc_2_8@@@xercesc_2_8@@UAEXXZ 1202993b f i XSModel.obj
 0001:0002893b       ?removeLastElement@?$BaseRefVectorOf@VDOMDocumentImpl@xercesc_2_8@@@xercesc_2_8@@UAEXXZ 1202993b f i AbstractDOMParser.obj
 0001:0002893b       ?removeLastElement@?$BaseRefVectorOf@VKVStringPair@xercesc_2_8@@@xercesc_2_8@@UAEXXZ 1202993b f i IGXMLScanner.obj
 0001:0002893b       ?removeLastElement@?$BaseRefVectorOf@VDatatypeValidator@xercesc_2_8@@@xercesc_2_8@@UAEXXZ 1202993b f i XTemplateSerializer.obj
 0001:0002893b       ?removeLastElement@?$BaseRefVectorOf@VIdentityConstraint@xercesc_2_8@@@xercesc_2_8@@UAEXXZ 1202993b f i XMLElementDecl.obj
 0001:0002895f       ?cleanup@?$BaseRefVectorOf@VXSParticle@xercesc_2_8@@@xercesc_2_8@@UAEXXZ 1202995f f i XSObjectFactory.obj
 0001:0002895f       ?cleanup@?$BaseRefVectorOf@VIdentityConstraint@xercesc_2_8@@@xercesc_2_8@@UAEXXZ 1202995f f i XMLElementDecl.obj
 0001:0002895f       ?cleanup@?$BaseRefVectorOf@VXSAnnotation@xercesc_2_8@@@xercesc_2_8@@UAEXXZ 1202995f f i XSComplexTypeDefinition.obj
 0001:0002895f       ?cleanup@?$BaseRefVectorOf@VContentSpecNode@xercesc_2_8@@@xercesc_2_8@@UAEXXZ 1202995f f i XTemplateSerializer.obj
 0001:0002895f       ?cleanup@?$BaseRefVectorOf@VXPathMatcher@xercesc_2_8@@@xercesc_2_8@@UAEXXZ 1202995f f i XPathMatcherStack.obj
 0001:0002895f       ?cleanup@?$BaseRefVectorOf@VXSSimpleTypeDefinition@xercesc_2_8@@@xercesc_2_8@@UAEXXZ 1202995f f i XSObjectFactory.obj
 0001:0002895f       ?cleanup@?$BaseRefVectorOf@VOp@xercesc_2_8@@@xercesc_2_8@@UAEXXZ 1202995f f i Op.obj
 0001:0002895f       ?cleanup@?$BaseRefVectorOf@VXSMultiValueFacet@xercesc_2_8@@@xercesc_2_8@@UAEXXZ 1202995f f i XSObjectFactory.obj
 0001:0002895f       ?cleanup@?$BaseRefVectorOf@VXSIDCDefinition@xercesc_2_8@@@xercesc_2_8@@UAEXXZ 1202995f f i XSObjectFactory.obj
 0001:0002895f       ?cleanup@?$BaseRefVectorOf@VXercesStep@xercesc_2_8@@@xercesc_2_8@@UAEXXZ 1202995f f i XTemplateSerializer.obj
 0001:0002895f       ?cleanup@?$BaseRefVectorOf@VPSVIAttribute@xercesc_2_8@@@xercesc_2_8@@UAEXXZ 1202995f f i PSVIAttributeList.obj
 0001:0002895f       ?cleanup@?$BaseRefVectorOf@VSchemaAttDef@xercesc_2_8@@@xercesc_2_8@@UAEXXZ 1202995f f i XSAttributeGroupDefinition.obj
 0001:0002895f       ?cleanup@?$BaseRefVectorOf@VToken@xercesc_2_8@@@xercesc_2_8@@UAEXXZ 1202995f f i TokenFactory.obj
 0001:0002895f       ?cleanup@?$BaseRefVectorOf@VXMLNumber@xercesc_2_8@@@xercesc_2_8@@UAEXXZ 1202995f f i XTemplateSerializer.obj
 0001:0002895f       ?cleanup@?$BaseRefVectorOf@VIC_Field@xercesc_2_8@@@xercesc_2_8@@UAEXXZ 1202995f f i XMLElementDecl.obj
 0001:0002895f       ?cleanup@?$BaseRefVectorOf@VXSObject@xercesc_2_8@@@xercesc_2_8@@UAEXXZ 1202995f f i XSModel.obj
 0001:0002895f       ?cleanup@?$BaseRefVectorOf@VXSFacet@xercesc_2_8@@@xercesc_2_8@@UAEXXZ 1202995f f i XSObjectFactory.obj
 0001:0002895f       ?cleanup@?$BaseRefVectorOf@VKVStringPair@xercesc_2_8@@@xercesc_2_8@@UAEXXZ 1202995f f i IGXMLScanner.obj
 0001:0002895f       ?cleanup@?$BaseRefVectorOf@VXMLEntityDecl@xercesc_2_8@@@xercesc_2_8@@UAEXXZ 1202995f f i ReaderMgr.obj
 0001:0002895f       ?cleanup@?$BaseRefVectorOf@VDOMDocumentImpl@xercesc_2_8@@@xercesc_2_8@@UAEXXZ 1202995f f i AbstractDOMParser.obj
 0001:0002895f       ?cleanup@?$BaseRefVectorOf@VSchemaElementDecl@xercesc_2_8@@@xercesc_2_8@@UAEXXZ 1202995f f i XMLElementDecl.obj
 0001:0002895f       ?cleanup@?$BaseRefVectorOf@VMatch@xercesc_2_8@@@xercesc_2_8@@UAEXXZ 1202995f f i RegularExpression.obj
 0001:0002895f       ?cleanup@?$BaseRefVectorOf@VXercesLocationPath@xercesc_2_8@@@xercesc_2_8@@UAEXXZ 1202995f f i XTemplateSerializer.obj
 0001:0002895f       ?cleanup@?$BaseRefVectorOf@VDOMImplementationSource@xercesc_2_8@@@xercesc_2_8@@UAEXXZ 1202995f f i DOMImplementationRegistry.obj
 0001:0002895f       ?cleanup@?$BaseRefVectorOf@VXMLElementDecl@xercesc_2_8@@@xercesc_2_8@@UAEXXZ 1202995f f i WFXMLScanner.obj
 0001:0002895f       ?cleanup@?$BaseRefVectorOf@VDOMNodeIteratorImpl@xercesc_2_8@@@xercesc_2_8@@UAEXXZ 1202995f f i DOMDocumentImpl.obj
 0001:0002895f       ?cleanup@?$BaseRefVectorOf@VDOMNode@xercesc_2_8@@@xercesc_2_8@@UAEXXZ 1202995f f i DOMDocumentImpl.obj
 0001:0002895f       ?cleanup@?$BaseRefVectorOf@VDOMRangeImpl@xercesc_2_8@@@xercesc_2_8@@UAEXXZ 1202995f f i DOMDocumentImpl.obj
 0001:0002895f       ?cleanup@?$BaseRefVectorOf@VENameMap@xercesc_2_8@@@xercesc_2_8@@UAEXXZ 1202995f f i TransService.obj
 0001:0002895f       ?cleanup@?$BaseRefVectorOf@VXSAttributeUse@xercesc_2_8@@@xercesc_2_8@@UAEXXZ 1202995f f i XSObjectFactory.obj
 0001:0002895f       ?cleanup@?$BaseRefVectorOf@VDatatypeValidator@xercesc_2_8@@@xercesc_2_8@@UAEXXZ 1202995f f i XTemplateSerializer.obj
 0001:00028994       ??1?$BaseRefVectorOf@VXSNamespaceItem@xercesc_2_8@@@xercesc_2_8@@UAE@XZ 12029994 f i XSModel.obj
 0001:0002899b       ?setElementAt@?$BaseRefVectorOf@VXSNamespaceItem@xercesc_2_8@@@xercesc_2_8@@UAEXQAVXSNamespaceItem@2@I@Z 1202999b f i XSModel.obj
 0001:000289fe       ?removeAllElements@?$BaseRefVectorOf@VXSNamespaceItem@xercesc_2_8@@@xercesc_2_8@@UAEXXZ 120299fe f i XSModel.obj
 0001:00028a3d       ?removeElementAt@?$BaseRefVectorOf@VXSNamespaceItem@xercesc_2_8@@@xercesc_2_8@@UAEXI@Z 12029a3d f i XSModel.obj
 0001:00028ad3       ?removeLastElement@?$BaseRefVectorOf@VXSNamespaceItem@xercesc_2_8@@@xercesc_2_8@@UAEXXZ 12029ad3 f i XSModel.obj
 0001:00028aff       ?cleanup@?$BaseRefVectorOf@VXSNamespaceItem@xercesc_2_8@@@xercesc_2_8@@UAEXXZ 12029aff f i XSModel.obj
 0001:00028b3e       ??0?$RefHashTableOfEnumerator@VXMLAttDef@xercesc_2_8@@@xercesc_2_8@@QAE@QAV?$RefHashTableOf@VXMLAttDef@xercesc_2_8@@@1@_NQAVMemoryManager@1@@Z 12029b3e f i XSModel.obj
 0001:00028ba3       ??1?$RefHashTableOfEnumerator@VXMLAttDef@xercesc_2_8@@@xercesc_2_8@@UAE@XZ 12029ba3 f i XSModel.obj
 0001:00028be3       ??0?$RefHashTableOfEnumerator@VComplexTypeInfo@xercesc_2_8@@@xercesc_2_8@@QAE@QAV?$RefHashTableOf@VComplexTypeInfo@xercesc_2_8@@@1@_NQAVMemoryManager@1@@Z 12029be3 f i XSModel.obj
 0001:00028c48       ??1?$RefHashTableOfEnumerator@VComplexTypeInfo@xercesc_2_8@@@xercesc_2_8@@UAE@XZ 12029c48 f i XSModel.obj
 0001:00028c88       ??0?$RefHashTableOfEnumerator@VXercesAttGroupInfo@xercesc_2_8@@@xercesc_2_8@@QAE@QAV?$RefHashTableOf@VXercesAttGroupInfo@xercesc_2_8@@@1@_NQAVMemoryManager@1@@Z 12029c88 f i XSModel.obj
 0001:00028ced       ??1?$RefHashTableOfEnumerator@VXercesAttGroupInfo@xercesc_2_8@@@xercesc_2_8@@UAE@XZ 12029ced f i XSModel.obj
 0001:00028d2d       ??0?$RefHashTableOfEnumerator@VXercesGroupInfo@xercesc_2_8@@@xercesc_2_8@@QAE@QAV?$RefHashTableOf@VXercesGroupInfo@xercesc_2_8@@@1@_NQAVMemoryManager@1@@Z 12029d2d f i XSModel.obj
 0001:00028d92       ??1?$RefHashTableOfEnumerator@VXercesGroupInfo@xercesc_2_8@@@xercesc_2_8@@UAE@XZ 12029d92 f i XSModel.obj
 0001:00028dd2       ??_G?$RefVectorOf@VXSNamespaceItem@xercesc_2_8@@@xercesc_2_8@@UAEPAXI@Z 12029dd2 f i XSModel.obj
 0001:00028dd2       ??_E?$RefVectorOf@VXSNamespaceItem@xercesc_2_8@@@xercesc_2_8@@UAEPAXI@Z 12029dd2 f i  CIL library: CIL module
 0001:00028e43       ??_E?$RefVectorOf@VXSObject@xercesc_2_8@@@xercesc_2_8@@UAEPAXI@Z 12029e43 f i  CIL library: CIL module
 0001:00028e43       ??_G?$RefVectorOf@VXSObject@xercesc_2_8@@@xercesc_2_8@@UAEPAXI@Z 12029e43 f i XSModel.obj
 0001:00028ead       ??_E?$RefHashTableOfEnumerator@VGrammar@xercesc_2_8@@@xercesc_2_8@@UAEPAXI@Z 12029ead f i  CIL library: CIL module
 0001:00028ead       ??_G?$RefHashTableOfEnumerator@VGrammar@xercesc_2_8@@@xercesc_2_8@@UAEPAXI@Z 12029ead f i XSModel.obj
 0001:00028ec9       ??_G?$RefHashTableOfEnumerator@VDatatypeValidator@xercesc_2_8@@@xercesc_2_8@@UAEPAXI@Z 12029ec9 f i XSModel.obj
 0001:00028ec9       ??_E?$RefHashTableOfEnumerator@VDatatypeValidator@xercesc_2_8@@@xercesc_2_8@@UAEPAXI@Z 12029ec9 f i  CIL library: CIL module
 0001:00028ee5       ??_E?$BaseRefVectorOf@VXSObject@xercesc_2_8@@@xercesc_2_8@@UAEPAXI@Z 12029ee5 f i  CIL library: CIL module
 0001:00028ee5       ??_G?$BaseRefVectorOf@VXSObject@xercesc_2_8@@@xercesc_2_8@@UAEPAXI@Z 12029ee5 f i XSModel.obj
 0001:00028f02       ??_E?$BaseRefVectorOf@VXSNamespaceItem@xercesc_2_8@@@xercesc_2_8@@UAEPAXI@Z 12029f02 f i  CIL library: CIL module
 0001:00028f02       ??_G?$BaseRefVectorOf@VXSNamespaceItem@xercesc_2_8@@@xercesc_2_8@@UAEPAXI@Z 12029f02 f i XSModel.obj
 0001:00028f1f       ??_G?$RefHashTableOfEnumerator@VXMLAttDef@xercesc_2_8@@@xercesc_2_8@@UAEPAXI@Z 12029f1f f i XSModel.obj
 0001:00028f1f       ??_E?$RefHashTableOfEnumerator@VXMLAttDef@xercesc_2_8@@@xercesc_2_8@@UAEPAXI@Z 12029f1f f i  CIL library: CIL module
 0001:00028f3b       ??_G?$RefHashTableOfEnumerator@VComplexTypeInfo@xercesc_2_8@@@xercesc_2_8@@UAEPAXI@Z 12029f3b f i XSModel.obj
 0001:00028f3b       ??_E?$RefHashTableOfEnumerator@VComplexTypeInfo@xercesc_2_8@@@xercesc_2_8@@UAEPAXI@Z 12029f3b f i  CIL library: CIL module
 0001:00028f57       ??_G?$RefHashTableOfEnumerator@VXercesAttGroupInfo@xercesc_2_8@@@xercesc_2_8@@UAEPAXI@Z 12029f57 f i XSModel.obj
 0001:00028f57       ??_E?$RefHashTableOfEnumerator@VXercesAttGroupInfo@xercesc_2_8@@@xercesc_2_8@@UAEPAXI@Z 12029f57 f i  CIL library: CIL module
 0001:00028f73       ??_G?$RefHashTableOfEnumerator@VXercesGroupInfo@xercesc_2_8@@@xercesc_2_8@@UAEPAXI@Z 12029f73 f i XSModel.obj
 0001:00028f73       ??_E?$RefHashTableOfEnumerator@VXercesGroupInfo@xercesc_2_8@@@xercesc_2_8@@UAEPAXI@Z 12029f73 f i  CIL library: CIL module
 0001:00028f8f       ?cleanup@?$RefHashTableOf@VXSNamespaceItem@xercesc_2_8@@@xercesc_2_8@@QAEXXZ 12029f8f f i XSModel.obj
 0001:00029012       ?rehash@?$RefHashTableOf@VXSNamespaceItem@xercesc_2_8@@@xercesc_2_8@@AAEXXZ 1202a012 f i XSModel.obj
 0001:000290bb       ?rehash@?$RefHashTableOf@VXSObject@xercesc_2_8@@@xercesc_2_8@@AAEXXZ 1202a0bb f i XSModel.obj
 0001:00029164       ?put@?$RefHash2KeysTableOf@VXSObject@xercesc_2_8@@@xercesc_2_8@@QAEXPAXHQAVXSObject@2@@Z 1202a164 f i XSModel.obj
 0001:0002921b       ?rehash@?$RefHash2KeysTableOf@VXSObject@xercesc_2_8@@@xercesc_2_8@@AAEXXZ 1202a21b f i XSModel.obj
 0001:000292c8       ??_EXSModelGroup@xercesc_2_8@@UAEPAXI@Z 1202a2c8 f i XSModelGroup.obj
 0001:00029311       ??0XSModelGroup@xercesc_2_8@@QAE@W4COMPOSITOR_TYPE@01@QAV?$RefVectorOf@VXSParticle@xercesc_2_8@@@1@QAVXSAnnotation@1@QAVXSModel@1@QAVMemoryManager@1@@Z 1202a311 f   XSModelGroup.obj
 0001:00029343       ??1XSModelGroup@xercesc_2_8@@UAE@XZ 1202a343 f   XSModelGroup.obj
 0001:00029377       ??_EXSModelGroupDefinition@xercesc_2_8@@UAEPAXI@Z 1202a377 f i XSModelGroupDefinition.obj
 0001:000293c0       ??0XSModelGroupDefinition@xercesc_2_8@@QAE@QAVXercesGroupInfo@1@QAVXSParticle@1@QAVXSAnnotation@1@QAVXSModel@1@QAVMemoryManager@1@@Z 1202a3c0 f   XSModelGroupDefinition.obj
 0001:000293f2       ??1XSModelGroupDefinition@xercesc_2_8@@UAE@XZ 1202a3f2 f   XSModelGroupDefinition.obj
 0001:00029426       ?getName@XSModelGroupDefinition@xercesc_2_8@@UAEPB_WXZ 1202a426 f   XSModelGroupDefinition.obj
 0001:00029426       ?getNamespace@XSAttributeGroupDefinition@xercesc_2_8@@UAEPB_WXZ 1202a426 f   XSAttributeGroupDefinition.obj
 0001:0002943b       ?getNamespace@XSModelGroupDefinition@xercesc_2_8@@UAEPB_WXZ 1202a43b f   XSModelGroupDefinition.obj
 0001:00029450       ?getNamespaceItem@XSAttributeDeclaration@xercesc_2_8@@UAEPAVXSNamespaceItem@2@XZ 1202a450 f   XSAttributeDeclaration.obj
 0001:00029450       ?getNamespaceItem@XSModelGroupDefinition@xercesc_2_8@@UAEPAVXSNamespaceItem@2@XZ 1202a450 f   XSModelGroupDefinition.obj
 0001:00029450       ?getNamespaceItem@XSNotationDeclaration@xercesc_2_8@@UAEPAVXSNamespaceItem@2@XZ 1202a450 f   XSNotationDeclaration.obj
 0001:00029450       ?getNamespaceItem@XSAttributeGroupDefinition@xercesc_2_8@@UAEPAVXSNamespaceItem@2@XZ 1202a450 f   XSAttributeGroupDefinition.obj
 0001:00029450       ?getNamespaceItem@XSComplexTypeDefinition@xercesc_2_8@@UAEPAVXSNamespaceItem@2@XZ 1202a450 f   XSComplexTypeDefinition.obj
 0001:00029450       ?getNamespaceItem@XSSimpleTypeDefinition@xercesc_2_8@@UAEPAVXSNamespaceItem@2@XZ 1202a450 f   XSSimpleTypeDefinition.obj
 0001:00029450       ?getNamespaceItem@XSElementDeclaration@xercesc_2_8@@UAEPAVXSNamespaceItem@2@XZ 1202a450 f   XSElementDeclaration.obj
 0001:00029450       ?getNamespaceItem@XSIDCDefinition@xercesc_2_8@@UAEPAVXSNamespaceItem@2@XZ 1202a450 f   XSIDCDefinition.obj
 0001:00029463       ?getModelGroup@XSModelGroupDefinition@xercesc_2_8@@QAEPAVXSModelGroup@2@XZ 1202a463 f   XSModelGroupDefinition.obj
 0001:00029472       ??_EXSMultiValueFacet@xercesc_2_8@@UAEPAXI@Z 1202a472 f i XSMultiValueFacet.obj
 0001:000294bb       ??0XSMultiValueFacet@xercesc_2_8@@QAE@W4FACET@XSSimpleTypeDefinition@1@PAV?$RefArrayVectorOf@_W@1@_NQAVXSAnnotation@1@QAVXSModel@1@QAVMemoryManager@1@@Z 1202a4bb f   XSMultiValueFacet.obj
 0001:0002954a       ??1XSMultiValueFacet@xercesc_2_8@@UAE@XZ 1202a54a f   XSMultiValueFacet.obj
 0001:0002957e       ??_FXMLSchemaDescriptionImpl@xercesc_2_8@@QAEXXZ 1202a57e f i XSNamespaceItem.obj
 0001:0002958a       ??0XSNamespaceItem@xercesc_2_8@@QAE@QAVXSModel@1@QAVSchemaGrammar@1@QAVMemoryManager@1@@Z 1202a58a f   XSNamespaceItem.obj
 0001:00029694       ??0XSNamespaceItem@xercesc_2_8@@QAE@QAVXSModel@1@QB_WQAVMemoryManager@1@@Z 1202a694 f   XSNamespaceItem.obj
 0001:0002979c       ??1XSNamespaceItem@xercesc_2_8@@QAE@XZ 1202a79c f   XSNamespaceItem.obj
 0001:00029810       ?getComponents@XSNamespaceItem@xercesc_2_8@@QAEPAV?$XSNamedMap@VXSObject@xercesc_2_8@@@2@W4COMPONENT_TYPE@XSConstants@2@@Z 1202a810 f   XSNamespaceItem.obj
 0001:0002981b       ?getElementDeclaration@XSNamespaceItem@xercesc_2_8@@QAEPAVXSElementDeclaration@2@PB_W@Z 1202a81b f   XSNamespaceItem.obj
 0001:00029837       ?getAttributeDeclaration@XSNamespaceItem@xercesc_2_8@@QAEPAVXSAttributeDeclaration@2@PB_W@Z 1202a837 f   XSNamespaceItem.obj
 0001:00029853       ?getTypeDefinition@XSNamespaceItem@xercesc_2_8@@QAEPAVXSTypeDefinition@2@PB_W@Z 1202a853 f   XSNamespaceItem.obj
 0001:0002986f       ?getAttributeGroup@XSNamespaceItem@xercesc_2_8@@QAEPAVXSAttributeGroupDefinition@2@PB_W@Z 1202a86f f   XSNamespaceItem.obj
 0001:0002988b       ?getModelGroupDefinition@XSNamespaceItem@xercesc_2_8@@QAEPAVXSModelGroupDefinition@2@PB_W@Z 1202a88b f   XSNamespaceItem.obj
 0001:000298a7       ?getNotationDeclaration@XSNamespaceItem@xercesc_2_8@@QAEPAVXSNotationDeclaration@2@PB_W@Z 1202a8a7 f   XSNamespaceItem.obj
 0001:000298c3       ?getDocumentLocations@XSNamespaceItem@xercesc_2_8@@QAEPAV?$RefArrayVectorOf@_W@2@XZ 1202a8c3 f   XSNamespaceItem.obj
 0001:000298db       ??0?$RefHashTableOf@VXSObject@xercesc_2_8@@@xercesc_2_8@@QAE@I_NQAVMemoryManager@1@@Z 1202a8db f i XSNamespaceItem.obj
 0001:0002991e       ?initialize@?$RefHashTableOf@VXSObject@xercesc_2_8@@@xercesc_2_8@@AAEXI@Z 1202a91e f i XSNamespaceItem.obj
 0001:00029944       ??_EXSNotationDeclaration@xercesc_2_8@@UAEPAXI@Z 1202a944 f i XSNotationDeclaration.obj
 0001:0002998e       ??0XSNotationDeclaration@xercesc_2_8@@QAE@QAVXMLNotationDecl@1@QAVXSAnnotation@1@QAVXSModel@1@QAVMemoryManager@1@@Z 1202a98e f   XSNotationDeclaration.obj
 0001:000299ba       ??1XSObject@xercesc_2_8@@UAE@XZ 1202a9ba f   XSObject.obj
 0001:000299ba       ??1XSAttributeUse@xercesc_2_8@@UAE@XZ 1202a9ba f   XSAttributeUse.obj
 0001:000299ba       ??1XSFacet@xercesc_2_8@@UAE@XZ 1202a9ba f   XSFacet.obj
 0001:000299ba       ??1XSTypeDefinition@xercesc_2_8@@UAE@XZ 1202a9ba f   XSTypeDefinition.obj
 0001:000299ba       ??1XSAttributeDeclaration@xercesc_2_8@@UAE@XZ 1202a9ba f   XSAttributeDeclaration.obj
 0001:000299ba       ??1XSNotationDeclaration@xercesc_2_8@@UAE@XZ 1202a9ba f   XSNotationDeclaration.obj
 0001:000299c1       ?getName@XSNotationDeclaration@xercesc_2_8@@UAEPB_WXZ 1202a9c1 f   XSNotationDeclaration.obj
 0001:000299c8       ?getName@XSAttributeGroupDefinition@xercesc_2_8@@UAEPB_WXZ 1202a9c8 f   XSAttributeGroupDefinition.obj
 0001:000299c8       ?getNamespace@XSNotationDeclaration@xercesc_2_8@@UAEPB_WXZ 1202a9c8 f   XSNotationDeclaration.obj
 0001:000299dd       ?getSystemId@XSNotationDeclaration@xercesc_2_8@@QAEPB_WXZ 1202a9dd f   XSNotationDeclaration.obj
 0001:000299e4       ?getPublicId@XSNotationDeclaration@xercesc_2_8@@QAEPB_WXZ 1202a9e4 f   XSNotationDeclaration.obj
 0001:000299eb       ??_EXSObject@xercesc_2_8@@UAEPAXI@Z 1202a9eb f i XSObject.obj
 0001:00029a35       ??0XSObject@xercesc_2_8@@QAE@W4COMPONENT_TYPE@XSConstants@1@QAVXSModel@1@QAVMemoryManager@1@@Z 1202aa35 f   XSObject.obj
 0001:00029a69       ??_EXSParticle@xercesc_2_8@@UAEPAXI@Z 1202aa69 f i XSParticle.obj
 0001:00029ab2       ??0XSParticle@xercesc_2_8@@QAE@W4TERM_TYPE@01@QAVXSModel@1@QAVXSObject@1@HHQAVMemoryManager@1@@Z 1202aab2 f   XSParticle.obj
 0001:00029aea       ??1XSParticle@xercesc_2_8@@UAE@XZ 1202aaea f   XSParticle.obj
 0001:00029b24       ?getElementTerm@XSParticle@xercesc_2_8@@QAEPAVXSElementDeclaration@2@XZ 1202ab24 f   XSParticle.obj
 0001:00029b31       ?getModelGroupTerm@XSParticle@xercesc_2_8@@QAEPAVXSModelGroup@2@XZ 1202ab31 f   XSParticle.obj
 0001:00029b3e       ?getWildcardTerm@XSParticle@xercesc_2_8@@QAEPAVXSWildcard@2@XZ 1202ab3e f   XSParticle.obj
 0001:00029b4b       ??_EXSSimpleTypeDefinition@xercesc_2_8@@UAEPAXI@Z 1202ab4b f i XSSimpleTypeDefinition.obj
 0001:00029b94       ??0XSSimpleTypeDefinition@xercesc_2_8@@QAE@QAVDatatypeValidator@1@W4VARIETY@01@QAVXSTypeDefinition@1@QAV01@QAV?$RefVectorOf@VXSSimpleTypeDefinition@xercesc_2_8@@@1@PAVXSAnnotation@1@QAVXSModel@1@QAVMemoryManager@1@@Z 1202ab94 f   XSSimpleTypeDefinition.obj
 0001:00029c70       ??1XSSimpleTypeDefinition@xercesc_2_8@@UAE@XZ 1202ac70 f   XSSimpleTypeDefinition.obj
 0001:00029cd8       ?isDefinedFacet@XSSimpleTypeDefinition@xercesc_2_8@@QAE_NW4FACET@12@@Z 1202acd8 f   XSSimpleTypeDefinition.obj
 0001:00029ce5       ?isFixedFacet@XSSimpleTypeDefinition@xercesc_2_8@@QAE_NW4FACET@12@@Z 1202ace5 f   XSSimpleTypeDefinition.obj
 0001:00029cf2       ?getLexicalFacetValue@XSSimpleTypeDefinition@xercesc_2_8@@QAEPB_WW4FACET@12@@Z 1202acf2 f   XSSimpleTypeDefinition.obj
 0001:00029d51       ?getLexicalEnumeration@XSSimpleTypeDefinition@xercesc_2_8@@QAEPAV?$RefArrayVectorOf@_W@2@XZ 1202ad51 f   XSSimpleTypeDefinition.obj
 0001:00029d59       ?getOrdered@XSSimpleTypeDefinition@xercesc_2_8@@QBE?AW4ORDERING@12@XZ 1202ad59 f   XSSimpleTypeDefinition.obj
 0001:00029d60       ?getFinite@XSSimpleTypeDefinition@xercesc_2_8@@QBE_NXZ 1202ad60 f   XSSimpleTypeDefinition.obj
 0001:00029d67       ?getBounded@XSSimpleTypeDefinition@xercesc_2_8@@QBE_NXZ 1202ad67 f   XSSimpleTypeDefinition.obj
 0001:00029d6e       ?getNumeric@XSSimpleTypeDefinition@xercesc_2_8@@QBE_NXZ 1202ad6e f   XSSimpleTypeDefinition.obj
 0001:00029d75       ?getName@XSSimpleTypeDefinition@xercesc_2_8@@UAEPB_WXZ 1202ad75 f   XSSimpleTypeDefinition.obj
 0001:00029d7c       ?getNamespace@XSSimpleTypeDefinition@xercesc_2_8@@UAEPB_WXZ 1202ad7c f   XSSimpleTypeDefinition.obj
 0001:00029d83       ?getAnonymous@XSSimpleTypeDefinition@xercesc_2_8@@UBE_NXZ 1202ad83 f   XSSimpleTypeDefinition.obj
 0001:00029d8a       ?derivedFromType@XSSimpleTypeDefinition@xercesc_2_8@@UAE_NQBVXSTypeDefinition@2@@Z 1202ad8a f   XSSimpleTypeDefinition.obj
 0001:00029dd5       ?setFacetInfo@XSSimpleTypeDefinition@xercesc_2_8@@AAEXHHQAV?$RefVectorOf@VXSFacet@xercesc_2_8@@@2@QAV?$RefVectorOf@VXSMultiValueFacet@xercesc_2_8@@@2@QAV?$RefArrayVectorOf@_W@2@@Z 1202add5 f   XSSimpleTypeDefinition.obj
 0001:00029dfa       ??_EXSTypeDefinition@xercesc_2_8@@UAEPAXI@Z 1202adfa f i XSTypeDefinition.obj
 0001:00029e44       ??0XSTypeDefinition@xercesc_2_8@@QAE@W4TYPE_CATEGORY@01@QAV01@QAVXSModel@1@QAVMemoryManager@1@@Z 1202ae44 f   XSTypeDefinition.obj
 0001:00029e75       ?isFinal@XSTypeDefinition@xercesc_2_8@@QAE_NF@Z 1202ae75 f   XSTypeDefinition.obj
 0001:00029e84       ?derivedFrom@XSTypeDefinition@xercesc_2_8@@QAE_NPB_W0@Z 1202ae84 f   XSTypeDefinition.obj
 0001:00029fe7       ?initializeXSValueStatics@XMLInitializer@xercesc_2_8@@CAXXZ 1202afe7 f   XSValue.obj
 0001:0002a048       ?getDataType@XSValue@xercesc_2_8@@SA?AW4DataType@12@QB_W@Z 1202b048 f   XSValue.obj
 0001:0002a0fb       ?initializeRegistry@XSValue@xercesc_2_8@@CAXXZ 1202b0fb f   XSValue.obj
 0001:0002a4f3       ??0XSValue@xercesc_2_8@@AAE@W4DataType@01@QAVMemoryManager@1@@Z 1202b4f3 f   XSValue.obj
 0001:0002a509       ??1XSValue@xercesc_2_8@@QAE@XZ 1202b509 f   XSValue.obj
 0001:0002a51d       ?validate@XSValue@xercesc_2_8@@SA_NQB_WW4DataType@12@AAW4Status@12@W4XMLVersion@12@QAVMemoryManager@2@@Z 1202b51d f   XSValue.obj
 0001:0002a5f4       ?getCanonicalRepresentation@XSValue@xercesc_2_8@@SAPA_WQB_WW4DataType@12@AAW4Status@12@W4XMLVersion@12@_NQAVMemoryManager@2@@Z 1202b5f4 f   XSValue.obj
 0001:0002a6b1       ?getActualValue@XSValue@xercesc_2_8@@SAPAV12@QB_WW4DataType@12@AAW4Status@12@W4XMLVersion@12@_NQAVMemoryManager@2@@Z 1202b6b1 f   XSValue.obj
 0001:0002a76e       ?validateNumerics@XSValue@xercesc_2_8@@CA_NQB_WW4DataType@12@AAW4Status@12@QAVMemoryManager@2@@Z 1202b76e f   XSValue.obj
 0001:0002a9bb       ?validateDateTimes@XSValue@xercesc_2_8@@CA_NQB_WW4DataType@12@AAW4Status@12@QAVMemoryManager@2@@Z 1202b9bb f   XSValue.obj
 0001:0002aaf7       ?validateStrings@XSValue@xercesc_2_8@@CA_NQB_WW4DataType@12@AAW4Status@12@W4XMLVersion@12@QAVMemoryManager@2@@Z 1202baf7 f   XSValue.obj
 0001:0002b0e7       ?getCanRepNumerics@XSValue@xercesc_2_8@@CAPA_WQB_WW4DataType@12@AAW4Status@12@_NQAVMemoryManager@2@@Z 1202c0e7 f   XSValue.obj
 0001:0002b1ef       ?getCanRepDateTimes@XSValue@xercesc_2_8@@CAPA_WQB_WW4DataType@12@AAW4Status@12@_NQAVMemoryManager@2@@Z 1202c1ef f   XSValue.obj
 0001:0002b326       ?getCanRepStrings@XSValue@xercesc_2_8@@CAPA_WQB_WW4DataType@12@AAW4Status@12@W4XMLVersion@12@_NQAVMemoryManager@2@@Z 1202c326 f   XSValue.obj
 0001:0002b4c9       ?getActValNumerics@XSValue@xercesc_2_8@@CAPAV12@QB_WW4DataType@12@AAW4Status@12@_NQAVMemoryManager@2@@Z 1202c4c9 f   XSValue.obj
 0001:0002b749       ?getActValDateTimes@XSValue@xercesc_2_8@@CAPAV12@QB_WW4DataType@12@AAW4Status@12@QAVMemoryManager@2@@Z 1202c749 f   XSValue.obj
 0001:0002b8f9       ?getActValStrings@XSValue@xercesc_2_8@@CAPAV12@QB_WW4DataType@12@AAW4Status@12@W4XMLVersion@12@_NQAVMemoryManager@2@@Z 1202c8f9 f   XSValue.obj
 0001:0002bb27       ?getActualNumericValue@XSValue@xercesc_2_8@@CA_NQB_WAAW4Status@12@AATt_value@12@QAVMemoryManager@2@W4DataType@12@@Z 1202cb27 f   XSValue.obj
 0001:0002bc8b       ?reinitMutex@XSValue@xercesc_2_8@@SAXXZ 1202cc8b f   XSValue.obj
 0001:0002bcad       ?reinitRegEx@XSValue@xercesc_2_8@@SAXXZ 1202ccad f   XSValue.obj
 0001:0002bccf       ?reinitRegistry@XSValue@xercesc_2_8@@SAXXZ 1202cccf f   XSValue.obj
 0001:0002bce8       ??_G?$ValueHashTableOf@G@xercesc_2_8@@QAEPAXI@Z 1202cce8 f i GeneralAttributeCheck.obj
 0001:0002bce8       ??_G?$ValueHashTableOf@_W@xercesc_2_8@@QAEPAXI@Z 1202cce8 f i SGXMLScanner.obj
 0001:0002bce8       ??_G?$ValueHashTableOf@W4DataType@XSValue@xercesc_2_8@@@xercesc_2_8@@QAEPAXI@Z 1202cce8 f i XSValue.obj
 0001:0002bce8       ??_G?$ValueHashTableOf@_N@xercesc_2_8@@QAEPAXI@Z 1202cce8 f i EncodingValidator.obj
 0001:0002bd3d       ??0?$ValueHashTableOf@W4DataType@XSValue@xercesc_2_8@@@xercesc_2_8@@QAE@IQAVMemoryManager@1@@Z 1202cd3d f i XSValue.obj
 0001:0002bd91       ?get@?$ValueHashTableOf@W4DataType@XSValue@xercesc_2_8@@@xercesc_2_8@@QAEAAW4DataType@XSValue@2@QBXQAVMemoryManager@2@@Z 1202cd91 f i XSValue.obj
 0001:0002bdde       ?put@?$ValueHashTableOf@W4DataType@XSValue@xercesc_2_8@@@xercesc_2_8@@QAEXPAXABW4DataType@XSValue@2@@Z 1202cdde f i XSValue.obj
 0001:0002be31       ?findBucketElem@?$ValueHashTableOf@G@xercesc_2_8@@AAEPAU?$ValueHashTableBucketElem@G@2@QBXAAI@Z 1202ce31 f i IGXMLScanner2.obj
 0001:0002be31       ?findBucketElem@?$ValueHashTableOf@_N@xercesc_2_8@@AAEPAU?$ValueHashTableBucketElem@_N@2@QBXAAI@Z 1202ce31 f i EncodingValidator.obj
 0001:0002be31       ?findBucketElem@?$ValueHashTableOf@_W@xercesc_2_8@@AAEPAU?$ValueHashTableBucketElem@_W@2@QBXAAI@Z 1202ce31 f i SGXMLScanner.obj
 0001:0002be31       ?findBucketElem@?$ValueHashTableOf@W4DataType@XSValue@xercesc_2_8@@@xercesc_2_8@@AAEPAU?$ValueHashTableBucketElem@W4DataType@XSValue@xercesc_2_8@@@2@QBXAAI@Z 1202ce31 f i XSValue.obj
 0001:0002be74       ??_EXSWildcard@xercesc_2_8@@UAEPAXI@Z 1202ce74 f i XSWildcard.obj
 0001:0002bebd       ??_FContentSpecNode@xercesc_2_8@@QAEXXZ 1202cebd f i XSWildcard.obj
 0001:0002bec9       ??_EContentSpecNode@xercesc_2_8@@UAEPAXI@Z 1202cec9 f i XSWildcard.obj
 0001:0002bf12       ??0ContentSpecNode@xercesc_2_8@@QAE@QAVMemoryManager@1@@Z 1202cf12 f i XSWildcard.obj
 0001:0002bf42       ??0ContentSpecNode@xercesc_2_8@@QAE@QAVQName@1@QAVMemoryManager@1@@Z 1202cf42 f i XSWildcard.obj
 0001:0002bfb6       ??0ContentSpecNode@xercesc_2_8@@QAE@QAVXMLElementDecl@1@QAVMemoryManager@1@@Z 1202cfb6 f i XSWildcard.obj
 0001:0002c02c       ??0ContentSpecNode@xercesc_2_8@@QAE@QAVQName@1@_NQAVMemoryManager@1@@Z 1202d02c f i XSWildcard.obj
 0001:0002c0ad       ??0ContentSpecNode@xercesc_2_8@@QAE@W4NodeTypes@01@QAV01@1_N2QAVMemoryManager@1@@Z 1202d0ad f i XSWildcard.obj
 0001:0002c0f1       ??1ContentSpecNode@xercesc_2_8@@UAE@XZ 1202d0f1 f i XSWildcard.obj
 0001:0002c14b       ?orphanFirst@ContentSpecNode@xercesc_2_8@@QAEPAV12@XZ 1202d14b f i XSWildcard.obj
 0001:0002c153       ?orphanSecond@ContentSpecNode@xercesc_2_8@@QAEPAV12@XZ 1202d153 f i XSWildcard.obj
 0001:0002c15b       ?getThrowEOE@ReaderMgr@xercesc_2_8@@QBE_NXZ 1202d15b f i XMLValidator.obj
 0001:0002c15b       ?getIgnoreAnnotations@XMLScanner@xercesc_2_8@@QBE_NXZ 1202d15b f i XMLValidator.obj
 0001:0002c15b       ?isFirstAdopted@ContentSpecNode@xercesc_2_8@@QBE_NXZ 1202d15b f i XSWildcard.obj
 0001:0002c15f       ?getDisableDefaultEntityResolution@XMLScanner@xercesc_2_8@@QBE_NXZ 1202d15f f i XMLValidator.obj
 0001:0002c15f       ?isSecondAdopted@ContentSpecNode@xercesc_2_8@@QBE_NXZ 1202d15f f i XSWildcard.obj
 0001:0002c163       ?setElement@ContentSpecNode@xercesc_2_8@@QAEXQAVQName@2@@Z 1202d163 f i XSWildcard.obj
 0001:0002c1bb       ?setFirst@ContentSpecNode@xercesc_2_8@@QAEXQAV12@@Z 1202d1bb f i XSWildcard.obj
 0001:0002c1dc       ?setSecond@ContentSpecNode@xercesc_2_8@@QAEXQAV12@@Z 1202d1dc f i XSWildcard.obj
 0001:0002c1fd       ?hasAllContent@ContentSpecNode@xercesc_2_8@@QAE_NXZ 1202d1fd f i XSWildcard.obj
 0001:0002c21b       ??0XSWildcard@xercesc_2_8@@QAE@QAVSchemaAttDef@1@QAVXSAnnotation@1@QAVXSModel@1@QAVMemoryManager@1@@Z 1202d21b f   XSWildcard.obj
 0001:0002c392       ??0XSWildcard@xercesc_2_8@@QAE@QBVContentSpecNode@1@QAVXSAnnotation@1@QAVXSModel@1@QAVMemoryManager@1@@Z 1202d392 f   XSWildcard.obj
 0001:0002c508       ??1XSWildcard@xercesc_2_8@@UAE@XZ 1202d508 f   XSWildcard.obj
 0001:0002c53c       ?buildNamespaceList@XSWildcard@xercesc_2_8@@AAEXQBVContentSpecNode@2@@Z 1202d53c f   XSWildcard.obj
 0001:0002c584       ??_EBinFileOutputStream@xercesc_2_8@@UAEPAXI@Z 1202d584 f i BinFileOutputStream.obj
 0001:0002c5cd       ??1BinFileOutputStream@xercesc_2_8@@UAE@XZ 1202d5cd f   BinFileOutputStream.obj
 0001:0002c606       ??0BinFileOutputStream@xercesc_2_8@@QAE@QB_WQAVMemoryManager@1@@Z 1202d606 f   BinFileOutputStream.obj
 0001:0002c63f       ??0BinFileOutputStream@xercesc_2_8@@QAE@QBDQAVMemoryManager@1@@Z 1202d63f f   BinFileOutputStream.obj
 0001:0002c666       ?getSize@BinFileOutputStream@xercesc_2_8@@QBEIXZ 1202d666 f   BinFileOutputStream.obj
 0001:0002c666       ?getSize@BinFileInputStream@xercesc_2_8@@QBEIXZ 1202d666 f   BinFileInputStream.obj
 0001:0002c674       ?reset@BinFileInputStream@xercesc_2_8@@QAEXXZ 1202d674 f   BinFileInputStream.obj
 0001:0002c674       ?reset@BinFileOutputStream@xercesc_2_8@@QAEXXZ 1202d674 f   BinFileOutputStream.obj
 0001:0002c682       ?writeBytes@BinFileOutputStream@xercesc_2_8@@UAEXQBEI@Z 1202d682 f   BinFileOutputStream.obj
 0001:0002c69b       ??_FBinMemOutputStream@xercesc_2_8@@QAEXXZ 1202d69b f i BinMemOutputStream.obj
 0001:0002c6ac       ??_EBinMemOutputStream@xercesc_2_8@@UAEPAXI@Z 1202d6ac f i BinMemOutputStream.obj
 0001:0002c6f5       ??0BinMemOutputStream@xercesc_2_8@@QAE@HQAVMemoryManager@1@@Z 1202d6f5 f   BinMemOutputStream.obj
 0001:0002c73d       ??1BinMemOutputStream@xercesc_2_8@@UAE@XZ 1202d73d f   BinMemOutputStream.obj
 0001:0002c76f       ?writeBytes@BinMemOutputStream@xercesc_2_8@@UAEXQBEI@Z 1202d76f f   BinMemOutputStream.obj
 0001:0002c79d       ?getRawBuffer@MemBufFormatTarget@xercesc_2_8@@QBEPBEXZ 1202d79d f   MemBufFormatTarget.obj
 0001:0002c79d       ?getRawBuffer@BinMemOutputStream@xercesc_2_8@@QBEPBEXZ 1202d79d f   BinMemOutputStream.obj
 0001:0002c7cc       ?reset@BinMemOutputStream@xercesc_2_8@@QAEXXZ 1202d7cc f   BinMemOutputStream.obj
 0001:0002c7e7       ?insureCapacity@BinMemOutputStream@xercesc_2_8@@AAEXI@Z 1202d7e7 f   BinMemOutputStream.obj
 0001:0002c840       ??_EBinOutputStream@xercesc_2_8@@UAEPAXI@Z 1202d840 f i BinOutputStream.obj
 0001:0002c88a       ??1BinOutputStream@xercesc_2_8@@UAE@XZ 1202d88a f   BinOutputStream.obj
 0001:0002c891       ??0BinOutputStream@xercesc_2_8@@IAE@XZ 1202d891 f   BinOutputStream.obj
 0001:0002c89a       ??1XMLBufBid@xercesc_2_8@@QAE@XZ 1202d89a f i DGXMLScanner.obj
 0001:0002c8a7       ??_EDGXMLScanner@xercesc_2_8@@UAEPAXI@Z 1202d8a7 f i DGXMLScanner.obj
 0001:0002c8f3       ?getName@DGXMLScanner@xercesc_2_8@@UBEPB_WXZ 1202d8f3 f i DGXMLScanner.obj
 0001:0002c8f9       ??0SubstitutionGroupComparator@xercesc_2_8@@QAE@QAVGrammarResolver@1@QAVXMLStringPool@1@@Z 1202d8f9 f i IGXMLScanner2.obj
 0001:0002c8f9       ??0EndOfEntityException@xercesc_2_8@@QAE@PAVXMLEntityDecl@1@I@Z 1202d8f9 f i DGXMLScanner.obj
 0001:0002c90b       ??0XMLPScanToken@xercesc_2_8@@QAE@ABV01@@Z 1202d90b f i XSAnnotation.obj
 0001:0002c90b       ??0EndOfEntityException@xercesc_2_8@@QAE@ABV01@@Z 1202d90b f i DGXMLScanner.obj
 0001:0002c90b       ??4XProtoType@xercesc_2_8@@QAEAAV01@ABV01@@Z 1202d90b f i KVStringPair.obj
 0001:0002c90b       ??4DOMNodeImpl@xercesc_2_8@@QAEAAV01@ABV01@@Z 1202d90b f i AbstractDOMParser.obj
 0001:0002c91e       ??_FDTDGrammar@xercesc_2_8@@QAEXXZ 1202d91e f i DGXMLScanner.obj
 0001:0002c92a       ?getElemEnumerator@DTDGrammar@xercesc_2_8@@QBE?AV?$NameIdPoolEnumerator@VDTDElementDecl@xercesc_2_8@@@2@XZ 1202d92a f i DGXMLScanner.obj
 0001:0002c94e       ?getEntityEnumerator@DTDGrammar@xercesc_2_8@@QBE?AV?$NameIdPoolEnumerator@VDTDEntityDecl@xercesc_2_8@@@2@XZ 1202d94e f i DGXMLScanner.obj
 0001:0002c972       ?getNotationEnumerator@DTDGrammar@xercesc_2_8@@QBE?AV?$NameIdPoolEnumerator@VXMLNotationDecl@xercesc_2_8@@@2@XZ 1202d972 f i DGXMLScanner.obj
 0001:0002c996       ?getEntityDecl@DTDGrammar@xercesc_2_8@@QBEPBVDTDEntityDecl@2@QB_W@Z 1202d996 f i DGXMLScanner.obj
 0001:0002c996       ?getEntityDecl@DTDGrammar@xercesc_2_8@@QAEPAVDTDEntityDecl@2@QB_W@Z 1202d996 f i DGXMLScanner.obj
 0001:0002c9bc       ?putEntityDecl@DTDGrammar@xercesc_2_8@@QBEIQAVDTDEntityDecl@2@@Z 1202d9bc f i DGXMLScanner.obj
 0001:0002c9cf       ?getTargetNamespace@DTDGrammar@xercesc_2_8@@UBEPB_WXZ 1202d9cf f i DGXMLScanner.obj
 0001:0002c9d5       ?getElemId@DTDGrammar@xercesc_2_8@@UBEIIQB_W0I@Z 1202d9d5 f i DGXMLScanner.obj
 0001:0002c9f0       ?getElemDecl@DTDGrammar@xercesc_2_8@@UBEPBVXMLElementDecl@2@IQB_W0I@Z 1202d9f0 f i DGXMLScanner.obj
 0001:0002c9f0       ?getElemDecl@DTDGrammar@xercesc_2_8@@UAEPAVXMLElementDecl@2@IQB_W0I@Z 1202d9f0 f i DGXMLScanner.obj
 0001:0002ca18       ?getElemDecl@DTDGrammar@xercesc_2_8@@UBEPBVXMLElementDecl@2@I@Z 1202da18 f i DGXMLScanner.obj
 0001:0002ca18       ?getElemDecl@DTDGrammar@xercesc_2_8@@UAEPAVXMLElementDecl@2@I@Z 1202da18 f i DGXMLScanner.obj
 0001:0002ca29       ?putElemDecl@DTDGrammar@xercesc_2_8@@UAEIQAVXMLElementDecl@2@_N@Z 1202da29 f i DGXMLScanner.obj
 0001:0002ca91       ?getNotationDecl@SchemaGrammar@xercesc_2_8@@UAEPAVXMLNotationDecl@2@QB_W@Z 1202da91 f i XSAttributeDeclaration.obj
 0001:0002ca91       ?getNotationDecl@DTDGrammar@xercesc_2_8@@UBEPBVXMLNotationDecl@2@QB_W@Z 1202da91 f i DGXMLScanner.obj
 0001:0002ca91       ?getNotationDecl@SchemaGrammar@xercesc_2_8@@UBEPBVXMLNotationDecl@2@QB_W@Z 1202da91 f i XSAttributeDeclaration.obj
 0001:0002ca91       ?getNotationDecl@DTDGrammar@xercesc_2_8@@UAEPAVXMLNotationDecl@2@QB_W@Z 1202da91 f i DGXMLScanner.obj
 0001:0002caa0       ?putNotationDecl@SchemaGrammar@xercesc_2_8@@UBEIQAVXMLNotationDecl@2@@Z 1202daa0 f i XSAttributeDeclaration.obj
 0001:0002caa0       ?putNotationDecl@DTDGrammar@xercesc_2_8@@UBEIQAVXMLNotationDecl@2@@Z 1202daa0 f i DGXMLScanner.obj
 0001:0002cab1       ?setValidated@DTDGrammar@xercesc_2_8@@UAEX_N@Z 1202dab1 f i DGXMLScanner.obj
 0001:0002cab1       ?setCopyBufToStream@MemBufInputSource@xercesc_2_8@@QAEX_N@Z 1202dab1 f i MemBufInputSource.obj
 0001:0002cabb       ?isReadingExternalEntity@DTDScanner@xercesc_2_8@@AAE_NXZ 1202dabb f i DGXMLScanner.obj
 0001:0002cad2       ??_FDTDValidator@xercesc_2_8@@QAEXXZ 1202dad2 f i DGXMLScanner.obj
 0001:0002cada       ??0XMLResourceIdentifier@xercesc_2_8@@QAE@W4ResourceIdentifierType@01@QB_W111PBVLocator@1@@Z 1202dada f i DGXMLScanner.obj
 0001:0002cb06       ??0DGXMLScanner@xercesc_2_8@@QAE@QAVXMLValidator@1@QAVGrammarResolver@1@QAVMemoryManager@1@@Z 1202db06 f   DGXMLScanner.obj
 0001:0002cb92       ??0DGXMLScanner@xercesc_2_8@@QAE@QAVXMLDocumentHandler@1@QAVDocTypeHandler@1@QAVXMLEntityHandler@1@QAVXMLErrorReporter@1@QAVXMLValidator@1@QAVGrammarResolver@1@QAVMemoryManager@1@@Z 1202db92 f   DGXMLScanner.obj
 0001:0002cc2a       ??1DGXMLScanner@xercesc_2_8@@UAE@XZ 1202dc2a f   DGXMLScanner.obj
 0001:0002cc5b       ?getEntityDeclPool@DGXMLScanner@xercesc_2_8@@UBEPBV?$NameIdPool@VDTDEntityDecl@xercesc_2_8@@@2@XZ 1202dc5b f   DGXMLScanner.obj
 0001:0002cc5b       ?getEntityDeclPool@DGXMLScanner@xercesc_2_8@@UAEPAV?$NameIdPool@VDTDEntityDecl@xercesc_2_8@@@2@XZ 1202dc5b f   DGXMLScanner.obj
 0001:0002cc6a       ?scanDocument@DGXMLScanner@xercesc_2_8@@UAEXABVInputSource@2@@Z 1202dc6a f   DGXMLScanner.obj
 0001:0002cdc3       ?scanNext@DGXMLScanner@xercesc_2_8@@UAE_NAAVXMLPScanToken@2@@Z 1202ddc3 f   DGXMLScanner.obj
 0001:0002d04b       ?scanContent@DGXMLScanner@xercesc_2_8@@AAE_NXZ 1202e04b f   DGXMLScanner.obj
 0001:0002d1af       ?scanEndTag@DGXMLScanner@xercesc_2_8@@AAEXAA_N@Z 1202e1af f   DGXMLScanner.obj
 0001:0002d3df       ?scanDocTypeDecl@DGXMLScanner@xercesc_2_8@@EAEXXZ 1202e3df f   DGXMLScanner.obj
 0001:0002da9c       ?scanStartTag@DGXMLScanner@xercesc_2_8@@AAE_NAA_N@Z 1202ea9c f   DGXMLScanner.obj
 0001:0002e296       ?resolveQName@WFXMLScanner@xercesc_2_8@@UAEIQB_WAAVXMLBuffer@2@FAAH@Z 1202f296 f   WFXMLScanner.obj
 0001:0002e296       ?resolveQName@DGXMLScanner@xercesc_2_8@@UAEIQB_WAAVXMLBuffer@2@FAAH@Z 1202f296 f   DGXMLScanner.obj
 0001:0002e388       ?loadGrammar@DGXMLScanner@xercesc_2_8@@UAEPAVGrammar@2@ABVInputSource@2@F_N@Z 1202f388 f   DGXMLScanner.obj
 0001:0002e4bd       ?loadDTDGrammar@DGXMLScanner@xercesc_2_8@@AAEPAVGrammar@2@ABVInputSource@2@_N@Z 1202f4bd f   DGXMLScanner.obj
 0001:0002e7e9       ?commonInit@DGXMLScanner@xercesc_2_8@@AAEXXZ 1202f7e9 f   DGXMLScanner.obj
 0001:0002e99b       ?cleanUp@DGXMLScanner@xercesc_2_8@@AAEXXZ 1202f99b f   DGXMLScanner.obj
 0001:0002e9fb       ??_G?$NameIdPool@VDTDElementDecl@xercesc_2_8@@@xercesc_2_8@@QAEPAXI@Z 1202f9fb f i DGXMLScanner.obj
 0001:0002e9fb       ??_G?$NameIdPool@VXMLNotationDecl@xercesc_2_8@@@xercesc_2_8@@QAEPAXI@Z 1202f9fb f i DTDGrammar.obj
 0001:0002e9fb       ??_G?$NameIdPool@VDTDEntityDecl@xercesc_2_8@@@xercesc_2_8@@QAEPAXI@Z 1202f9fb f i DTDGrammar.obj
 0001:0002ea22       ??_G?$RefHashTableOf@I@xercesc_2_8@@QAEPAXI@Z 1202fa22 f i DGXMLScanner.obj
 0001:0002ea51       ?buildAttList@DGXMLScanner@xercesc_2_8@@AAEIIPAVXMLElementDecl@2@AAV?$RefVectorOf@VXMLAttr@xercesc_2_8@@@2@@Z 1202fa51 f   DGXMLScanner.obj
 0001:0002ecc3       ?scanReset@DGXMLScanner@xercesc_2_8@@EAEXABVInputSource@2@@Z 1202fcc3 f   DGXMLScanner.obj
 0001:0002eeb9       ?sendCharData@DGXMLScanner@xercesc_2_8@@EAEXAAVXMLBuffer@2@@Z 1202feb9 f   DGXMLScanner.obj
 0001:0002efa4       ?updateNSMap@DGXMLScanner@xercesc_2_8@@AAEXQB_W00@Z 1202ffa4 f   DGXMLScanner.obj
 0001:0002f09a       ?scanAttrListforNameSpaces@DGXMLScanner@xercesc_2_8@@AAEXPAV?$RefVectorOf@VXMLAttr@xercesc_2_8@@@2@HPAVXMLElementDecl@2@@Z 1203009a f   DGXMLScanner.obj
 0001:0002f1fd       ?resolveSystemId@DGXMLScanner@xercesc_2_8@@EAEPAVInputSource@2@QB_W0@Z 120301fd f   DGXMLScanner.obj
 0001:0002f496       ?scanAttValue@DGXMLScanner@xercesc_2_8@@AAE_NQBVXMLAttDef@2@QB_WAAVXMLBuffer@2@@Z 12030496 f   DGXMLScanner.obj
 0001:0002f7bb       ?scanCDSection@DGXMLScanner@xercesc_2_8@@EAEXXZ 120307bb f   DGXMLScanner.obj
 0001:0002fa55       ?scanCharData@DGXMLScanner@xercesc_2_8@@EAEXAAVXMLBuffer@2@@Z 12030a55 f   DGXMLScanner.obj
 0001:0002fd31       ?scanEntityRef@DGXMLScanner@xercesc_2_8@@EAE?AW4EntityExpRes@XMLScanner@2@_NAA_W1AA_N@Z 12030d31 f   DGXMLScanner.obj
 0001:00030209       ??_G?$XMLEnumerator@VDTDElementDecl@xercesc_2_8@@@xercesc_2_8@@UAEPAXI@Z 12031209 f i DGXMLScanner.obj
 0001:00030209       ??_E?$XMLEnumerator@VDTDElementDecl@xercesc_2_8@@@xercesc_2_8@@UAEPAXI@Z 12031209 f i  CIL library: CIL module
 0001:00030226       ??_G?$XMLEnumerator@VDTDEntityDecl@xercesc_2_8@@@xercesc_2_8@@UAEPAXI@Z 12031226 f i DGXMLScanner.obj
 0001:00030226       ??_E?$XMLEnumerator@VDTDEntityDecl@xercesc_2_8@@@xercesc_2_8@@UAEPAXI@Z 12031226 f i  CIL library: CIL module
 0001:00030243       ?getByKey@?$NameIdPool@VDTDEntityDecl@xercesc_2_8@@@xercesc_2_8@@QAEPAVDTDEntityDecl@2@QB_W@Z 12031243 f i DGXMLScanner.obj
 0001:0003025f       ?put@?$NameIdPool@VDTDEntityDecl@xercesc_2_8@@@xercesc_2_8@@QAEIQAVDTDEntityDecl@2@@Z 1203125f f i DGXMLScanner.obj
 0001:0003033f       ?put@?$RefHash2KeysTableOf@VXMLAttr@xercesc_2_8@@@xercesc_2_8@@QAEXPAXHQAVXMLAttr@2@@Z 1203133f f i DGXMLScanner.obj
 0001:00030402       ??0?$NameIdPool@VXMLNotationDecl@xercesc_2_8@@@xercesc_2_8@@QAE@IIQAVMemoryManager@1@@Z 12031402 f i XTemplateSerializer.obj
 0001:00030402       ??0?$NameIdPool@VDTDEntityDecl@xercesc_2_8@@@xercesc_2_8@@QAE@IIQAVMemoryManager@1@@Z 12031402 f i XTemplateSerializer.obj
 0001:00030402       ??0?$NameIdPool@VDTDElementDecl@xercesc_2_8@@@xercesc_2_8@@QAE@IIQAVMemoryManager@1@@Z 12031402 f i DGXMLScanner.obj
 0001:00030481       ?getByKey@?$NameIdPool@VDTDElementDecl@xercesc_2_8@@@xercesc_2_8@@QAEPAVDTDElementDecl@2@QB_W@Z 12031481 f i DGXMLScanner.obj
 0001:0003049d       ?getById@?$NameIdPool@VDTDElementDecl@xercesc_2_8@@@xercesc_2_8@@QAEPAVDTDElementDecl@2@I@Z 1203149d f i DGXMLScanner.obj
 0001:000304d9       ?put@?$NameIdPool@VDTDElementDecl@xercesc_2_8@@@xercesc_2_8@@QAEIQAVDTDElementDecl@2@@Z 120314d9 f i DGXMLScanner.obj
 0001:000305c0       ??0?$RefHashTableOf@I@xercesc_2_8@@QAE@I_NPAVHashBase@1@QAVMemoryManager@1@@Z 120315c0 f i DGXMLScanner.obj
 0001:0003062d       ?put@?$RefHashTableOf@I@xercesc_2_8@@QAEXPAXQAI@Z 1203162d f i DGXMLScanner.obj
 0001:000306a6       ??1?$NameIdPoolEnumerator@VDTDElementDecl@xercesc_2_8@@@xercesc_2_8@@UAE@XZ 120316a6 f i DGXMLScanner.obj
 0001:000306ad       ?nextElement@?$NameIdPoolEnumerator@VDTDElementDecl@xercesc_2_8@@@xercesc_2_8@@UAEAAVDTDElementDecl@2@XZ 120316ad f i DGXMLScanner.obj
 0001:000306ad       ?nextElement@?$NameIdPoolEnumerator@VXMLNotationDecl@xercesc_2_8@@@xercesc_2_8@@UAEAAVXMLNotationDecl@2@XZ 120316ad f i XSAttributeDeclaration.obj
 0001:000306ad       ?nextElement@?$NameIdPoolEnumerator@VDTDEntityDecl@xercesc_2_8@@@xercesc_2_8@@UAEAAVDTDEntityDecl@2@XZ 120316ad f i DGXMLScanner.obj
 0001:000306f4       ??1?$NameIdPoolEnumerator@VDTDEntityDecl@xercesc_2_8@@@xercesc_2_8@@UAE@XZ 120316f4 f i DGXMLScanner.obj
 0001:000306fb       ?Reset@?$NameIdPoolEnumerator@VDTDElementDecl@xercesc_2_8@@@xercesc_2_8@@UAEXXZ 120316fb f i DGXMLScanner.obj
 0001:000306fb       ?Reset@?$NameIdPoolEnumerator@VDTDEntityDecl@xercesc_2_8@@@xercesc_2_8@@UAEXXZ 120316fb f i DGXMLScanner.obj
 0001:000306fb       ?Reset@?$NameIdPoolEnumerator@VXMLNotationDecl@xercesc_2_8@@@xercesc_2_8@@UAEXXZ 120316fb f i XSAttributeDeclaration.obj
 0001:0003070a       ??1?$JanitorMemFunCall@VDOMBuilderImpl@xercesc_2_8@@@xercesc_2_8@@QAE@XZ 1203170a f i DOMBuilderImpl.obj
 0001:0003070a       ??1?$JanitorMemFunCall@VXMLScanner@xercesc_2_8@@@xercesc_2_8@@QAE@XZ 1203170a f i XMLScanner.obj
 0001:0003070a       ??1?$JanitorMemFunCall@VXMLNotationDecl@xercesc_2_8@@@xercesc_2_8@@QAE@XZ 1203170a f i XMLNotationDecl.obj
 0001:0003070a       ??1?$JanitorMemFunCall@VXMLGrammarPoolImpl@xercesc_2_8@@@xercesc_2_8@@QAE@XZ 1203170a f i XMLGrammarPoolImpl.obj
 0001:0003070a       ??1?$JanitorMemFunCall@VXPathMatcher@xercesc_2_8@@@xercesc_2_8@@QAE@XZ 1203170a f i XPathMatcher.obj
 0001:0003070a       ??1?$JanitorMemFunCall@VSAX2XMLReaderImpl@xercesc_2_8@@@xercesc_2_8@@QAE@XZ 1203170a f i SAX2XMLReaderImpl.obj
 0001:0003070a       ??1?$JanitorMemFunCall@VXercesDOMParser@xercesc_2_8@@@xercesc_2_8@@QAE@XZ 1203170a f i XercesDOMParser.obj
 0001:0003070a       ??1?$JanitorMemFunCall@VSAXParser@xercesc_2_8@@@xercesc_2_8@@QAE@XZ 1203170a f i SAXParser.obj
 0001:0003070a       ??1?$JanitorMemFunCall@VWFXMLScanner@xercesc_2_8@@@xercesc_2_8@@QAE@XZ 1203170a f i WFXMLScanner.obj
 0001:0003070a       ??1?$JanitorMemFunCall@VSchemaGrammar@xercesc_2_8@@@xercesc_2_8@@QAE@XZ 1203170a f i SchemaGrammar.obj
 0001:0003070a       ??1?$JanitorMemFunCall@VXMLBigDecimal@xercesc_2_8@@@xercesc_2_8@@QAE@XZ 1203170a f i XMLBigDecimal.obj
 0001:0003070a       ??1?$JanitorMemFunCall@VReaderMgr@xercesc_2_8@@@xercesc_2_8@@QAE@XZ 1203170a f i DGXMLScanner.obj
 0001:0003070a       ??1?$JanitorMemFunCall@VXMLUri@xercesc_2_8@@@xercesc_2_8@@QAE@XZ 1203170a f i XMLUri.obj
 0001:0003070a       ??1?$JanitorMemFunCall@VXMLAttDef@xercesc_2_8@@@xercesc_2_8@@QAE@XZ 1203170a f i XMLAttDef.obj
 0001:0003070a       ??1?$JanitorMemFunCall@VDGXMLScanner@xercesc_2_8@@@xercesc_2_8@@QAE@XZ 1203170a f i DGXMLScanner.obj
 0001:0003070a       ??1?$JanitorMemFunCall@VIGXMLScanner@xercesc_2_8@@@xercesc_2_8@@QAE@XZ 1203170a f i IGXMLScanner.obj
 0001:0003070a       ??1?$JanitorMemFunCall@VAbstractDOMParser@xercesc_2_8@@@xercesc_2_8@@QAE@XZ 1203170a f i AbstractDOMParser.obj
 0001:0003070a       ??1?$JanitorMemFunCall@VIdentityConstraintHandler@xercesc_2_8@@@xercesc_2_8@@QAE@XZ 1203170a f i IdentityConstraintHandler.obj
 0001:0003070a       ??1?$JanitorMemFunCall@VUnionDatatypeValidator@xercesc_2_8@@@xercesc_2_8@@QAE@XZ 1203170a f i UnionDatatypeValidator.obj
 0001:0003070a       ??1?$JanitorMemFunCall@VXercesXPath@xercesc_2_8@@@xercesc_2_8@@QAE@XZ 1203170a f i XercesXPath.obj
 0001:0003070a       ??1?$JanitorMemFunCall@VIdentityConstraint@xercesc_2_8@@@xercesc_2_8@@QAE@XZ 1203170a f i IdentityConstraint.obj
 0001:0003070a       ??1?$JanitorMemFunCall@VQName@xercesc_2_8@@@xercesc_2_8@@QAE@XZ 1203170a f i QName.obj
 0001:0003070a       ??1?$JanitorMemFunCall@VSGXMLScanner@xercesc_2_8@@@xercesc_2_8@@QAE@XZ 1203170a f i SGXMLScanner.obj
 0001:0003070a       ??1?$JanitorMemFunCall@VXMLURL@xercesc_2_8@@@xercesc_2_8@@QAE@XZ 1203170a f i XMLURL.obj
 0001:0003070a       ??1?$JanitorMemFunCall@VXMLEntityDecl@xercesc_2_8@@@xercesc_2_8@@QAE@XZ 1203170a f i XMLEntityDecl.obj
 0001:00030722       ??1?$Janitor@VXercesGroupInfo@xercesc_2_8@@@xercesc_2_8@@QAE@XZ 12031722 f i TraverseSchema.obj
 0001:00030722       ??1?$Janitor@VXercesAttGroupInfo@xercesc_2_8@@@xercesc_2_8@@QAE@XZ 12031722 f i TraverseSchema.obj
 0001:00030722       ??1?$Janitor@VSchemaElementDecl@xercesc_2_8@@@xercesc_2_8@@QAE@XZ 12031722 f i TraverseSchema.obj
 0001:00030722       ??1?$Janitor@VDTDElementDecl@xercesc_2_8@@@xercesc_2_8@@QAE@XZ 12031722 f i DGXMLScanner.obj
 0001:00030722       ??1?$Janitor@V?$BaseRefVectorOf@_W@xercesc_2_8@@@xercesc_2_8@@QAE@XZ 12031722 f i SGXMLScanner.obj
 0001:00030722       ??1?$Janitor@VIC_Key@xercesc_2_8@@@xercesc_2_8@@QAE@XZ 12031722 f i TraverseSchema.obj
 0001:00030722       ??1?$Janitor@V?$RefVectorOf@VMatch@xercesc_2_8@@@xercesc_2_8@@@xercesc_2_8@@QAE@XZ 12031722 f i RegularExpression.obj
 0001:00030722       ??1?$Janitor@V?$RefVectorOf@VDatatypeValidator@xercesc_2_8@@@xercesc_2_8@@@xercesc_2_8@@QAE@XZ 12031722 f i TraverseSchema.obj
 0001:00030722       ??1?$Janitor@VXMLDateTime@xercesc_2_8@@@xercesc_2_8@@QAE@XZ 12031722 f i DateDatatypeValidator.obj
 0001:00030722       ??1?$Janitor@V?$RefArrayVectorOf@_W@xercesc_2_8@@@xercesc_2_8@@QAE@XZ 12031722 f i RegularExpression.obj
 0001:00030722       ??1?$Janitor@VRegxParser@xercesc_2_8@@@xercesc_2_8@@QAE@XZ 12031722 f i RegularExpression.obj
 0001:00030722       ??1?$Janitor@VXMLSchemaDescription@xercesc_2_8@@@xercesc_2_8@@QAE@XZ 12031722 f i TraverseSchema.obj
 0001:00030722       ??1?$Janitor@V?$RefVectorOf@VXercesStep@xercesc_2_8@@@xercesc_2_8@@@xercesc_2_8@@QAE@XZ 12031722 f i XercesXPath.obj
 0001:00030722       ??1?$Janitor@VXMLGrammarDescription@xercesc_2_8@@@xercesc_2_8@@QAE@XZ 12031722 f i GrammarResolver.obj
 0001:00030722       ??1?$Janitor@VIC_Unique@xercesc_2_8@@@xercesc_2_8@@QAE@XZ 12031722 f i TraverseSchema.obj
 0001:00030722       ??1?$Janitor@VIC_KeyRef@xercesc_2_8@@@xercesc_2_8@@QAE@XZ 12031722 f i TraverseSchema.obj
 0001:00030722       ??1?$Janitor@VBinInputStream@xercesc_2_8@@@xercesc_2_8@@QAE@XZ 12031722 f i ReaderMgr.obj
 0001:00030722       ??1?$Janitor@VDTDEntityDecl@xercesc_2_8@@@xercesc_2_8@@QAE@XZ 12031722 f i DGXMLScanner.obj
 0001:00030732       ??_E?$NameIdPoolEnumerator@VDTDElementDecl@xercesc_2_8@@@xercesc_2_8@@UAEPAXI@Z 12031732 f i  CIL library: CIL module
 0001:00030732       ??_G?$NameIdPoolEnumerator@VDTDElementDecl@xercesc_2_8@@@xercesc_2_8@@UAEPAXI@Z 12031732 f i DGXMLScanner.obj
 0001:0003074f       ??_G?$NameIdPoolEnumerator@VDTDEntityDecl@xercesc_2_8@@@xercesc_2_8@@UAEPAXI@Z 1203174f f i DGXMLScanner.obj
 0001:0003074f       ??_E?$NameIdPoolEnumerator@VDTDEntityDecl@xercesc_2_8@@@xercesc_2_8@@UAEPAXI@Z 1203174f f i  CIL library: CIL module
 0001:0003076c       ?findBucketElem@?$NameIdPool@VDTDEntityDecl@xercesc_2_8@@@xercesc_2_8@@AAEPAU?$NameIdPoolBucketElem@VDTDEntityDecl@xercesc_2_8@@@2@QB_WAAI@Z 1203176c f i DGXMLScanner.obj
 0001:000307b3       ?rehash@?$RefHash2KeysTableOf@VXMLAttr@xercesc_2_8@@@xercesc_2_8@@AAEXXZ 120317b3 f i DGXMLScanner.obj
 0001:00030860       ?findBucketElem@?$NameIdPool@VDTDElementDecl@xercesc_2_8@@@xercesc_2_8@@AAEPAU?$NameIdPoolBucketElem@VDTDElementDecl@xercesc_2_8@@@2@QB_WAAI@Z 12031860 f i DGXMLScanner.obj
 0001:000308ad       ?rehash@?$RefHashTableOf@I@xercesc_2_8@@AAEXXZ 120318ad f i DGXMLScanner.obj
 0001:00030956       ??0ElemStack@xercesc_2_8@@QAE@QAVMemoryManager@1@@Z 12031956 f   ElemStack.obj
 0001:00030a19       ??1ElemStack@xercesc_2_8@@QAE@XZ 12031a19 f   ElemStack.obj
 0001:00030aba       ?addLevel@ElemStack@xercesc_2_8@@QAEIXZ 12031aba f   ElemStack.obj
 0001:00030bc0       ?addLevel@ElemStack@xercesc_2_8@@QAEIQAVXMLElementDecl@2@I@Z 12031bc0 f   ElemStack.obj
 0001:00030ccf       ?popTop@ElemStack@xercesc_2_8@@QAEPBUStackElem@12@XZ 12031ccf f   ElemStack.obj
 0001:00030d0d       ?setElement@ElemStack@xercesc_2_8@@QAEXQAVXMLElementDecl@2@I@Z 12031d0d f   ElemStack.obj
 0001:00030d61       ?addChild@ElemStack@xercesc_2_8@@QAEIQAVQName@2@_N@Z 12031d61 f   ElemStack.obj
 0001:00030e67       ?topElement@ElemStack@xercesc_2_8@@QBEPBUStackElem@12@XZ 12031e67 f   ElemStack.obj
 0001:00030ea2       ?addPrefix@ElemStack@xercesc_2_8@@QAEXQB_WI@Z 12031ea2 f   ElemStack.obj
 0001:00030f34       ?mapPrefixToURI@ElemStack@xercesc_2_8@@QBEIQB_WW4MapModes@12@AA_N@Z 12031f34 f   ElemStack.obj
 0001:00030fe4       ?getNamespaceMap@ElemStack@xercesc_2_8@@QBEPAV?$ValueVectorOf@PAUPrefMapElem@xercesc_2_8@@@2@XZ 12031fe4 f   ElemStack.obj
 0001:00031048       ?reset@ElemStack@xercesc_2_8@@QAEXIIII@Z 12032048 f   ElemStack.obj
 0001:000310a6       ?expandMap@ElemStack@xercesc_2_8@@AAEXQAUStackElem@12@@Z 120320a6 f   ElemStack.obj
 0001:0003111b       ?expandStack@ElemStack@xercesc_2_8@@AAEXXZ 1203211b f   ElemStack.obj
 0001:0003118d       ??0WFElemStack@xercesc_2_8@@QAE@QAVMemoryManager@1@@Z 1203218d f   ElemStack.obj
 0001:00031207       ??1WFElemStack@xercesc_2_8@@QAE@XZ 12032207 f   ElemStack.obj
 0001:0003127a       ?addLevel@WFElemStack@xercesc_2_8@@QAEIXZ 1203227a f   ElemStack.obj
 0001:0003130e       ?addLevel@WFElemStack@xercesc_2_8@@QAEIQB_WII@Z 1203230e f   ElemStack.obj
 0001:00031405       ?popTop@WFElemStack@xercesc_2_8@@QAEPBUStackElem@12@XZ 12032405 f   ElemStack.obj
 0001:00031443       ?setElement@WFElemStack@xercesc_2_8@@QAEXQB_WII@Z 12032443 f   ElemStack.obj
 0001:000314ea       ?topElement@WFElemStack@xercesc_2_8@@QBEPBUStackElem@12@XZ 120324ea f   ElemStack.obj
 0001:00031525       ?addPrefix@WFElemStack@xercesc_2_8@@QAEXQB_WI@Z 12032525 f   ElemStack.obj
 0001:000315b3       ?mapPrefixToURI@WFElemStack@xercesc_2_8@@QBEIQB_WW4MapModes@12@AA_N@Z 120325b3 f   ElemStack.obj
 0001:00031636       ?reset@WFElemStack@xercesc_2_8@@QAEXIIII@Z 12032636 f   ElemStack.obj
 0001:00031694       ?expandMap@WFElemStack@xercesc_2_8@@AAEXXZ 12032694 f   ElemStack.obj
 0001:00031700       ?expandStack@WFElemStack@xercesc_2_8@@AAEXXZ 12032700 f   ElemStack.obj
 0001:00031772       ??_EIGXMLScanner@xercesc_2_8@@UAEPAXI@Z 12032772 f i IGXMLScanner.obj
 0001:000317be       ?getName@IGXMLScanner@xercesc_2_8@@UBEPB_WXZ 120327be f i IGXMLScanner.obj
 0001:000317c4       ?getCurrentGrammarType@IGXMLScanner@xercesc_2_8@@UBE?AW4GrammarType@Grammar@2@XZ 120327c4 f i IGXMLScanner.obj
 0001:000317c4       ?getCurrentGrammarType@SGXMLScanner@xercesc_2_8@@UBE?AW4GrammarType@Grammar@2@XZ 120327c4 f i SGXMLScanner.obj
 0001:000317cb       ??1XSDErrorReporter@xercesc_2_8@@UAE@XZ 120327cb f i IGXMLScanner.obj
 0001:000317d2       ??_FXSDErrorReporter@xercesc_2_8@@QAEXXZ 120327d2 f i IGXMLScanner.obj
 0001:000317e1       ??_EXSDErrorReporter@xercesc_2_8@@UAEPAXI@Z 120327e1 f i IGXMLScanner.obj
 0001:0003182b       ??_FSchemaValidator@xercesc_2_8@@QAEXXZ 1203282b f i IGXMLScanner.obj
 0001:00031839       ?setXsiType@SchemaValidator@xercesc_2_8@@QAEXQB_W0I@Z 12032839 f i IGXMLScanner.obj
 0001:00031890       ?setExitOnFirstFatal@SchemaValidator@xercesc_2_8@@QAEX_N@Z 12032890 f i IGXMLScanner.obj
 0001:0003189a       ?setDatatypeBuffer@SchemaValidator@xercesc_2_8@@QAEXQB_W@Z 1203289a f i IGXMLScanner.obj
 0001:000318a2       ?clearDatatypeBuffer@SchemaValidator@xercesc_2_8@@QAEXXZ 120328a2 f i IGXMLScanner.obj
 0001:000318ae       ?getCurrentTypeInfo@SchemaValidator@xercesc_2_8@@QBEPAVComplexTypeInfo@2@XZ 120328ae f i IGXMLScanner.obj
 0001:000318c5       ?getMemberTypeDefinition@PSVIElement@xercesc_2_8@@UAEPAVXSSimpleTypeDefinition@2@XZ 120328c5 f i PSVIElement.obj
 0001:000318c5       ?getFullName@DTDAttDef@xercesc_2_8@@UBEPB_WXZ 120328c5 f i XMLElementDecl.obj
 0001:000318c5       ?getVariety@XSSimpleTypeDefinition@xercesc_2_8@@QBE?AW4VARIETY@12@XZ 120328c5 f i XMLAttr.obj
 0001:000318c5       ?getBaseURI@DOMEntityReferenceImpl@xercesc_2_8@@UBEPB_WXZ 120328c5 f i DOMEntityReferenceImpl.obj
 0001:000318c5       ?getCurrentNode@AbstractDOMParser@xercesc_2_8@@IAEPAVDOMNode@2@XZ 120328c5 f i XSAnnotation.obj
 0001:000318c5       ?getPattern@DatatypeValidator@xercesc_2_8@@IBEPB_WXZ 120328c5 f i XMLAttr.obj
 0001:000318c5       ?getDefaultAttributes@DOMElementImpl@xercesc_2_8@@UBEPAVDOMAttrMapImpl@2@XZ 120328c5 f i DOMElementImpl.obj
 0001:000318c5       ?getMemberTypeDefinition@PSVIAttribute@xercesc_2_8@@UAEPAVXSSimpleTypeDefinition@2@XZ 120328c5 f i PSVIAttribute.obj
 0001:000318c5       ?getNodeIDMap@DOMDocumentImpl@xercesc_2_8@@QAEPAVDOMNodeIDMap@2@XZ 120328c5 f i AbstractDOMParser.obj
 0001:000318c5       ?getAttributeUses@XSComplexTypeDefinition@xercesc_2_8@@QAEPAV?$RefVectorOf@VXSAttributeUse@xercesc_2_8@@@2@XZ 120328c5 f i PSVIElement.obj
 0001:000318c5       ?getLocalName@DOMAttrNSImpl@xercesc_2_8@@UBEPB_WXZ 120328c5 f i DOMAttrNSImpl.obj
 0001:000318c5       ?getCurrentDatatypeValidator@SchemaValidator@xercesc_2_8@@QBEPAVDatatypeValidator@2@XZ 120328c5 f i IGXMLScanner.obj
 0001:000318c5       ?getNotationName@DOMEntityImpl@xercesc_2_8@@UBEPB_WXZ 120328c5 f i DOMEntityImpl.obj
 0001:000318c5       ?getSubstitutionGroupAffiliation@XSElementDeclaration@xercesc_2_8@@QBEPAV12@XZ 120328c5 f i PSVIElement.obj
 0001:000318c5       ?getEntities@DOMDocumentTypeImpl@xercesc_2_8@@UBEPAVDOMNamedNodeMap@2@XZ 120328c5 f i DOMDocumentTypeImpl.obj
 0001:000318c5       ?getNamespaceScope@SchemaGrammar@xercesc_2_8@@QBEPAVNamespaceScope@2@XZ 120328c5 f i XSAttributeDeclaration.obj
 0001:000318c5       ?getEnclosingScope@SchemaElementDecl@xercesc_2_8@@QBEHXZ 120328c5 f i XMLElementDecl.obj
 0001:000318c5       ?getValidity@SchemaAttDef@xercesc_2_8@@QBE?AW4Validity@PSVIDefs@2@XZ 120328c5 f i XMLElementDecl.obj
 0001:000318c5       ?getField@FieldMatcher@xercesc_2_8@@QBEPAVIC_Field@2@XZ 120328c5 f i XMLElementDecl.obj
 0001:000318c9       ?getMostRecentAttrValidator@SchemaValidator@xercesc_2_8@@QBEPAVDatatypeValidator@2@XZ 120328c9 f i IGXMLScanner.obj
 0001:000318c9       ?getDocHandler@XMLScanner@xercesc_2_8@@QBEPBVXMLDocumentHandler@2@XZ 120328c9 f i XMLValidator.obj
 0001:000318c9       ?getPSVIHandler@SAX2XMLReaderImpl@xercesc_2_8@@UBEPAVPSVIHandler@2@XZ 120328c9 f i SAX2XMLReaderImpl.obj
 0001:000318c9       ?getDocHandler@XMLScanner@xercesc_2_8@@QAEPAVXMLDocumentHandler@2@XZ 120328c9 f i XMLValidator.obj
 0001:000318c9       ?getTotalDigits@DecimalDatatypeValidator@xercesc_2_8@@QBEIXZ 120328c9 f i DatatypeValidator.obj
 0001:000318cd       ?setErrorReporter@SchemaValidator@xercesc_2_8@@QAEXQAVXMLErrorReporter@2@@Z 120328cd f i IGXMLScanner.obj
 0001:000318da       ?isOccurrenceRangeOK@SchemaValidator@xercesc_2_8@@AAE_NHHHH@Z 120328da f i IGXMLScanner.obj
 0001:00031902       ?getErrorOccurred@SchemaValidator@xercesc_2_8@@QBE_NXZ 12032902 f i IGXMLScanner.obj
 0001:00031906       ?getIsElemSpecified@SchemaValidator@xercesc_2_8@@QBE_NXZ 12032906 f i IGXMLScanner.obj
 0001:0003190a       ?getNormalizedValue@SchemaValidator@xercesc_2_8@@QBEPB_WXZ 1203290a f i IGXMLScanner.obj
 0001:00031919       ??_FValueStoreCache@xercesc_2_8@@QAEXXZ 12032919 f i IGXMLScanner.obj
 0001:00031925       ?getValueStoreFor@ValueStoreCache@xercesc_2_8@@QAEPAVValueStore@2@QBVIC_Field@2@H@Z 12032925 f i IGXMLScanner.obj
 0001:0003193e       ?getValueStoreFor@ValueStoreCache@xercesc_2_8@@QAEPAVValueStore@2@QBVIdentityConstraint@2@H@Z 1203293e f i IGXMLScanner.obj
 0001:00031953       ??_FXPathMatcherStack@xercesc_2_8@@QAEXXZ 12032953 f i IGXMLScanner.obj
 0001:0003195f       ?size@XPathMatcherStack@xercesc_2_8@@QBEIXZ 1203295f f i IGXMLScanner.obj
 0001:00031966       ?getMatcherAt@XPathMatcherStack@xercesc_2_8@@QBEPAVXPathMatcher@2@I@Z 12032966 f i IGXMLScanner.obj
 0001:000319a6       ?pushContext@XPathMatcherStack@xercesc_2_8@@QAEXXZ 120329a6 f i IGXMLScanner.obj
 0001:000319bf       ?popContext@XPathMatcherStack@xercesc_2_8@@QAEXXZ 120329bf f i IGXMLScanner.obj
 0001:000319d2       ?addMatcher@XPathMatcherStack@xercesc_2_8@@QAEXQAVXPathMatcher@2@@Z 120329d2 f i IGXMLScanner.obj
 0001:00031a19       ?getMatcherCount@IdentityConstraintHandler@xercesc_2_8@@QBEHXZ 12032a19 f i IGXMLScanner.obj
 0001:00031a1f       ??0IGXMLScanner@xercesc_2_8@@QAE@QAVXMLValidator@1@QAVGrammarResolver@1@QAVMemoryManager@1@@Z 12032a1f f   IGXMLScanner.obj
 0001:00031b26       ??0IGXMLScanner@xercesc_2_8@@QAE@QAVXMLDocumentHandler@1@QAVDocTypeHandler@1@QAVXMLEntityHandler@1@QAVXMLErrorReporter@1@QAVXMLValidator@1@QAVGrammarResolver@1@QAVMemoryManager@1@@Z 12032b26 f   IGXMLScanner.obj
 0001:00031c39       ??1IGXMLScanner@xercesc_2_8@@UAE@XZ 12032c39 f   IGXMLScanner.obj
 0001:00031c82       ?getEntityDeclPool@IGXMLScanner@xercesc_2_8@@UAEPAV?$NameIdPool@VDTDEntityDecl@xercesc_2_8@@@2@XZ 12032c82 f   IGXMLScanner.obj
 0001:00031c82       ?getEntityDeclPool@IGXMLScanner@xercesc_2_8@@UBEPBV?$NameIdPool@VDTDEntityDecl@xercesc_2_8@@@2@XZ 12032c82 f   IGXMLScanner.obj
 0001:00031c91       ?scanDocument@IGXMLScanner@xercesc_2_8@@UAEXABVInputSource@2@@Z 12032c91 f   IGXMLScanner.obj
 0001:00031dea       ?scanNext@IGXMLScanner@xercesc_2_8@@UAE_NAAVXMLPScanToken@2@@Z 12032dea f   IGXMLScanner.obj
 0001:0003207e       ?commonInit@IGXMLScanner@xercesc_2_8@@AAEXXZ 1203307e f   IGXMLScanner.obj
 0001:000323ad       ?cleanUp@IGXMLScanner@xercesc_2_8@@AAEXXZ 120333ad f   IGXMLScanner.obj
 0001:000324c1       ??_G?$RefHash2KeysTableOf@I@xercesc_2_8@@QAEPAXI@Z 120334c1 f i IGXMLScanner.obj
 0001:000324ec       ?rawAttrScan@IGXMLScanner@xercesc_2_8@@AAEIQB_WAAV?$RefVectorOf@VKVStringPair@xercesc_2_8@@@2@AA_N@Z 120334ec f   IGXMLScanner.obj
 0001:0003283a       ?scanContent@IGXMLScanner@xercesc_2_8@@AAE_NXZ 1203383a f   IGXMLScanner.obj
 0001:000329aa       ?scanEndTag@IGXMLScanner@xercesc_2_8@@AAEXAA_N@Z 120339aa f   IGXMLScanner.obj
 0001:00032efe       ?scanDocTypeDecl@IGXMLScanner@xercesc_2_8@@EAEXXZ 12033efe f   IGXMLScanner.obj
 0001:000335c5       ?scanStartTag@IGXMLScanner@xercesc_2_8@@AAE_NAA_N@Z 120345c5 f   IGXMLScanner.obj
 0001:00033e44       ?scanStartTagNS@IGXMLScanner@xercesc_2_8@@AAE_NAA_N@Z 12034e44 f   IGXMLScanner.obj
 0001:00034c03       ?resolveQName@SGXMLScanner@xercesc_2_8@@UAEIQB_WAAVXMLBuffer@2@FAAH@Z 12035c03 f   SGXMLScanner.obj
 0001:00034c03       ?resolveQName@IGXMLScanner@xercesc_2_8@@UAEIQB_WAAVXMLBuffer@2@FAAH@Z 12035c03 f   IGXMLScanner.obj
 0001:00034c30       ?resolveQNameWithColon@SGXMLScanner@xercesc_2_8@@IAEIQB_WAAVXMLBuffer@2@FH@Z 12035c30 f   SGXMLScanner.obj
 0001:00034c30       ?resolveQNameWithColon@IGXMLScanner@xercesc_2_8@@AAEIQB_WAAVXMLBuffer@2@FH@Z 12035c30 f   IGXMLScanner.obj
 0001:00034d14       ?resizeElemState@IGXMLScanner@xercesc_2_8@@AAEXXZ 12035d14 f   IGXMLScanner.obj
 0001:00034d14       ?resizeElemState@SGXMLScanner@xercesc_2_8@@IAEXXZ 12035d14 f   SGXMLScanner.obj
 0001:00034d85       ?resizeRawAttrColonList@IGXMLScanner@xercesc_2_8@@AAEXXZ 12035d85 f   IGXMLScanner.obj
 0001:00034de6       ?loadGrammar@IGXMLScanner@xercesc_2_8@@UAEPAVGrammar@2@ABVInputSource@2@F_N@Z 12035de6 f   IGXMLScanner.obj
 0001:00034f36       ?loadDTDGrammar@IGXMLScanner@xercesc_2_8@@AAEPAVGrammar@2@ABVInputSource@2@_N@Z 12035f36 f   IGXMLScanner.obj
 0001:000352d5       ?processSchemaLocation@IGXMLScanner@xercesc_2_8@@AAEXQA_W@Z 120362d5 f   IGXMLScanner.obj
 0001:0003537e       ?endElementPSVI@IGXMLScanner@xercesc_2_8@@AAEXQAVSchemaElementDecl@2@QAVDatatypeValidator@2@@Z 1203637e f   IGXMLScanner.obj
 0001:00035511       ?resetPSVIElemContext@IGXMLScanner@xercesc_2_8@@AAEXXZ 12036511 f   IGXMLScanner.obj
 0001:00035547       ?pop@?$ValueStackOf@H@xercesc_2_8@@QAEHXZ 12036547 f i IGXMLScanner.obj
 0001:00035547       ?pop@?$ValueStackOf@I@xercesc_2_8@@QAEIXZ 12036547 f i SAX2XMLReaderImpl.obj
 0001:0003559f       ??0?$RefVectorOf@VKVStringPair@xercesc_2_8@@@xercesc_2_8@@QAE@I_NQAVMemoryManager@1@@Z 1203659f f i IGXMLScanner.obj
 0001:000355e4       ?addElement@?$ValueVectorOf@I@xercesc_2_8@@QAEXABI@Z 120365e4 f i WFXMLScanner.obj
 0001:000355e4       ?addElement@?$ValueVectorOf@PBVDOMElement@xercesc_2_8@@@xercesc_2_8@@QAEXABQBVDOMElement@2@@Z 120365e4 f i IGXMLScanner2.obj
 0001:000355e4       ?addElement@?$ValueVectorOf@PAVDOMNode@xercesc_2_8@@@xercesc_2_8@@QAEXABQAVDOMNode@2@@Z 120365e4 f i AbstractDOMParser.obj
 0001:000355e4       ?addElement@?$ValueVectorOf@PA_W@xercesc_2_8@@QAEXABQA_W@Z 120365e4 f i IGXMLScanner.obj
 0001:000355e4       ?addElement@?$ValueVectorOf@PAVSchemaElementDecl@xercesc_2_8@@@xercesc_2_8@@QAEXABQAVSchemaElementDecl@2@@Z 120365e4 f i XTemplateSerializer.obj
 0001:000355e4       ?addElement@?$ValueVectorOf@PAVQName@xercesc_2_8@@@xercesc_2_8@@QAEXABQAVQName@2@@Z 120365e4 f i AllContentModel.obj
 0001:000355e4       ?addElement@?$ValueVectorOf@H@xercesc_2_8@@QAEXABH@Z 120365e4 f i XSIDCDefinition.obj
 0001:000355e4       ?addElement@?$ValueVectorOf@PAVXMLAttr@xercesc_2_8@@@xercesc_2_8@@QAEXABQAVXMLAttr@2@@Z 120365e4 f i DGXMLScanner.obj
 0001:000355e4       ?addElement@?$ValueVectorOf@PAVDOMElement@xercesc_2_8@@@xercesc_2_8@@QAEXABQAVDOMElement@2@@Z 120365e4 f i TraverseSchema.obj
 0001:000355e4       ?addElement@?$ValueVectorOf@PAVComplexTypeInfo@xercesc_2_8@@@xercesc_2_8@@QAEXABQAVComplexTypeInfo@2@@Z 120365e4 f i SchemaValidator.obj
 0001:000355e4       ?addElement@?$ValueVectorOf@PAUPrefMapElem@xercesc_2_8@@@xercesc_2_8@@QAEXABQAUPrefMapElem@2@@Z 120365e4 f i ElemStack.obj
 0001:000355e4       ?addElement@?$ValueVectorOf@PAX@xercesc_2_8@@QAEXABQAX@Z 120365e4 f i XSerializeEngine.obj
 0001:000355e4       ?addElement@?$ValueVectorOf@PAVDatatypeValidator@xercesc_2_8@@@xercesc_2_8@@QAEXABQAVDatatypeValidator@2@@Z 120365e4 f i FieldActivator.obj
 0001:000355e4       ?addElement@?$ValueVectorOf@PAVContentSpecNode@xercesc_2_8@@@xercesc_2_8@@QAEXABQAVContentSpecNode@2@@Z 120365e4 f i SchemaValidator.obj
 0001:000355e4       ?addElement@?$ValueVectorOf@PB_W@xercesc_2_8@@QAEXABQB_W@Z 120365e4 f i IGXMLScanner2.obj
 0001:000355e4       ?addElement@?$ValueVectorOf@PAVSchemaGrammar@xercesc_2_8@@@xercesc_2_8@@QAEXABQAVSchemaGrammar@2@@Z 120365e4 f i GrammarResolver.obj
 0001:000355e4       ?addElement@?$ValueVectorOf@PAVIC_Field@xercesc_2_8@@@xercesc_2_8@@QAEXABQAVIC_Field@2@@Z 120365e4 f i FieldActivator.obj
 0001:000355e4       ?addElement@?$ValueVectorOf@PAVXercesAttGroupInfo@xercesc_2_8@@@xercesc_2_8@@QAEXABQAVXercesAttGroupInfo@2@@Z 120365e4 f i TraverseSchema.obj
 0001:00035664       ??0?$RefHash2KeysTableOf@I@xercesc_2_8@@QAE@I_NPAVHashBase@1@QAVMemoryManager@1@@Z 12036664 f i IGXMLScanner.obj
 0001:000356a6       ?removeAll@?$RefHash2KeysTableOf@I@xercesc_2_8@@QAEXXZ 120366a6 f i IGXMLScanner.obj
 0001:000356f8       ?pop@?$ValueStackOf@_N@xercesc_2_8@@QAE_NXZ 120366f8 f i IGXMLScanner.obj
 0001:0003574f       ?peek@?$ValueStackOf@PAVComplexTypeInfo@xercesc_2_8@@@xercesc_2_8@@QBEABQAVComplexTypeInfo@2@XZ 1203674f f i IGXMLScanner.obj
 0001:000357ab       ??1?$BaseRefVectorOf@VKVStringPair@xercesc_2_8@@@xercesc_2_8@@UAE@XZ 120367ab f i IGXMLScanner.obj
 0001:000357b2       ?elementAt@?$BaseRefVectorOf@VXSNamespaceItem@xercesc_2_8@@@xercesc_2_8@@QAEPAVXSNamespaceItem@2@I@Z 120367b2 f i XSModel.obj
 0001:000357b2       ?elementAt@?$BaseRefVectorOf@VDOMRangeImpl@xercesc_2_8@@@xercesc_2_8@@QAEPAVDOMRangeImpl@2@I@Z 120367b2 f i DOMCDATASectionImpl.obj
 0001:000357b2       ?elementAt@?$BaseRefVectorOf@VDOMNodeIteratorImpl@xercesc_2_8@@@xercesc_2_8@@QAEPAVDOMNodeIteratorImpl@2@I@Z 120367b2 f i DOMDocumentImpl.obj
 0001:000357b2       ?elementAt@?$BaseRefVectorOf@VXercesStep@xercesc_2_8@@@xercesc_2_8@@QAEPAVXercesStep@2@I@Z 120367b2 f i XSIDCDefinition.obj
 0001:000357b2       ?elementAt@?$BaseRefVectorOf@VFieldValueMap@xercesc_2_8@@@xercesc_2_8@@QAEPAVFieldValueMap@2@I@Z 120367b2 f i ValueStore.obj
 0001:000357b2       ?elementAt@?$BaseRefVectorOf@V?$RefHashTableOf@_W@xercesc_2_8@@@xercesc_2_8@@QAEPAV?$RefHashTableOf@_W@2@I@Z 120367b2 f i DOMWriterImpl.obj
 0001:000357b2       ?elementAt@?$BaseRefVectorOf@VSchemaAttDef@xercesc_2_8@@@xercesc_2_8@@QAEPAVSchemaAttDef@2@I@Z 120367b2 f i XSAttributeGroupDefinition.obj
 0001:000357b2       ?elementAt@?$BaseRefVectorOf@VXercesLocationPath@xercesc_2_8@@@xercesc_2_8@@QAEPAVXercesLocationPath@2@I@Z 120367b2 f i XTemplateSerializer.obj
 0001:000357b2       ?elementAt@?$BaseRefVectorOf@VPSVIAttribute@xercesc_2_8@@@xercesc_2_8@@QAEPAVPSVIAttribute@2@I@Z 120367b2 f i PSVIAttributeList.obj
 0001:000357b2       ?elementAt@?$BaseRefVectorOf@VXSObject@xercesc_2_8@@@xercesc_2_8@@QAEPAVXSObject@2@I@Z 120367b2 f i XSModel.obj
 0001:000357b2       ?elementAt@?$BaseRefVectorOf@VSchemaElementDecl@xercesc_2_8@@@xercesc_2_8@@QAEPAVSchemaElementDecl@2@I@Z 120367b2 f i XMLElementDecl.obj
 0001:000357b2       ?elementAt@?$BaseRefVectorOf@VXMLAttr@xercesc_2_8@@@xercesc_2_8@@QAEPAVXMLAttr@2@I@Z 120367b2 f i DGXMLScanner.obj
 0001:000357b2       ?elementAt@?$BaseRefVectorOf@VToken@xercesc_2_8@@@xercesc_2_8@@QAEPAVToken@2@I@Z 120367b2 f i ParserForXMLSchema.obj
 0001:000357b2       ?elementAt@?$BaseRefVectorOf@V?$ValueStackOf@H@xercesc_2_8@@@xercesc_2_8@@QAEPAV?$ValueStackOf@H@2@I@Z 120367b2 f i XPathMatcher.obj
 0001:000357b2       ?elementAt@?$BaseRefVectorOf@VDOMNode@xercesc_2_8@@@xercesc_2_8@@QAEPAVDOMNode@2@I@Z 120367b2 f i DOMRangeImpl.obj
 0001:000357b2       ?elementAt@?$BaseRefVectorOf@VXMLNumber@xercesc_2_8@@@xercesc_2_8@@QAEPAVXMLNumber@2@I@Z 120367b2 f i XTemplateSerializer.obj
 0001:000357b2       ?elementAt@?$BaseRefVectorOf@VXSFacet@xercesc_2_8@@@xercesc_2_8@@QAEPAVXSFacet@2@I@Z 120367b2 f i XSSimpleTypeDefinition.obj
 0001:000357b2       ?elementAt@?$BaseRefVectorOf@VKVStringPair@xercesc_2_8@@@xercesc_2_8@@QAEPAVKVStringPair@2@I@Z 120367b2 f i IGXMLScanner.obj
 0001:000357b2       ?elementAt@?$BaseRefVectorOf@VMatch@xercesc_2_8@@@xercesc_2_8@@QAEPAVMatch@2@I@Z 120367b2 f i RegularExpression.obj
 0001:000357b2       ?elementAt@?$BaseRefVectorOf@VSchemaInfo@xercesc_2_8@@@xercesc_2_8@@QAEPAVSchemaInfo@2@I@Z 120367b2 f i IGXMLScanner2.obj
 0001:000357b2       ?elementAt@?$BaseRefVectorOf@VScope@InScopeNamespaces@DOMNormalizer@xercesc_2_8@@@xercesc_2_8@@QAEPAVScope@InScopeNamespaces@DOMNormalizer@2@I@Z 120367b2 f i DOMNormalizer.obj
 0001:000357b2       ?elementAt@?$BaseRefVectorOf@VIdentityConstraint@xercesc_2_8@@@xercesc_2_8@@QAEPAVIdentityConstraint@2@I@Z 120367b2 f i XMLElementDecl.obj
 0001:000357b2       ?elementAt@?$BaseRefVectorOf@VIC_Field@xercesc_2_8@@@xercesc_2_8@@QAEPAVIC_Field@2@I@Z 120367b2 f i XMLElementDecl.obj
 0001:000357de       ??_G?$RefVectorOf@VKVStringPair@xercesc_2_8@@@xercesc_2_8@@UAEPAXI@Z 120367de f i IGXMLScanner.obj
 0001:000357de       ??_E?$RefVectorOf@VKVStringPair@xercesc_2_8@@@xercesc_2_8@@UAEPAXI@Z 120367de f i  CIL library: CIL module
 0001:00035848       ??_E?$BaseRefVectorOf@VKVStringPair@xercesc_2_8@@@xercesc_2_8@@UAEPAXI@Z 12036848 f i  CIL library: CIL module
 0001:00035848       ??_G?$BaseRefVectorOf@VKVStringPair@xercesc_2_8@@@xercesc_2_8@@UAEPAXI@Z 12036848 f i IGXMLScanner.obj
 0001:00035865       ?addElement@?$ValueVectorOf@_N@xercesc_2_8@@QAEXAB_N@Z 12036865 f i IGXMLScanner.obj
 0001:000358e0       ?removeElementAt@?$ValueVectorOf@_N@xercesc_2_8@@QAEXI@Z 120368e0 f i IGXMLScanner.obj
 0001:0003593a       ??_FContentLeafNameTypeVector@xercesc_2_8@@QAEXXZ 1203693a f i IGXMLScanner2.obj
 0001:0003594d       ?cleanUp@ContentLeafNameTypeVector@xercesc_2_8@@AAEXXZ 1203694d f i IGXMLScanner2.obj
 0001:00035966       ?init@ContentLeafNameTypeVector@xercesc_2_8@@AAEXI@Z 12036966 f i IGXMLScanner2.obj
 0001:00035993       ??_FXMLDTDDescriptionImpl@xercesc_2_8@@QAEXXZ 12036993 f i IGXMLScanner2.obj
 0001:0003599f       ??0DOMAttr@xercesc_2_8@@IAE@XZ 1203699f f i IGXMLScanner2.obj
 0001:000359a8       ??0DOMAttr@xercesc_2_8@@IAE@ABV01@@Z 120369a8 f i IGXMLScanner2.obj
 0001:000359b3       ?getStorerLevel@XSerializeEngine@xercesc_2_8@@QBEGXZ 120369b3 f i KVStringPair.obj
 0001:000359b3       ?getElemAttrDefaultQualified@SchemaInfo@xercesc_2_8@@QBEGXZ 120369b3 f i IGXMLScanner2.obj
 0001:000359b8       ?getProcessed@SchemaInfo@xercesc_2_8@@QBE_NXZ 120369b8 f i IGXMLScanner2.obj
 0001:000359bc       ?getImportingListEnumerator@SchemaInfo@xercesc_2_8@@QBE?AV?$BaseRefVectorEnumerator@VSchemaInfo@xercesc_2_8@@@2@XZ 120369bc f i IGXMLScanner2.obj
 0001:000359d7       ?getNonXSAttList@SchemaInfo@xercesc_2_8@@QBEPAV?$ValueVectorOf@PAVDOMNode@xercesc_2_8@@@2@XZ 120369d7 f i IGXMLScanner2.obj
 0001:000359db       ?setElemAttrDefaultQualified@SchemaInfo@xercesc_2_8@@QAEXG@Z 120369db f i IGXMLScanner2.obj
 0001:000359e7       ?addImportedNS@SchemaInfo@xercesc_2_8@@QAEXH@Z 120369e7 f i IGXMLScanner2.obj
 0001:00035a55       ?addSchemaInfo@SchemaInfo@xercesc_2_8@@QAEXQAV12@W4ListType@12@@Z 12036a55 f i IGXMLScanner2.obj
 0001:00035b3c       ?getImportInfo@SchemaInfo@xercesc_2_8@@QBEPAV12@I@Z 12036b3c f i IGXMLScanner2.obj
 0001:00035b89       ?containsInfo@SchemaInfo@xercesc_2_8@@QBE_NQBV12@W4ListType@12@@Z 12036b89 f i IGXMLScanner2.obj
 0001:00035bb3       ?circularImportExist@SchemaInfo@xercesc_2_8@@QAE_NI@Z 12036bb3 f i IGXMLScanner2.obj
 0001:00035bfc       ?isFailedRedefine@SchemaInfo@xercesc_2_8@@QAE_NQBVDOMElement@2@@Z 12036bfc f i IGXMLScanner2.obj
 0001:00035c13       ?addFailedRedefine@SchemaInfo@xercesc_2_8@@QAEXQBVDOMElement@2@@Z 12036c13 f i IGXMLScanner2.obj
 0001:00035c73       ?isImportingNS@SchemaInfo@xercesc_2_8@@QAE_NH@Z 12036c73 f i IGXMLScanner2.obj
 0001:00035c8a       ?addRecursingType@SchemaInfo@xercesc_2_8@@QAEXQBVDOMElement@2@QB_W@Z 12036c8a f i IGXMLScanner2.obj
 0001:00035d57       ?clearTopLevelComponents@SchemaInfo@xercesc_2_8@@AAEXXZ 12036d57 f i IGXMLScanner2.obj
 0001:00035d83       ??_FGeneralAttributeCheck@xercesc_2_8@@QAEXXZ 12036d83 f i IGXMLScanner2.obj
 0001:00035d8f       ?getFacetId@GeneralAttributeCheck@xercesc_2_8@@QAEGQB_WQAVMemoryManager@2@@Z 12036d8f f i IGXMLScanner2.obj
 0001:00035daa       ?setIDRefList@GeneralAttributeCheck@xercesc_2_8@@QAEXQAV?$RefHashTableOf@VXMLRefInfo@xercesc_2_8@@@2@@Z 12036daa f i IGXMLScanner2.obj
 0001:00035db2       ?getPrefix@TraverseSchema@xercesc_2_8@@AAEPB_WQB_W@Z 12036db2 f i IGXMLScanner2.obj
 0001:00035e0d       ?getLocalPart@TraverseSchema@xercesc_2_8@@AAEPB_WQB_W@Z 12036e0d f i IGXMLScanner2.obj
 0001:00035e7f       ?getElementAttValue@TraverseSchema@xercesc_2_8@@AAEPB_WQBVDOMElement@2@QB_W_N@Z 12036e7f f i IGXMLScanner2.obj
 0001:00035ef8       ?checkForEmptyTargetNamespace@TraverseSchema@xercesc_2_8@@AAEXQBVDOMElement@2@@Z 12036ef8 f i IGXMLScanner2.obj
 0001:00035f2e       ?isBaseFromAnotherSchema@TraverseSchema@xercesc_2_8@@AAE_NQB_W@Z 12036f2e f i IGXMLScanner2.obj
 0001:00035f67       ?isAttrOrAttrGroup@TraverseSchema@xercesc_2_8@@AAE_NQBVDOMElement@2@@Z 12036f67 f i IGXMLScanner2.obj
 0001:00035fac       ?genAnonTypeName@TraverseSchema@xercesc_2_8@@AAEPB_WQB_W@Z 12036fac f i IGXMLScanner2.obj
 0001:0003602b       ?popCurrentTypeNameStack@TraverseSchema@xercesc_2_8@@AAEXXZ 1203702b f i IGXMLScanner2.obj
 0001:00036043       ?copyWildCardData@TraverseSchema@xercesc_2_8@@AAEXQBVSchemaAttDef@2@QAV32@@Z 12037043 f i IGXMLScanner2.obj
 0001:00036068       ?getRedefineNewTypeName@TraverseSchema@xercesc_2_8@@AAEXQB_WHAAVXMLBuffer@2@@Z 12037068 f i IGXMLScanner2.obj
 0001:00036098       ??_EXSDLocator@xercesc_2_8@@UAEPAXI@Z 12037098 f i IGXMLScanner2.obj
 0001:000360e2       ??_FXSDDOMParser@xercesc_2_8@@QAEXXZ 120370e2 f i IGXMLScanner2.obj
 0001:000360f2       ?getSawFatal@XSDDOMParser@xercesc_2_8@@QBE_NXZ 120370f2 f i IGXMLScanner2.obj
 0001:000360f6       ?buildAttList@IGXMLScanner@xercesc_2_8@@AAEIABV?$RefVectorOf@VKVStringPair@xercesc_2_8@@@2@IPAVXMLElementDecl@2@AAV?$RefVectorOf@VXMLAttr@xercesc_2_8@@@2@@Z 120370f6 f   IGXMLScanner2.obj
 0001:00037152       ?resolvePrefix@IGXMLScanner@xercesc_2_8@@AAEIQB_WAAVXMLBuffer@2@W4MapModes@ElemStack@2@@Z 12038152 f   IGXMLScanner2.obj
 0001:00037152       ?resolvePrefix@SGXMLScanner@xercesc_2_8@@AAEIQB_WAAVXMLBuffer@2@W4MapModes@ElemStack@2@@Z 12038152 f   SGXMLScanner.obj
 0001:000371c9       ?scanReset@IGXMLScanner@xercesc_2_8@@EAEXABVInputSource@2@@Z 120381c9 f   IGXMLScanner2.obj
 0001:000375a0       ?sendCharData@IGXMLScanner@xercesc_2_8@@EAEXAAVXMLBuffer@2@@Z 120385a0 f   IGXMLScanner2.obj
 0001:0003782c       ?updateNSMap@IGXMLScanner@xercesc_2_8@@AAEXQB_W0@Z 1203882c f   IGXMLScanner2.obj
 0001:00037850       ?updateNSMap@IGXMLScanner@xercesc_2_8@@AAEXQB_W0H@Z 12038850 f   IGXMLScanner2.obj
 0001:000379dd       ?scanRawAttrListforNameSpaces@IGXMLScanner@xercesc_2_8@@AAEXH@Z 120389dd f   IGXMLScanner2.obj
 0001:00037cb4       ?parseSchemaLocation@IGXMLScanner@xercesc_2_8@@AAEXQB_W@Z 12038cb4 f   IGXMLScanner2.obj
 0001:00037d9b       ?resolveSchemaGrammar@IGXMLScanner@xercesc_2_8@@AAEXQB_W0@Z 12038d9b f   IGXMLScanner2.obj
 0001:000383ed       ?resolveSystemId@IGXMLScanner@xercesc_2_8@@EAEPAVInputSource@2@QB_W0@Z 120393ed f   IGXMLScanner2.obj
 0001:00038686       ?loadXMLSchemaGrammar@IGXMLScanner@xercesc_2_8@@AAEPAVGrammar@2@ABVInputSource@2@_N@Z 12039686 f   IGXMLScanner2.obj
 0001:00038905       ?basicAttrValueScan@IGXMLScanner@xercesc_2_8@@AAE_NQB_WAAVXMLBuffer@2@@Z 12039905 f   IGXMLScanner2.obj
 0001:00038ad0       ?scanAttValue@IGXMLScanner@xercesc_2_8@@AAE_NQBVXMLAttDef@2@QB_WAAVXMLBuffer@2@@Z 12039ad0 f   IGXMLScanner2.obj
 0001:00038df5       ?scanCDSection@IGXMLScanner@xercesc_2_8@@EAEXXZ 12039df5 f   IGXMLScanner2.obj
 0001:000391aa       ?scanCharData@IGXMLScanner@xercesc_2_8@@EAEXAAVXMLBuffer@2@@Z 1203a1aa f   IGXMLScanner2.obj
 0001:000394b1       ?scanEntityRef@IGXMLScanner@xercesc_2_8@@EAE?AW4EntityExpRes@XMLScanner@2@_NAA_W1AA_N@Z 1203a4b1 f   IGXMLScanner2.obj
 0001:00039989       ?switchGrammar@IGXMLScanner@xercesc_2_8@@AAE_NQB_W@Z 1203a989 f   IGXMLScanner2.obj
 0001:00039a70       ??1?$XMLEnumerator@VSchemaInfo@xercesc_2_8@@@xercesc_2_8@@UAE@XZ 1203aa70 f i IGXMLScanner2.obj
 0001:00039a77       ??_G?$XMLEnumerator@VSchemaInfo@xercesc_2_8@@@xercesc_2_8@@UAEPAXI@Z 1203aa77 f i IGXMLScanner2.obj
 0001:00039a77       ??_E?$XMLEnumerator@VSchemaInfo@xercesc_2_8@@@xercesc_2_8@@UAEPAXI@Z 1203aa77 f i  CIL library: CIL module
 0001:00039a94       ?put@?$RefHash2KeysTableOf@I@xercesc_2_8@@QAEXPAXHQAI@Z 1203aa94 f i IGXMLScanner2.obj
 0001:00039b43       ??1?$BaseRefVectorEnumerator@VSchemaInfo@xercesc_2_8@@@xercesc_2_8@@UAE@XZ 1203ab43 f i IGXMLScanner2.obj
 0001:00039b7d       ?hasMoreElements@?$BaseRefVectorEnumerator@VSchemaInfo@xercesc_2_8@@@xercesc_2_8@@UBE_NXZ 1203ab7d f i IGXMLScanner2.obj
 0001:00039b8a       ?nextElement@?$BaseRefVectorEnumerator@VSchemaInfo@xercesc_2_8@@@xercesc_2_8@@UAEAAVSchemaInfo@2@XZ 1203ab8a f i IGXMLScanner2.obj
 0001:00039ba7       ?Reset@?$ValueVectorEnumerator@H@xercesc_2_8@@UAEXXZ 1203aba7 f i DOMDocumentImpl.obj
 0001:00039ba7       ?Reset@?$BaseRefVectorEnumerator@VSchemaInfo@xercesc_2_8@@@xercesc_2_8@@UAEXXZ 1203aba7 f i IGXMLScanner2.obj
 0001:00039bac       ??0?$RefVectorOf@VSchemaInfo@xercesc_2_8@@@xercesc_2_8@@QAE@I_NQAVMemoryManager@1@@Z 1203abac f i IGXMLScanner2.obj
 0001:00039bed       ?containsElement@?$ValueVectorOf@H@xercesc_2_8@@QAE_NABHI@Z 1203abed f i IGXMLScanner2.obj
 0001:00039bed       ?containsElement@?$ValueVectorOf@PBVDOMElement@xercesc_2_8@@@xercesc_2_8@@QAE_NABQBVDOMElement@2@I@Z 1203abed f i IGXMLScanner2.obj
 0001:00039bed       ?containsElement@?$ValueVectorOf@PAVSchemaElementDecl@xercesc_2_8@@@xercesc_2_8@@QAE_NABQAVSchemaElementDecl@2@I@Z 1203abed f i TraverseSchema.obj
 0001:00039c10       ??1?$BaseRefVectorOf@VSchemaInfo@xercesc_2_8@@@xercesc_2_8@@UAE@XZ 1203ac10 f i IGXMLScanner2.obj
 0001:00039c17       ?setElementAt@?$BaseRefVectorOf@VSchemaInfo@xercesc_2_8@@@xercesc_2_8@@UAEXQAVSchemaInfo@2@I@Z 1203ac17 f i IGXMLScanner2.obj
 0001:00039c7a       ?removeAllElements@?$BaseRefVectorOf@VSchemaInfo@xercesc_2_8@@@xercesc_2_8@@UAEXXZ 1203ac7a f i IGXMLScanner2.obj
 0001:00039cb9       ?removeElementAt@?$BaseRefVectorOf@VSchemaInfo@xercesc_2_8@@@xercesc_2_8@@UAEXI@Z 1203acb9 f i IGXMLScanner2.obj
 0001:00039d4f       ?removeLastElement@?$BaseRefVectorOf@VSchemaInfo@xercesc_2_8@@@xercesc_2_8@@UAEXXZ 1203ad4f f i IGXMLScanner2.obj
 0001:00039d7b       ?cleanup@?$BaseRefVectorOf@VSchemaInfo@xercesc_2_8@@@xercesc_2_8@@UAEXXZ 1203ad7b f i IGXMLScanner2.obj
 0001:00039dba       ?get@?$ValueHashTableOf@G@xercesc_2_8@@QAEAAGQBXQAVMemoryManager@2@@Z 1203adba f i IGXMLScanner2.obj
 0001:00039df9       ?reset@?$ArrayJanitor@_W@xercesc_2_8@@QAEXPA_WQAVMemoryManager@2@@Z 1203adf9 f i IGXMLScanner2.obj
 0001:00039e24       ??_G?$BaseRefVectorEnumerator@VSchemaInfo@xercesc_2_8@@@xercesc_2_8@@UAEPAXI@Z 1203ae24 f i IGXMLScanner2.obj
 0001:00039e24       ??_E?$BaseRefVectorEnumerator@VSchemaInfo@xercesc_2_8@@@xercesc_2_8@@UAEPAXI@Z 1203ae24 f i  CIL library: CIL module
 0001:00039e40       ??_E?$RefVectorOf@VSchemaInfo@xercesc_2_8@@@xercesc_2_8@@UAEPAXI@Z 1203ae40 f i  CIL library: CIL module
 0001:00039e40       ??_G?$RefVectorOf@VSchemaInfo@xercesc_2_8@@@xercesc_2_8@@UAEPAXI@Z 1203ae40 f i IGXMLScanner2.obj
 0001:00039eb1       ??_E?$BaseRefVectorOf@VSchemaInfo@xercesc_2_8@@@xercesc_2_8@@UAEPAXI@Z 1203aeb1 f i  CIL library: CIL module
 0001:00039eb1       ??_G?$BaseRefVectorOf@VSchemaInfo@xercesc_2_8@@@xercesc_2_8@@UAEPAXI@Z 1203aeb1 f i IGXMLScanner2.obj
 0001:00039ece       ?rehash@?$RefHash2KeysTableOf@I@xercesc_2_8@@AAEXXZ 1203aece f i IGXMLScanner2.obj
 0001:00039f7b       ?cleanup@?$RefHashTableOf@VXercesAttGroupInfo@xercesc_2_8@@@xercesc_2_8@@QAEXXZ 1203af7b f i XSModel.obj
 0001:00039f7b       ?cleanup@?$RefHashTableOf@VComplexTypeInfo@xercesc_2_8@@@xercesc_2_8@@QAEXXZ 1203af7b f i XSModel.obj
 0001:00039f7b       ?cleanup@?$RefHashTableOf@VXercesGroupInfo@xercesc_2_8@@@xercesc_2_8@@QAEXXZ 1203af7b f i XSModel.obj
 0001:00039f7b       ?cleanup@?$RefHashTableOf@VRangeFactory@xercesc_2_8@@@xercesc_2_8@@QAEXXZ 1203af7b f i RangeTokenMap.obj
 0001:00039f7b       ?cleanup@?$RefHashTableOf@VENameMap@xercesc_2_8@@@xercesc_2_8@@QAEXXZ 1203af7b f i TransService.obj
 0001:00039f7b       ?cleanup@?$RefHashTableOf@VDTDAttDef@xercesc_2_8@@@xercesc_2_8@@QAEXXZ 1203af7b f i XTemplateSerializer.obj
 0001:00039f7b       ?cleanup@?$RefHashTableOf@VKVStringPair@xercesc_2_8@@@xercesc_2_8@@QAEXXZ 1203af7b f i XSObjectFactory.obj
 0001:00039f7b       ?cleanup@?$RefHashTableOf@VXSObject@xercesc_2_8@@@xercesc_2_8@@QAEXXZ 1203af7b f i XSNamespaceItem.obj
 0001:00039f7b       ?cleanup@?$RefHashTableOf@VXMLAttDef@xercesc_2_8@@@xercesc_2_8@@QAEXXZ 1203af7b f i XSModel.obj
 0001:00039f7b       ?cleanup@?$RefHashTableOf@VDOMElement@xercesc_2_8@@@xercesc_2_8@@QAEXXZ 1203af7b f i IGXMLScanner2.obj
 0001:00039fec       ??0?$ValueVectorOf@_N@xercesc_2_8@@QAE@IQAVMemoryManager@1@_N@Z 1203afec f i IGXMLScanner2.obj
 0001:0003a017       ?allocate@MemoryManagerArrayImpl@xercesc_2_8@@UAEPAXI@Z 1203b017 f   MemoryManagerArrayImpl.obj
 0001:0003a058       ?deallocate@MemoryManagerImpl@xercesc_2_8@@UAEXPAX@Z 1203b058 f   MemoryManagerImpl.obj
 0001:0003a058       ?deallocate@MemoryManagerArrayImpl@xercesc_2_8@@UAEXPAX@Z 1203b058 f   MemoryManagerArrayImpl.obj
 0001:0003a065       ?allocate@MemoryManagerImpl@xercesc_2_8@@UAEPAXI@Z 1203b065 f   MemoryManagerImpl.obj
 0001:0003a0a6       ??_EReaderMgr@xercesc_2_8@@UAEPAXI@Z 1203b0a6 f i ReaderMgr.obj
 0001:0003a0ef       ??0ReaderMgr@xercesc_2_8@@QAE@QAVMemoryManager@1@@Z 1203b0ef f   ReaderMgr.obj
 0001:0003a122       ??1ReaderMgr@xercesc_2_8@@UAE@XZ 1203b122 f   ReaderMgr.obj
 0001:0003a186       ?isEmpty@ReaderMgr@xercesc_2_8@@QBE_NXZ 1203b186 f   ReaderMgr.obj
 0001:0003a194       ?getNextChar@ReaderMgr@xercesc_2_8@@QAE_WXZ 1203b194 f   ReaderMgr.obj
 0001:0003a1ce       ?getSpaces@ReaderMgr@xercesc_2_8@@QAEXAAVXMLBuffer@2@@Z 1203b1ce f   ReaderMgr.obj
 0001:0003a1ff       ?getUpToCharOrWS@ReaderMgr@xercesc_2_8@@QAEXAAVXMLBuffer@2@_W@Z 1203b1ff f   ReaderMgr.obj
 0001:0003a234       ?peekNextChar@ReaderMgr@xercesc_2_8@@QAE_WXZ 1203b234 f   ReaderMgr.obj
 0001:0003a26e       ?skippedChar@ReaderMgr@xercesc_2_8@@QAE_N_W@Z 1203b26e f   ReaderMgr.obj
 0001:0003a2a6       ?skippedSpace@ReaderMgr@xercesc_2_8@@QAE_NXZ 1203b2a6 f   ReaderMgr.obj
 0001:0003a2d6       ?skipIfQuote@ReaderMgr@xercesc_2_8@@QAE_NAA_W@Z 1203b2d6 f   ReaderMgr.obj
 0001:0003a30e       ?skipPastSpaces@ReaderMgr@xercesc_2_8@@QAE_N_N@Z 1203b30e f   ReaderMgr.obj
 0001:0003a357       ?skipQuotedString@ReaderMgr@xercesc_2_8@@QAEX_W@Z 1203b357 f   ReaderMgr.obj
 0001:0003a376       ?skipUntilIn@ReaderMgr@xercesc_2_8@@QAE_WQB_W@Z 1203b376 f   ReaderMgr.obj
 0001:0003a3ab       ?skipUntilInOrWS@ReaderMgr@xercesc_2_8@@QAE_WQB_W@Z 1203b3ab f   ReaderMgr.obj
 0001:0003a3f2       ?atEOF@ReaderMgr@xercesc_2_8@@QBE_NXZ 1203b3f2 f   ReaderMgr.obj
 0001:0003a409       ?cleanStackBackTo@ReaderMgr@xercesc_2_8@@QAEXI@Z 1203b409 f   ReaderMgr.obj
 0001:0003a48c       ?createReader@ReaderMgr@xercesc_2_8@@QAEPAVXMLReader@2@ABVInputSource@2@_NW4RefFrom@32@W4Types@32@W4Sources@32@1@Z 1203b48c f   ReaderMgr.obj
 0001:0003a595       ?createReader@ReaderMgr@xercesc_2_8@@QAEPAVXMLReader@2@QB_W0_NW4RefFrom@32@W4Types@32@W4Sources@32@AAPAVInputSource@2@11@Z 1203b595 f   ReaderMgr.obj
 0001:0003a854       ?createReader@ReaderMgr@xercesc_2_8@@QAEPAVXMLReader@2@QB_W00_NW4RefFrom@32@W4Types@32@W4Sources@32@AAPAVInputSource@2@11@Z 1203b854 f   ReaderMgr.obj
 0001:0003ab18       ?createIntEntReader@ReaderMgr@xercesc_2_8@@QAEPAVXMLReader@2@QB_WW4RefFrom@32@W4Types@32@0I_N3@Z 1203bb18 f   ReaderMgr.obj
 0001:0003abd9       ?getCurrentEncodingStr@ReaderMgr@xercesc_2_8@@QBEPB_WXZ 1203bbd9 f   ReaderMgr.obj
 0001:0003abeb       ?getReaderDepth@ReaderMgr@xercesc_2_8@@QBEIXZ 1203bbeb f   ReaderMgr.obj
 0001:0003abfe       ?getLastExtEntityInfo@ReaderMgr@xercesc_2_8@@QBEXAAULastExtEntityInfo@12@@Z 1203bbfe f   ReaderMgr.obj
 0001:0003ac56       ?isScanningPERefOutOfLiteral@ReaderMgr@xercesc_2_8@@QBE_NXZ 1203bc56 f   ReaderMgr.obj
 0001:0003ac77       ?pushReader@ReaderMgr@xercesc_2_8@@QAE_NQAVXMLReader@2@QAVXMLEntityDecl@2@@Z 1203bc77 f   ReaderMgr.obj
 0001:0003adab       ?reset@ReaderMgr@xercesc_2_8@@QAEXXZ 1203bdab f   ReaderMgr.obj
 0001:0003adeb       ?getPublicId@ReaderMgr@xercesc_2_8@@UBEPB_WXZ 1203bdeb f   ReaderMgr.obj
 0001:0003ae10       ?getSystemId@ReaderMgr@xercesc_2_8@@UBEPB_WXZ 1203be10 f   ReaderMgr.obj
 0001:0003ae35       ?getColumnNumber@ReaderMgr@xercesc_2_8@@UBEJXZ 1203be35 f   ReaderMgr.obj
 0001:0003ae57       ?getLineNumber@ReaderMgr@xercesc_2_8@@UBEJXZ 1203be57 f   ReaderMgr.obj
 0001:0003ae79       ?getLastExtEntity@ReaderMgr@xercesc_2_8@@ABEPBVXMLReader@2@AAPBVXMLEntityDecl@2@@Z 1203be79 f   ReaderMgr.obj
 0001:0003aee8       ?popReader@ReaderMgr@xercesc_2_8@@AAE_NXZ 1203bee8 f   ReaderMgr.obj
 0001:0003afd1       ??0?$RefStackOf@VXMLEntityDecl@xercesc_2_8@@@xercesc_2_8@@QAE@I_NQAVMemoryManager@1@@Z 1203bfd1 f i ReaderMgr.obj
 0001:0003b011       ??0?$RefStackOf@VXMLReader@xercesc_2_8@@@xercesc_2_8@@QAE@I_NQAVMemoryManager@1@@Z 1203c011 f i ReaderMgr.obj
 0001:0003b051       ?elementAt@?$RefStackOf@VXMLReader@xercesc_2_8@@@xercesc_2_8@@QBEPBVXMLReader@2@I@Z 1203c051 f i ReaderMgr.obj
 0001:0003b051       ?elementAt@?$RefStackOf@VXMLEntityDecl@xercesc_2_8@@@xercesc_2_8@@QBEPBVXMLEntityDecl@2@I@Z 1203c051 f i ReaderMgr.obj
 0001:0003b09b       ?pop@?$RefStackOf@VXMLReader@xercesc_2_8@@@xercesc_2_8@@QAEPAVXMLReader@2@XZ 1203c09b f i ReaderMgr.obj
 0001:0003b09b       ?pop@?$RefStackOf@VXMLEntityDecl@xercesc_2_8@@@xercesc_2_8@@QAEPAVXMLEntityDecl@2@XZ 1203c09b f i ReaderMgr.obj
 0001:0003b0d2       ??1?$RefVectorOf@VXMLReader@xercesc_2_8@@@xercesc_2_8@@UAE@XZ 1203c0d2 f i ReaderMgr.obj
 0001:0003b12e       ??1?$BaseRefVectorOf@VXMLReader@xercesc_2_8@@@xercesc_2_8@@UAE@XZ 1203c12e f i ReaderMgr.obj
 0001:0003b135       ?setElementAt@?$BaseRefVectorOf@VXMLReader@xercesc_2_8@@@xercesc_2_8@@UAEXQAVXMLReader@2@I@Z 1203c135 f i ReaderMgr.obj
 0001:0003b198       ?removeAllElements@?$BaseRefVectorOf@VXMLReader@xercesc_2_8@@@xercesc_2_8@@UAEXXZ 1203c198 f i ReaderMgr.obj
 0001:0003b1d7       ?removeElementAt@?$BaseRefVectorOf@VXMLReader@xercesc_2_8@@@xercesc_2_8@@UAEXI@Z 1203c1d7 f i ReaderMgr.obj
 0001:0003b26d       ?removeLastElement@?$BaseRefVectorOf@VXMLReader@xercesc_2_8@@@xercesc_2_8@@UAEXXZ 1203c26d f i ReaderMgr.obj
 0001:0003b299       ?cleanup@?$BaseRefVectorOf@VXMLReader@xercesc_2_8@@@xercesc_2_8@@UAEXXZ 1203c299 f i ReaderMgr.obj
 0001:0003b2d8       ??1?$RefVectorOf@VXMLEntityDecl@xercesc_2_8@@@xercesc_2_8@@UAE@XZ 1203c2d8 f i ReaderMgr.obj
 0001:0003b32d       ??1?$BaseRefVectorOf@VXMLEntityDecl@xercesc_2_8@@@xercesc_2_8@@UAE@XZ 1203c32d f i ReaderMgr.obj
 0001:0003b334       ??_G?$RefVectorOf@VXMLReader@xercesc_2_8@@@xercesc_2_8@@UAEPAXI@Z 1203c334 f i ReaderMgr.obj
 0001:0003b334       ??_E?$RefVectorOf@VXMLReader@xercesc_2_8@@@xercesc_2_8@@UAEPAXI@Z 1203c334 f i  CIL library: CIL module
 0001:0003b351       ??_G?$BaseRefVectorOf@VXMLReader@xercesc_2_8@@@xercesc_2_8@@UAEPAXI@Z 1203c351 f i ReaderMgr.obj
 0001:0003b351       ??_E?$BaseRefVectorOf@VXMLReader@xercesc_2_8@@@xercesc_2_8@@UAEPAXI@Z 1203c351 f i  CIL library: CIL module
 0001:0003b36e       ??_E?$RefVectorOf@VXMLEntityDecl@xercesc_2_8@@@xercesc_2_8@@UAEPAXI@Z 1203c36e f i  CIL library: CIL module
 0001:0003b36e       ??_G?$RefVectorOf@VXMLEntityDecl@xercesc_2_8@@@xercesc_2_8@@UAEPAXI@Z 1203c36e f i ReaderMgr.obj
 0001:0003b38b       ??_G?$BaseRefVectorOf@VXMLEntityDecl@xercesc_2_8@@@xercesc_2_8@@UAEPAXI@Z 1203c38b f i ReaderMgr.obj
 0001:0003b38b       ??_E?$BaseRefVectorOf@VXMLEntityDecl@xercesc_2_8@@@xercesc_2_8@@UAEPAXI@Z 1203c38b f i  CIL library: CIL module
 0001:0003b3a8       ??_ESGXMLScanner@xercesc_2_8@@UAEPAXI@Z 1203c3a8 f i SGXMLScanner.obj
 0001:0003b3f4       ?getName@SGXMLScanner@xercesc_2_8@@UBEPB_WXZ 1203c3f4 f i SGXMLScanner.obj
 0001:0003b3fa       ?toCheckIdentityConstraint@SGXMLScanner@xercesc_2_8@@ABE_NXZ 1203c3fa f i SGXMLScanner.obj
 0001:0003b3fa       ?toCheckIdentityConstraint@IGXMLScanner@xercesc_2_8@@ABE_NXZ 1203c3fa f i IGXMLScanner.obj
 0001:0003b410       ??0SGXMLScanner@xercesc_2_8@@QAE@QAVXMLValidator@1@QAVGrammarResolver@1@QAVMemoryManager@1@@Z 1203c410 f   SGXMLScanner.obj
 0001:0003b505       ??0SGXMLScanner@xercesc_2_8@@QAE@QAVXMLDocumentHandler@1@QAVDocTypeHandler@1@QAVXMLEntityHandler@1@QAVXMLErrorReporter@1@QAVXMLValidator@1@QAVGrammarResolver@1@QAVMemoryManager@1@@Z 1203c505 f   SGXMLScanner.obj
 0001:0003b606       ??1SGXMLScanner@xercesc_2_8@@UAE@XZ 1203c606 f   SGXMLScanner.obj
 0001:0003b64f       ?scanDocument@SGXMLScanner@xercesc_2_8@@UAEXABVInputSource@2@@Z 1203c64f f   SGXMLScanner.obj
 0001:0003b7a8       ?scanNext@SGXMLScanner@xercesc_2_8@@UAE_NAAVXMLPScanToken@2@@Z 1203c7a8 f   SGXMLScanner.obj
 0001:0003ba30       ?rawAttrScan@SGXMLScanner@xercesc_2_8@@IAEIQB_WAAV?$RefVectorOf@VKVStringPair@xercesc_2_8@@@2@AA_N@Z 1203ca30 f   SGXMLScanner.obj
 0001:0003bd7e       ?scanContent@SGXMLScanner@xercesc_2_8@@AAE_NXZ 1203cd7e f   SGXMLScanner.obj
 0001:0003bee2       ?scanEndTag@SGXMLScanner@xercesc_2_8@@MAEXAA_N@Z 1203cee2 f   SGXMLScanner.obj
 0001:0003c2d8       ?scanDocTypeDecl@SGXMLScanner@xercesc_2_8@@EAEXXZ 1203d2d8 f   SGXMLScanner.obj
 0001:0003c305       ?scanStartTag@SGXMLScanner@xercesc_2_8@@MAE_NAA_N@Z 1203d305 f   SGXMLScanner.obj
 0001:0003cf37       ?loadGrammar@SGXMLScanner@xercesc_2_8@@UAEPAVGrammar@2@ABVInputSource@2@F_N@Z 1203df37 f   SGXMLScanner.obj
 0001:0003d074       ?commonInit@SGXMLScanner@xercesc_2_8@@AAEXXZ 1203e074 f   SGXMLScanner.obj
 0001:0003d37f       ?cleanUp@SGXMLScanner@xercesc_2_8@@AAEXXZ 1203e37f f   SGXMLScanner.obj
 0001:0003d468       ?resizeRawAttrColonList@SGXMLScanner@xercesc_2_8@@IAEXXZ 1203e468 f   SGXMLScanner.obj
 0001:0003d4c9       ?buildAttList@SGXMLScanner@xercesc_2_8@@IAEIABV?$RefVectorOf@VKVStringPair@xercesc_2_8@@@2@IPAVXMLElementDecl@2@AAV?$RefVectorOf@VXMLAttr@xercesc_2_8@@@2@@Z 1203e4c9 f   SGXMLScanner.obj
 0001:0003e361       ?normalizeAttValue@SGXMLScanner@xercesc_2_8@@AAE_NQBVXMLAttDef@2@QB_W1AAVXMLBuffer@2@@Z 1203f361 f   SGXMLScanner.obj
 0001:0003e361       ?normalizeAttValue@IGXMLScanner@xercesc_2_8@@AAE_NQBVXMLAttDef@2@QB_W1AAVXMLBuffer@2@@Z 1203f361 f   IGXMLScanner2.obj
 0001:0003e556       ?normalizeAttRawValue@IGXMLScanner@xercesc_2_8@@AAE_NQB_W0AAVXMLBuffer@2@@Z 1203f556 f   IGXMLScanner2.obj
 0001:0003e556       ?normalizeAttRawValue@SGXMLScanner@xercesc_2_8@@AAE_NQB_W0AAVXMLBuffer@2@@Z 1203f556 f   SGXMLScanner.obj
 0001:0003e5ed       ?resolvePrefix@SGXMLScanner@xercesc_2_8@@IAEIQB_WW4MapModes@ElemStack@2@@Z 1203f5ed f   SGXMLScanner.obj
 0001:0003e5ed       ?resolvePrefix@IGXMLScanner@xercesc_2_8@@AAEIQB_WW4MapModes@ElemStack@2@@Z 1203f5ed f   IGXMLScanner2.obj
 0001:0003e5ed       ?resolvePrefix@DGXMLScanner@xercesc_2_8@@AAEIQB_WW4MapModes@ElemStack@2@@Z 1203f5ed f   DGXMLScanner.obj
 0001:0003e659       ?scanReset@SGXMLScanner@xercesc_2_8@@MAEXABVInputSource@2@@Z 1203f659 f   SGXMLScanner.obj
 0001:0003e97c       ?sendCharData@SGXMLScanner@xercesc_2_8@@EAEXAAVXMLBuffer@2@@Z 1203f97c f   SGXMLScanner.obj
 0001:0003ec06       ?updateNSMap@SGXMLScanner@xercesc_2_8@@IAEXQB_W0@Z 1203fc06 f   SGXMLScanner.obj
 0001:0003ec2a       ?updateNSMap@SGXMLScanner@xercesc_2_8@@IAEXQB_W0H@Z 1203fc2a f   SGXMLScanner.obj
 0001:0003edb7       ?scanRawAttrListforNameSpaces@SGXMLScanner@xercesc_2_8@@AAEXH@Z 1203fdb7 f   SGXMLScanner.obj
 0001:0003f079       ?parseSchemaLocation@SGXMLScanner@xercesc_2_8@@AAEXQB_W@Z 12040079 f   SGXMLScanner.obj
 0001:0003f12b       ?resolveSchemaGrammar@SGXMLScanner@xercesc_2_8@@AAEXQB_W0@Z 1204012b f   SGXMLScanner.obj
 0001:0003f6f9       ?resolveSystemId@SGXMLScanner@xercesc_2_8@@EAEPAVInputSource@2@QB_W0@Z 120406f9 f   SGXMLScanner.obj
 0001:0003f992       ?loadXMLSchemaGrammar@SGXMLScanner@xercesc_2_8@@AAEPAVGrammar@2@ABVInputSource@2@_N@Z 12040992 f   SGXMLScanner.obj
 0001:0003fbad       ?basicAttrValueScan@SGXMLScanner@xercesc_2_8@@AAE_NQB_WAAVXMLBuffer@2@@Z 12040bad f   SGXMLScanner.obj
 0001:0003fd78       ?scanCDSection@SGXMLScanner@xercesc_2_8@@EAEXXZ 12040d78 f   SGXMLScanner.obj
 0001:000400d3       ?scanCharData@SGXMLScanner@xercesc_2_8@@EAEXAAVXMLBuffer@2@@Z 120410d3 f   SGXMLScanner.obj
 0001:00040387       ?scanEntityRef@SGXMLScanner@xercesc_2_8@@EAE?AW4EntityExpRes@XMLScanner@2@_NAA_W1AA_N@Z 12041387 f   SGXMLScanner.obj
 0001:000405e7       ?switchGrammar@SGXMLScanner@xercesc_2_8@@AAE_NQB_W@Z 120415e7 f   SGXMLScanner.obj
 0001:00040667       ?laxElementValidation@IGXMLScanner@xercesc_2_8@@AAE_NPAVQName@2@PAVContentLeafNameTypeVector@2@QBVXMLContentModel@2@I@Z 12041667 f   IGXMLScanner2.obj
 0001:00040667       ?laxElementValidation@SGXMLScanner@xercesc_2_8@@IAE_NPAVQName@2@PAVContentLeafNameTypeVector@2@QBVXMLContentModel@2@I@Z 12041667 f   SGXMLScanner.obj
 0001:00040820       ?anyAttributeValidation@IGXMLScanner@xercesc_2_8@@AAE_NPAVSchemaAttDef@2@IAA_N1@Z 12041820 f   IGXMLScanner2.obj
 0001:00040820       ?anyAttributeValidation@SGXMLScanner@xercesc_2_8@@AAE_NPAVSchemaAttDef@2@IAA_N1@Z 12041820 f   SGXMLScanner.obj
 0001:000408da       ?endElementPSVI@SGXMLScanner@xercesc_2_8@@AAEXQAVSchemaElementDecl@2@QAVDatatypeValidator@2@@Z 120418da f   SGXMLScanner.obj
 0001:00040a6d       ?resetPSVIElemContext@SGXMLScanner@xercesc_2_8@@AAEXXZ 12041a6d f   SGXMLScanner.obj
 0001:00040aa3       ??0?$ValueHashTableOf@_W@xercesc_2_8@@QAE@IQAVMemoryManager@1@@Z 12041aa3 f i SGXMLScanner.obj
 0001:00040af1       ?containsKey@?$ValueHashTableOf@_W@xercesc_2_8@@QBE_NQBX@Z 12041af1 f i SGXMLScanner.obj
 0001:00040b2f       ?get@?$ValueHashTableOf@_W@xercesc_2_8@@QAEAA_WQBXQAVMemoryManager@2@@Z 12041b2f f i SGXMLScanner.obj
 0001:00040b74       ??_FValidationContextImpl@xercesc_2_8@@QAEXXZ 12041b74 f i ValidationContextImpl.obj
 0001:00040b80       ??_EValidationContextImpl@xercesc_2_8@@UAEPAXI@Z 12041b80 f i ValidationContextImpl.obj
 0001:00040bc9       ?getURI@DOMLocatorImpl@xercesc_2_8@@UBEPB_WXZ 12041bc9 f i DOMBuilderImpl.obj
 0001:00040bc9       ?getFilter@DOMBuilderImpl@xercesc_2_8@@UBEPBVDOMBuilderFilter@2@XZ 12041bc9 f i DOMBuilderImpl.obj
 0001:00040bc9       ?getFacetKind@XSMultiValueFacet@xercesc_2_8@@QBE?AW4FACET@XSSimpleTypeDefinition@2@XZ 12041bc9 f i XSMultiValueFacet.obj
 0001:00040bc9       ?getSecond@ContentSpecNode@xercesc_2_8@@QBEPBV12@XZ 12041bc9 f i XSWildcard.obj
 0001:00040bc9       ?getTypeCategory@XSTypeDefinition@xercesc_2_8@@QBE?AW4TYPE_CATEGORY@12@XZ 12041bc9 f i XMLAttr.obj
 0001:00040bc9       ?getCompositor@XSModelGroup@xercesc_2_8@@QBE?AW4COMPOSITOR_TYPE@12@XZ 12041bc9 f i XSModelGroup.obj
 0001:00040bc9       ?getData@ModifierOp@xercesc_2_8@@UBEHXZ 12041bc9 f i Op.obj
 0001:00040bc9       ?getParent@SAX2XMLFilterImpl@xercesc_2_8@@UBEPAVSAX2XMLReader@2@XZ 12041bc9 f i SAX2XMLFilterImpl.obj
 0001:00040bc9       ?getNamespaceScopeLevel@SchemaInfo@xercesc_2_8@@QBEIXZ 12041bc9 f i IGXMLScanner2.obj
 0001:00040bc9       ?getSystemId@DOMNotationImpl@xercesc_2_8@@UBEPB_WXZ 12041bc9 f i DOMNotationImpl.obj
 0001:00040bc9       ?getFilter@DOMWriterImpl@xercesc_2_8@@UBEPAVDOMWriterFilter@2@XZ 12041bc9 f i DOMWriterImpl.obj
 0001:00040bc9       ?getFacetKind@XSFacet@xercesc_2_8@@QBE?AW4FACET@XSSimpleTypeDefinition@2@XZ 12041bc9 f i XSFacet.obj
 0001:00040bc9       ?getValidatingMemberType@ValidationContextImpl@xercesc_2_8@@UBEPAVDatatypeValidator@2@XZ 12041bc9 f i ValidationContextImpl.obj
 0001:00040bc9       ?getPrefix@QName@xercesc_2_8@@QBEPB_WXZ 12041bc9 f i QName.obj
 0001:00040bc9       ?getFinalSet@ComplexTypeInfo@xercesc_2_8@@QBEHXZ 12041bc9 f i XMLElementDecl.obj
 0001:00040bc9       ?getPublicId@SAXParseException@xercesc_2_8@@QBEPB_WXZ 12041bc9 f i SAXParseException.obj
 0001:00040bc9       ?getId@XMLAttDef@xercesc_2_8@@QBEIXZ 12041bc9 f i XMLAttDef.obj
 0001:00040bc9       ?getFixed@DatatypeValidator@xercesc_2_8@@IBEHXZ 12041bc9 f i XMLAttr.obj
 0001:00040bc9       ?getSystemId@XMLNotationDecl@xercesc_2_8@@QBEPB_WXZ 12041bc9 f i XMLDTDDescription.obj
 0001:00040bc9       ?getNoParen@RegxParser@xercesc_2_8@@QBEHXZ 12041bc9 f i ParserForXMLSchema.obj
 0001:00040bc9       ?getGrammar@DTDValidator@xercesc_2_8@@UBEPAVGrammar@2@XZ 12041bc9 f i DGXMLScanner.obj
 0001:00040bc9       ?getFilter@DOMBuilderImpl@xercesc_2_8@@UAEPAVDOMBuilderFilter@2@XZ 12041bc9 f i DOMBuilderImpl.obj
 0001:00040bc9       ?getPrefix@QName@xercesc_2_8@@QAEPA_WXZ 12041bc9 f i QName.obj
 0001:00040bc9       ?getConstraintType@XSWildcard@xercesc_2_8@@QBE?AW4NAMESPACE_CONSTRAINT@12@XZ 12041bc9 f i XSComplexTypeDefinition.obj
 0001:00040bc9       ?getTermType@XSParticle@xercesc_2_8@@QBE?AW4TERM_TYPE@12@XZ 12041bc9 f i XSComplexTypeDefinition.obj
 0001:00040bc9       ?getContentSpec@XercesGroupInfo@xercesc_2_8@@QBEPAVContentSpecNode@2@XZ 12041bc9 f i XSModel.obj
 0001:00040bc9       ?getRegBasedAuthority@XMLUri@xercesc_2_8@@QBEPB_WXZ 12041bc9 f i XMLString.obj
 0001:00040bc9       ?getRawData@XMLBigDecimal@xercesc_2_8@@UBEPA_WXZ 12041bc9 f i XMLAbstractDoubleFloat.obj
 0001:00040bc9       ?getCanonicalRepresentation@PSVIItem@xercesc_2_8@@QBEPB_WXZ 12041bc9 f i PSVIAttribute.obj
 0001:00040bc9       ?getConditionFlow@ConditionOp@xercesc_2_8@@UBEPBVOp@2@XZ 12041bc9 f i Op.obj
 0001:00040bc9       ?getFormattedString@XMLBigDecimal@xercesc_2_8@@UBEPB_WXZ 12041bc9 f i XMLAbstractDoubleFloat.obj
 0001:00040bc9       ?getPath@XMLURL@xercesc_2_8@@QBEPB_WXZ 12041bc9 f i PlatformUtils.obj
 0001:00040bc9       ?getNotationName@XMLEntityDecl@xercesc_2_8@@QBEPB_WXZ 12041bc9 f i XMLDTDDescription.obj
 0001:00040bc9       ?getRelatedData@DOMErrorImpl@xercesc_2_8@@UBEPAXXZ 12041bc9 f i DOMBuilderImpl.obj
 0001:00040bc9       ?getBufSize@XSerializeEngine@xercesc_2_8@@QBEKXZ 12041bc9 f i KVStringPair.obj
 0001:00040bc9       ?getSecond@ContentSpecNode@xercesc_2_8@@QAEPAV12@XZ 12041bc9 f i XSWildcard.obj
 0001:00040bc9       ?getLocator@XMLResourceIdentifier@xercesc_2_8@@QBEPBVLocator@2@XZ 12041bc9 f i DGXMLScanner.obj
 0001:00040bc9       ?getTriggeringComponent@XMLSchemaDescriptionImpl@xercesc_2_8@@UBEPBVQName@2@XZ 12041bc9 f i XMLSchemaDescriptionImpl.obj
 0001:00040bcd       ??0InvalidDatatypeValueException@xercesc_2_8@@QAE@QBDIW4Codes@XMLExcepts@1@PAVMemoryManager@1@@Z 12041bcd f i ValidationContextImpl.obj
 0001:00040c0a       ??0InvalidDatatypeValueException@xercesc_2_8@@QAE@ABV01@@Z 12041c0a f i ValidationContextImpl.obj
 0001:00040c22       ??0InvalidDatatypeValueException@xercesc_2_8@@QAE@QBDIW4Codes@XMLExcepts@1@QB_W222PAVMemoryManager@1@@Z 12041c22 f i ValidationContextImpl.obj
 0001:00040c6b       ??0InvalidDatatypeValueException@xercesc_2_8@@QAE@QBDIW4Codes@XMLExcepts@1@0000PAVMemoryManager@1@@Z 12041c6b f i ValidationContextImpl.obj
 0001:00040cb4       ??1InvalidDatatypeValueException@xercesc_2_8@@UAE@XZ 12041cb4 f i ValidationContextImpl.obj
 0001:00040cbf       ?duplicate@InvalidDatatypeValueException@xercesc_2_8@@UBEPAVXMLException@2@XZ 12041cbf f i ValidationContextImpl.obj
 0001:00040cf6       ?getType@InvalidDatatypeValueException@xercesc_2_8@@UBEPB_WXZ 12041cf6 f i ValidationContextImpl.obj
 0001:00040cfc       ??_EInvalidDatatypeValueException@xercesc_2_8@@UAEPAXI@Z 12041cfc f i ValidationContextImpl.obj
 0001:00040d4b       ??1ValidationContextImpl@xercesc_2_8@@UAE@XZ 12041d4b f   ValidationContextImpl.obj
 0001:00040d7e       ??_G?$RefHashTableOf@VXSAnnotation@xercesc_2_8@@@xercesc_2_8@@QAEPAXI@Z 12041d7e f i XTemplateSerializer.obj
 0001:00040d7e       ??_G?$RefHashTableOf@VDatatypeValidator@xercesc_2_8@@@xercesc_2_8@@QAEPAXI@Z 12041d7e f i PSVIItem.obj
 0001:00040d7e       ??_G?$RefHashTableOf@VXMLRefInfo@xercesc_2_8@@@xercesc_2_8@@QAEPAXI@Z 12041d7e f i ValidationContextImpl.obj
 0001:00040d7e       ??_G?$RefHashTableOf@VGrammar@xercesc_2_8@@@xercesc_2_8@@QAEPAXI@Z 12041d7e f i XSModel.obj
 0001:00040dad       ??0ValidationContextImpl@xercesc_2_8@@QAE@QAVMemoryManager@1@@Z 12041dad f   ValidationContextImpl.obj
 0001:00040e0f       ?setIdRefList@ValidationContextImpl@xercesc_2_8@@UAEXQAV?$RefHashTableOf@VXMLRefInfo@xercesc_2_8@@@2@@Z 12041e0f f   ValidationContextImpl.obj
 0001:00040e29       ?clearIdRefList@ValidationContextImpl@xercesc_2_8@@UAEXXZ 12041e29 f   ValidationContextImpl.obj
 0001:00040e38       ?addId@ValidationContextImpl@xercesc_2_8@@UAEXQB_W@Z 12041e38 f   ValidationContextImpl.obj
 0001:00040ee0       ?addIdRef@ValidationContextImpl@xercesc_2_8@@UAEXQB_W@Z 12041ee0 f   ValidationContextImpl.obj
 0001:00040f54       ?toCheckIdRefList@ValidationContextImpl@xercesc_2_8@@UAEX_N@Z 12041f54 f   ValidationContextImpl.obj
 0001:00040f54       ?setProvided@XMLAttDef@xercesc_2_8@@QAEX_N@Z 12041f54 f   XMLAttDef.obj
 0001:00040f5e       ?setEntityDeclPool@ValidationContextImpl@xercesc_2_8@@UAEPBV?$NameIdPool@VDTDEntityDecl@xercesc_2_8@@@2@QBV32@@Z 12041f5e f   ValidationContextImpl.obj
 0001:00040f6b       ?checkEntity@ValidationContextImpl@xercesc_2_8@@UBEXQB_W@Z 12041f6b f   ValidationContextImpl.obj
 0001:00040fd8       ?isPrefixUnknown@ValidationContextImpl@xercesc_2_8@@UAE_NPA_W@Z 12041fd8 f   ValidationContextImpl.obj
 0001:00041026       ??0?$RefHashTableOf@VXMLRefInfo@xercesc_2_8@@@xercesc_2_8@@QAE@IQAVMemoryManager@1@@Z 12042026 f i ValidationContextImpl.obj
 0001:0004106a       ?put@?$RefHashTableOf@VXMLRefInfo@xercesc_2_8@@@xercesc_2_8@@QAEXPAXQAVXMLRefInfo@2@@Z 1204206a f i ValidationContextImpl.obj
 0001:000410e7       ?getByKey@?$NameIdPool@VDTDEntityDecl@xercesc_2_8@@@xercesc_2_8@@QBEPBVDTDEntityDecl@2@QB_W@Z 120420e7 f i ValidationContextImpl.obj
 0001:0004112c       ?initialize@?$RefHashTableOf@VXMLRefInfo@xercesc_2_8@@@xercesc_2_8@@AAEXI@Z 1204212c f i ValidationContextImpl.obj
 0001:00041182       ?rehash@?$RefHashTableOf@VXMLRefInfo@xercesc_2_8@@@xercesc_2_8@@AAEXXZ 12042182 f i ValidationContextImpl.obj
 0001:0004122b       ??0Attributes@xercesc_2_8@@QAE@XZ 1204222b f i VecAttributesImpl.obj
 0001:00041234       ??1Attributes@xercesc_2_8@@UAE@XZ 12042234 f i VecAttributesImpl.obj
 0001:0004123b       ??_EAttributes@xercesc_2_8@@UAEPAXI@Z 1204223b f i VecAttributesImpl.obj
 0001:00041285       ??_EVecAttributesImpl@xercesc_2_8@@UAEPAXI@Z 12042285 f i VecAttributesImpl.obj
 0001:000412ce       ??0VecAttributesImpl@xercesc_2_8@@QAE@XZ 120422ce f   VecAttributesImpl.obj
 0001:000412e5       ??1VecAttributesImpl@xercesc_2_8@@UAE@XZ 120422e5 f   VecAttributesImpl.obj
 0001:0004131f       ?getURI@VecAttributesImpl@xercesc_2_8@@UBEPB_WI@Z 1204231f f   VecAttributesImpl.obj
 0001:00041356       ?getLocalName@VecAttributesImpl@xercesc_2_8@@UBEPB_WI@Z 12042356 f   VecAttributesImpl.obj
 0001:00041381       ?getIndex@VecAttributesImpl@xercesc_2_8@@UBEHQB_W0@Z 12042381 f   VecAttributesImpl.obj
 0001:0004145f       ?getIndex@VecAttributesImpl@xercesc_2_8@@UBEHQB_W@Z 1204245f f   VecAttributesImpl.obj
 0001:000414b1       ?getType@VecAttributesImpl@xercesc_2_8@@UBEPB_WQB_W0@Z 120424b1 f   VecAttributesImpl.obj
 0001:000414d5       ?getType@VecAttributesImpl@xercesc_2_8@@UBEPB_WQB_W@Z 120424d5 f   VecAttributesImpl.obj
 0001:000414f5       ?getValue@VecAttributesImpl@xercesc_2_8@@UBEPB_WQB_W0@Z 120424f5 f   VecAttributesImpl.obj
 0001:00041519       ?getValue@VecAttributesImpl@xercesc_2_8@@UBEPB_WQB_W@Z 12042519 f   VecAttributesImpl.obj
 0001:00041539       ?setVector@VecAttributesImpl@xercesc_2_8@@QAEXQBV?$RefVectorOf@VXMLAttr@xercesc_2_8@@@2@IQBVXMLScanner@2@_N@Z 12042539 f   VecAttributesImpl.obj
 0001:0004156f       ?elementAt@?$BaseRefVectorOf@VKVStringPair@xercesc_2_8@@@xercesc_2_8@@QBEPBVKVStringPair@2@I@Z 1204256f f i IGXMLScanner2.obj
 0001:0004156f       ?elementAt@?$BaseRefVectorOf@VXMLAttr@xercesc_2_8@@@xercesc_2_8@@QBEPBVXMLAttr@2@I@Z 1204256f f i VecAttributesImpl.obj
 0001:0004159b       ??0AttributeList@xercesc_2_8@@QAE@XZ 1204259b f i VecAttrListImpl.obj
 0001:000415a4       ??1AttributeList@xercesc_2_8@@UAE@XZ 120425a4 f i VecAttrListImpl.obj
 0001:000415ab       ??_EAttributeList@xercesc_2_8@@UAEPAXI@Z 120425ab f i VecAttrListImpl.obj
 0001:000415f5       ??_EVecAttrListImpl@xercesc_2_8@@UAEPAXI@Z 120425f5 f i VecAttrListImpl.obj
 0001:0004163e       ??0VecAttrListImpl@xercesc_2_8@@QAE@XZ 1204263e f   VecAttrListImpl.obj
 0001:00041652       ??1VecAttrListImpl@xercesc_2_8@@UAE@XZ 12042652 f   VecAttrListImpl.obj
 0001:0004168c       ?getQName@VecAttributesImpl@xercesc_2_8@@UBEPB_WI@Z 1204268c f   VecAttributesImpl.obj
 0001:0004168c       ?getName@VecAttrListImpl@xercesc_2_8@@UBEPB_WI@Z 1204268c f   VecAttrListImpl.obj
 0001:000416b9       ?getType@VecAttrListImpl@xercesc_2_8@@UBEPB_WI@Z 120426b9 f   VecAttrListImpl.obj
 0001:000416b9       ?getType@VecAttributesImpl@xercesc_2_8@@UBEPB_WI@Z 120426b9 f   VecAttributesImpl.obj
 0001:000416ef       ?getValue@VecAttrListImpl@xercesc_2_8@@UBEPB_WI@Z 120426ef f   VecAttrListImpl.obj
 0001:000416ef       ?getValue@VecAttributesImpl@xercesc_2_8@@UBEPB_WI@Z 120426ef f   VecAttributesImpl.obj
 0001:00041717       ?getType@VecAttrListImpl@xercesc_2_8@@UBEPB_WQB_W@Z 12042717 f   VecAttrListImpl.obj
 0001:0004177d       ?getValue@VecAttrListImpl@xercesc_2_8@@UBEPB_WQB_W@Z 1204277d f   VecAttrListImpl.obj
 0001:000417d4       ?getValue@VecAttrListImpl@xercesc_2_8@@UBEPB_WQBD@Z 120427d4 f   VecAttrListImpl.obj
 0001:0004188f       ?setVector@VecAttrListImpl@xercesc_2_8@@QAEXQBV?$RefVectorOf@VXMLAttr@xercesc_2_8@@@2@I_N@Z 1204288f f   VecAttrListImpl.obj
 0001:000418be       ??_EWFXMLScanner@xercesc_2_8@@UAEPAXI@Z 120428be f i WFXMLScanner.obj
 0001:0004190a       ?getName@WFXMLScanner@xercesc_2_8@@UBEPB_WXZ 1204290a f i WFXMLScanner.obj
 0001:00041910       ??0WFXMLScanner@xercesc_2_8@@QAE@QAVXMLValidator@1@QAVGrammarResolver@1@QAVMemoryManager@1@@Z 12042910 f   WFXMLScanner.obj
 0001:00041996       ??0WFXMLScanner@xercesc_2_8@@QAE@QAVXMLDocumentHandler@1@QAVDocTypeHandler@1@QAVXMLEntityHandler@1@QAVXMLErrorReporter@1@QAVXMLValidator@1@QAVGrammarResolver@1@QAVMemoryManager@1@@Z 12042996 f   WFXMLScanner.obj
 0001:00041a28       ??1WFXMLScanner@xercesc_2_8@@UAE@XZ 12042a28 f   WFXMLScanner.obj
 0001:00041a59       ?scanDocument@WFXMLScanner@xercesc_2_8@@UAEXABVInputSource@2@@Z 12042a59 f   WFXMLScanner.obj
 0001:00041ba6       ?scanNext@WFXMLScanner@xercesc_2_8@@UAE_NAAVXMLPScanToken@2@@Z 12042ba6 f   WFXMLScanner.obj
 0001:00041e32       ?commonInit@WFXMLScanner@xercesc_2_8@@AAEXXZ 12042e32 f   WFXMLScanner.obj
 0001:00041fc7       ?cleanUp@WFXMLScanner@xercesc_2_8@@AAEXXZ 12042fc7 f   WFXMLScanner.obj
 0001:0004204a       ?resolvePrefix@WFXMLScanner@xercesc_2_8@@AAEIQB_WW4MapModes@ElemStack@2@@Z 1204304a f   WFXMLScanner.obj
 0001:000420b6       ?scanReset@WFXMLScanner@xercesc_2_8@@EAEXABVInputSource@2@@Z 120430b6 f   WFXMLScanner.obj
 0001:000421cd       ?sendCharData@WFXMLScanner@xercesc_2_8@@EAEXAAVXMLBuffer@2@@Z 120431cd f   WFXMLScanner.obj
 0001:00042201       ?scanContent@WFXMLScanner@xercesc_2_8@@AAE_NXZ 12043201 f   WFXMLScanner.obj
 0001:00042371       ?scanEndTag@WFXMLScanner@xercesc_2_8@@AAEXAA_N@Z 12043371 f   WFXMLScanner.obj
 0001:000424d3       ?scanDocTypeDecl@WFXMLScanner@xercesc_2_8@@EAEXXZ 120434d3 f   WFXMLScanner.obj
 0001:00042500       ?scanStartTag@WFXMLScanner@xercesc_2_8@@AAE_NAA_N@Z 12043500 f   WFXMLScanner.obj
 0001:00042a4e       ?scanStartTagNS@WFXMLScanner@xercesc_2_8@@AAE_NAA_N@Z 12043a4e f   WFXMLScanner.obj
 0001:00043309       ?scanAttValue@WFXMLScanner@xercesc_2_8@@AAE_NQB_WAAVXMLBuffer@2@@Z 12044309 f   WFXMLScanner.obj
 0001:00043514       ?scanCDSection@WFXMLScanner@xercesc_2_8@@EAEXXZ 12044514 f   WFXMLScanner.obj
 0001:00043739       ?scanCharData@WFXMLScanner@xercesc_2_8@@EAEXAAVXMLBuffer@2@@Z 12044739 f   WFXMLScanner.obj
 0001:00043987       ?scanEntityRef@WFXMLScanner@xercesc_2_8@@EAE?AW4EntityExpRes@XMLScanner@2@_NAA_W1AA_N@Z 12044987 f   WFXMLScanner.obj
 0001:00043bbf       ?loadGrammar@WFXMLScanner@xercesc_2_8@@UAEPAVGrammar@2@ABVInputSource@2@F_N@Z 12044bbf f   WFXMLScanner.obj
 0001:00043bc4       ??0?$ValueVectorOf@I@xercesc_2_8@@QAE@IQAVMemoryManager@1@_N@Z 12044bc4 f i WFXMLScanner.obj
 0001:00043bc4       ??0?$ValueVectorOf@PAVSchemaElementDecl@xercesc_2_8@@@xercesc_2_8@@QAE@IQAVMemoryManager@1@_N@Z 12044bc4 f i XTemplateSerializer.obj
 0001:00043bf5       ?setElementAt@?$ValueVectorOf@I@xercesc_2_8@@QAEXABII@Z 12044bf5 f i WFXMLScanner.obj
 0001:00043c1e       ??0?$RefVectorOf@VXMLElementDecl@xercesc_2_8@@@xercesc_2_8@@QAE@I_NQAVMemoryManager@1@@Z 12044c1e f i WFXMLScanner.obj
 0001:00043c63       ??0?$RefHashTableOf@VXMLElementDecl@xercesc_2_8@@@xercesc_2_8@@QAE@I_NQAVMemoryManager@1@@Z 12044c63 f i WFXMLScanner.obj
 0001:00043cbd       ?put@?$RefHashTableOf@VXMLElementDecl@xercesc_2_8@@@xercesc_2_8@@QAEXPAXQAVXMLElementDecl@2@@Z 12044cbd f i WFXMLScanner.obj
 0001:00043d3a       ??1?$BaseRefVectorOf@VXMLElementDecl@xercesc_2_8@@@xercesc_2_8@@UAE@XZ 12044d3a f i WFXMLScanner.obj
 0001:00043d41       ??_E?$RefVectorOf@VXMLElementDecl@xercesc_2_8@@@xercesc_2_8@@UAEPAXI@Z 12044d41 f i  CIL library: CIL module
 0001:00043d41       ??_G?$RefVectorOf@VXMLElementDecl@xercesc_2_8@@@xercesc_2_8@@UAEPAXI@Z 12044d41 f i WFXMLScanner.obj
 0001:00043dab       ??_E?$BaseRefVectorOf@VXMLElementDecl@xercesc_2_8@@@xercesc_2_8@@UAEPAXI@Z 12044dab f i  CIL library: CIL module
 0001:00043dab       ??_G?$BaseRefVectorOf@VXMLElementDecl@xercesc_2_8@@@xercesc_2_8@@UAEPAXI@Z 12044dab f i WFXMLScanner.obj
 0001:00043dc8       ?rehash@?$RefHashTableOf@VXMLElementDecl@xercesc_2_8@@@xercesc_2_8@@AAEXXZ 12044dc8 f i WFXMLScanner.obj
 0001:00043e71       ??_EXMLGrammarPoolImpl@xercesc_2_8@@UAEPAXI@Z 12044e71 f i XMLGrammarPoolImpl.obj
 0001:00043eba       ?createXSModel@XMLGrammarPoolImpl@xercesc_2_8@@EAEXXZ 12044eba f   XMLGrammarPoolImpl.obj
 0001:00043f1b       ??1XMLGrammarPoolImpl@xercesc_2_8@@UAE@XZ 12044f1b f   XMLGrammarPoolImpl.obj
 0001:00043f7d       ??0XMLGrammarPoolImpl@xercesc_2_8@@QAE@QAVMemoryManager@1@@Z 12044f7d f   XMLGrammarPoolImpl.obj
 0001:00044015       ?cacheGrammar@XMLGrammarPoolImpl@xercesc_2_8@@UAE_NQAVGrammar@2@@Z 12045015 f   XMLGrammarPoolImpl.obj
 0001:00044074       ?retrieveGrammar@XMLGrammarPoolImpl@xercesc_2_8@@UAEPAVGrammar@2@QAVXMLGrammarDescription@2@@Z 12045074 f   XMLGrammarPoolImpl.obj
 0001:00044095       ?orphanGrammar@XMLGrammarPoolImpl@xercesc_2_8@@UAEPAVGrammar@2@QB_W@Z 12045095 f   XMLGrammarPoolImpl.obj
 0001:000440d2       ?getGrammarEnumerator@XMLGrammarPoolImpl@xercesc_2_8@@UBE?AV?$RefHashTableOfEnumerator@VGrammar@xercesc_2_8@@@2@XZ 120450d2 f   XMLGrammarPoolImpl.obj
 0001:000440ef       ?clear@XMLGrammarPoolImpl@xercesc_2_8@@UAE_NXZ 120450ef f   XMLGrammarPoolImpl.obj
 0001:00044127       ?lockPool@XMLGrammarPoolImpl@xercesc_2_8@@UAEXXZ 12045127 f   XMLGrammarPoolImpl.obj
 0001:0004418b       ?unlockPool@XMLGrammarPoolImpl@xercesc_2_8@@UAEXXZ 1204518b f   XMLGrammarPoolImpl.obj
 0001:000441d5       ?createDTDGrammar@XMLGrammarPoolImpl@xercesc_2_8@@UAEPAVDTDGrammar@2@XZ 120451d5 f   XMLGrammarPoolImpl.obj
 0001:0004420f       ?createSchemaGrammar@XMLGrammarPoolImpl@xercesc_2_8@@UAEPAVSchemaGrammar@2@XZ 1204520f f   XMLGrammarPoolImpl.obj
 0001:00044249       ?createDTDDescription@XMLGrammarPoolImpl@xercesc_2_8@@UAEPAVXMLDTDDescription@2@QB_W@Z 12045249 f   XMLGrammarPoolImpl.obj
 0001:00044288       ?createSchemaDescription@XMLGrammarPoolImpl@xercesc_2_8@@UAEPAVXMLSchemaDescription@2@QB_W@Z 12045288 f   XMLGrammarPoolImpl.obj
 0001:000442c7       ?getXSModel@XMLGrammarPoolImpl@xercesc_2_8@@UAEPAVXSModel@2@XZ 120452c7 f   XMLGrammarPoolImpl.obj
 0001:000442e0       ?getXSModel@XMLGrammarPoolImpl@xercesc_2_8@@UAEPAVXSModel@2@AA_N@Z 120452e0 f   XMLGrammarPoolImpl.obj
 0001:00044306       ?getURIStringPool@XMLGrammarPoolImpl@xercesc_2_8@@UAEPAVXMLStringPool@2@XZ 12045306 f   XMLGrammarPoolImpl.obj
 0001:00044314       ?serializeGrammars@XMLGrammarPoolImpl@xercesc_2_8@@UAEXQAVBinOutputStream@2@@Z 12045314 f   XMLGrammarPoolImpl.obj
 0001:00044407       ?deserializeGrammars@XMLGrammarPoolImpl@xercesc_2_8@@UAEXQAVBinInputStream@2@@Z 12045407 f   XMLGrammarPoolImpl.obj
 0001:000445d2       ?cleanUp@XMLGrammarPoolImpl@xercesc_2_8@@AAEXXZ 120455d2 f   XMLGrammarPoolImpl.obj
 0001:000445db       ??0?$RefHashTableOfEnumerator@VGrammar@xercesc_2_8@@@xercesc_2_8@@QAE@QAV?$RefHashTableOf@VGrammar@xercesc_2_8@@@1@_NQAVMemoryManager@1@@Z 120455db f i XMLGrammarPoolImpl.obj
 0001:00044640       ?orphanKey@?$RefHashTableOf@VGrammar@xercesc_2_8@@@xercesc_2_8@@QAEPAVGrammar@2@QBX@Z 12045640 f i XMLGrammarPoolImpl.obj
 0001:000446d5       ?put@?$RefHashTableOf@VGrammar@xercesc_2_8@@@xercesc_2_8@@QAEXPAXQAVGrammar@2@@Z 120456d5 f i XMLGrammarPoolImpl.obj
 0001:00044752       ?rehash@?$RefHashTableOf@VGrammar@xercesc_2_8@@@xercesc_2_8@@AAEXXZ 12045752 f i XMLGrammarPoolImpl.obj
 0001:000447fb       ?isAllSpaces@XMLReader@xercesc_2_8@@QBE_NQB_WI@Z 120457fb f   XMLReader.obj
 0001:0004482e       ?containsWhiteSpace@XMLReader@xercesc_2_8@@QBE_NQB_WI@Z 1204582e f   XMLReader.obj
 0001:00044861       ?isPublicIdChar@XMLReader@xercesc_2_8@@QBE_N_W@Z 12045861 f   XMLReader.obj
 0001:00044881       ??0XMLReader@xercesc_2_8@@QAE@QB_W0QAVBinInputStream@1@W4RefFrom@01@W4Types@01@W4Sources@01@_N5W4XMLVersion@01@QAVMemoryManager@1@@Z 12045881 f   XMLReader.obj
 0001:000449be       ??0XMLReader@xercesc_2_8@@QAE@QB_W0QAVBinInputStream@1@0W4RefFrom@01@W4Types@01@W4Sources@01@_N5W4XMLVersion@01@QAVMemoryManager@1@@Z 120459be f   XMLReader.obj
 0001:00044c82       ??0XMLReader@xercesc_2_8@@QAE@QB_W0QAVBinInputStream@1@W4Encodings@XMLRecognizer@1@W4RefFrom@01@W4Types@01@W4Sources@01@_N6W4XMLVersion@01@QAVMemoryManager@1@@Z 12045c82 f   XMLReader.obj
 0001:00044e53       ??1XMLReader@xercesc_2_8@@QAE@XZ 12045e53 f   XMLReader.obj
 0001:00044eab       ?getSrcOffset@XMLReader@xercesc_2_8@@QBEIXZ 12045eab f   XMLReader.obj
 0001:00044f24       ?refreshCharBuffer@XMLReader@xercesc_2_8@@QAE_NXZ 12045f24 f   XMLReader.obj
 0001:000450ef       ?getName@XMLReader@xercesc_2_8@@QAE_NAAVXMLBuffer@2@_N@Z 120460ef f   XMLReader.obj
 0001:00045235       ?getQName@XMLReader@xercesc_2_8@@QAE_NAAVXMLBuffer@2@PAH@Z 12046235 f   XMLReader.obj
 0001:00045392       ?getSpaces@XMLReader@xercesc_2_8@@QAE_NAAVXMLBuffer@2@@Z 12046392 f   XMLReader.obj
 0001:00045405       ?getUpToCharOrWS@XMLReader@xercesc_2_8@@QAE_NAAVXMLBuffer@2@_W@Z 12046405 f   XMLReader.obj
 0001:00045481       ?skipIfQuote@XMLReader@xercesc_2_8@@QAE_NAA_W@Z 12046481 f   XMLReader.obj
 0001:000454c5       ?skipSpaces@XMLReader@xercesc_2_8@@QAE_NAA_N_N@Z 120464c5 f   XMLReader.obj
 0001:00045585       ?skippedChar@XMLReader@xercesc_2_8@@QAE_N_W@Z 12046585 f   XMLReader.obj
 0001:000455be       ?skippedSpace@XMLReader@xercesc_2_8@@QAE_NXZ 120465be f   XMLReader.obj
 0001:00045621       ?skippedString@XMLReader@xercesc_2_8@@QAE_NQB_W@Z 12046621 f   XMLReader.obj
 0001:00045726       ?peekString@XMLReader@xercesc_2_8@@QAE_NQB_W@Z 12046726 f   XMLReader.obj
 0001:0004578b       ?setEncoding@XMLReader@xercesc_2_8@@QAE_NQB_W@Z 1204678b f   XMLReader.obj
 0001:00045a13       ?checkForSwapped@XMLReader@xercesc_2_8@@AAEXXZ 12046a13 f   XMLReader.obj
 0001:00045a30       ?doInitDecode@XMLReader@xercesc_2_8@@AAEXXZ 12046a30 f   XMLReader.obj
 0001:00045e91       ?refreshRawBuffer@XMLReader@xercesc_2_8@@AAEXXZ 12046e91 f   XMLReader.obj
 0001:00045eef       ?xcodeMoreChars@XMLReader@xercesc_2_8@@AAEIQA_WQAEI@Z 12046eef f   XMLReader.obj
 0001:00045f5d       ?handleEOL@XMLReader@xercesc_2_8@@AAEXAA_W_N@Z 12046f5d f   XMLReader.obj
 0001:00046068       ?errorType@XMLErrs@xercesc_2_8@@SA?AW4ErrTypes@XMLErrorReporter@2@W4Codes@12@@Z 12047068 f i XMLScanner.obj
 0001:00046096       ??_EXMLScanner@xercesc_2_8@@UAEPAXI@Z 12047096 f i XMLScanner.obj
 0001:000460e2       ?reinitMsgLoader@XMLScanner@xercesc_2_8@@SAXXZ 120470e2 f   XMLScanner.obj
 0001:000460fa       ?reinitScannerMutex@XMLScanner@xercesc_2_8@@SAXXZ 120470fa f   XMLScanner.obj
 0001:00046219       ?initializeScannerMsgLoader@XMLInitializer@xercesc_2_8@@CAXXZ 12047219 f   XMLScanner.obj
 0001:00046291       ??0XMLScanner@xercesc_2_8@@QAE@QAVXMLValidator@1@QAVGrammarResolver@1@QAVMemoryManager@1@@Z 12047291 f   XMLScanner.obj
 0001:00046497       ??0XMLScanner@xercesc_2_8@@QAE@QAVXMLDocumentHandler@1@QAVDocTypeHandler@1@QAVXMLEntityHandler@1@QAVXMLErrorReporter@1@QAVXMLValidator@1@QAVGrammarResolver@1@QAVMemoryManager@1@@Z 12047497 f   XMLScanner.obj
 0001:000466a9       ??1XMLScanner@xercesc_2_8@@UAE@XZ 120476a9 f   XMLScanner.obj
 0001:00046798       ?setValidator@XMLScanner@xercesc_2_8@@QAEXQAVXMLValidator@2@@Z 12047798 f   XMLScanner.obj
 0001:000467cb       ?scanDocument@XMLScanner@xercesc_2_8@@QAEXQB_W@Z 120477cb f   XMLScanner.obj
 0001:000469ed       ?scanDocument@XMLScanner@xercesc_2_8@@QAEXQBD@Z 120479ed f   XMLScanner.obj
 0001:00046a35       ?scanFirst@XMLScanner@xercesc_2_8@@QAE_NQB_WAAVXMLPScanToken@2@@Z 12047a35 f   XMLScanner.obj
 0001:00046c5f       ?scanFirst@XMLScanner@xercesc_2_8@@QAE_NQBDAAVXMLPScanToken@2@@Z 12047c5f f   XMLScanner.obj
 0001:00046cae       ?scanFirst@XMLScanner@xercesc_2_8@@QAE_NABVInputSource@2@AAVXMLPScanToken@2@@Z 12047cae f   XMLScanner.obj
 0001:00046df9       ?scanReset@XMLScanner@xercesc_2_8@@QAEXAAVXMLPScanToken@2@@Z 12047df9 f   XMLScanner.obj
 0001:00046e4d       ?setParseSettings@XMLScanner@xercesc_2_8@@QAEXQAV12@@Z 12047e4d f   XMLScanner.obj
 0001:00046f0c       ?commonInit@XMLScanner@xercesc_2_8@@AAEXXZ 12047f0c f   XMLScanner.obj
 0001:00047033       ?cleanUp@XMLScanner@xercesc_2_8@@AAEXXZ 12048033 f   XMLScanner.obj
 0001:000470df       ?initValidator@XMLScanner@xercesc_2_8@@IAEXPAVXMLValidator@2@@Z 120480df f   XMLScanner.obj
 0001:00047101       ?emitErrorWillThrowException@XMLScanner@xercesc_2_8@@QAE_NW4Codes@XMLErrs@2@@Z 12048101 f   XMLScanner.obj
 0001:00047126       ?emitError@XMLScanner@xercesc_2_8@@QAEXW4Codes@XMLErrs@2@@Z 12048126 f   XMLScanner.obj
 0001:000471df       ?emitError@XMLScanner@xercesc_2_8@@QAEXW4Codes@XMLErrs@2@QB_W111@Z 120481df f   XMLScanner.obj
 0001:000472ca       ?emitError@XMLScanner@xercesc_2_8@@QAEXW4Codes@XMLErrs@2@QBD111@Z 120482ca f   XMLScanner.obj
 0001:000473b5       ?emitError@XMLScanner@xercesc_2_8@@QAEXW4Codes@XMLErrs@2@W43XMLExcepts@2@QB_W222@Z 120483b5 f   XMLScanner.obj
 0001:000474a0       ?scanMiscellaneous@XMLScanner@xercesc_2_8@@IAEXXZ 120484a0 f   XMLScanner.obj
 0001:000475df       ?scanPI@XMLScanner@xercesc_2_8@@IAEXXZ 120485df f   XMLScanner.obj
 0001:000478e7       ?scanProlog@XMLScanner@xercesc_2_8@@IAEXXZ 120488e7 f   XMLScanner.obj
 0001:00047ab7       ?scanXMLDecl@XMLScanner@xercesc_2_8@@IAEXW4DeclTypes@12@@Z 12048ab7 f   XMLScanner.obj
 0001:000480be       ?getURIText@XMLScanner@xercesc_2_8@@QBEPB_WI@Z 120490be f   XMLScanner.obj
 0001:000480ec       ?getURIText@XMLScanner@xercesc_2_8@@QBE_NIAAVXMLBuffer@2@@Z 120490ec f   XMLScanner.obj
 0001:00048128       ?checkXMLDecl@XMLScanner@xercesc_2_8@@QAE_N_N@Z 12049128 f   XMLScanner.obj
 0001:000482a7       ?loadGrammar@XMLScanner@xercesc_2_8@@QAEPAVGrammar@2@QB_WF_N@Z 120492a7 f   XMLScanner.obj
 0001:00048528       ?loadGrammar@XMLScanner@xercesc_2_8@@QAEPAVGrammar@2@QBDF_N@Z 12049528 f   XMLScanner.obj
 0001:0004857a       ?setURIStringPool@XMLScanner@xercesc_2_8@@QAEXQAVXMLStringPool@2@@Z 1204957a f   XMLScanner.obj
 0001:000485d1       ?checkInternalDTD@XMLScanner@xercesc_2_8@@IAEX_NQB_W1@Z 120495d1 f   XMLScanner.obj
 0001:0004868e       ?checkIDRefs@XMLScanner@xercesc_2_8@@IAEXXZ 1204968e f   XMLScanner.obj
 0001:00048731       ?isLegalToken@XMLScanner@xercesc_2_8@@IAE_NABVXMLPScanToken@2@@Z 12049731 f   XMLScanner.obj
 0001:0004874e       ?senseNextToken@XMLScanner@xercesc_2_8@@IAE?AW4XMLTokens@12@AAI@Z 1204974e f   XMLScanner.obj
 0001:00048852       ?getQuotedString@XMLScanner@xercesc_2_8@@AAE_NAAVXMLBuffer@2@@Z 12049852 f   XMLScanner.obj
 0001:000488a4       ?scanCharRef@XMLScanner@xercesc_2_8@@IAE_NAA_W0@Z 120498a4 f   XMLScanner.obj
 0001:00048a5b       ?scanComment@XMLScanner@xercesc_2_8@@IAEXXZ 12049a5b f   XMLScanner.obj
 0001:00048c86       ?scanEq@XMLScanner@xercesc_2_8@@IAE_N_N@Z 12049c86 f   XMLScanner.obj
 0001:00048cbc       ?scanUpToWSOr@XMLScanner@xercesc_2_8@@AAEIAAVXMLBuffer@2@_W@Z 12049cbc f   XMLScanner.obj
 0001:00048cd7       ?getNewUIntPtr@XMLScanner@xercesc_2_8@@IAEPAIXZ 12049cd7 f   XMLScanner.obj
 0001:00048d96       ?resetUIntPool@XMLScanner@xercesc_2_8@@IAEXXZ 12049d96 f   XMLScanner.obj
 0001:00048dba       ?recreateUIntPool@XMLScanner@xercesc_2_8@@IAEXXZ 12049dba f   XMLScanner.obj
 0001:00048e38       ??1?$XMLEnumerator@VXMLRefInfo@xercesc_2_8@@@xercesc_2_8@@UAE@XZ 12049e38 f i XMLScanner.obj
 0001:00048e3f       ??_E?$XMLEnumerator@VXMLRefInfo@xercesc_2_8@@@xercesc_2_8@@UAEPAXI@Z 12049e3f f i  CIL library: CIL module
 0001:00048e3f       ??_G?$XMLEnumerator@VXMLRefInfo@xercesc_2_8@@@xercesc_2_8@@UAEPAXI@Z 12049e3f f i XMLScanner.obj
 0001:00048e5c       ??0?$RefVectorOf@VXMLAttr@xercesc_2_8@@@xercesc_2_8@@QAE@I_NQAVMemoryManager@1@@Z 12049e5c f i XMLScanner.obj
 0001:00048e9c       ??1?$BaseRefVectorOf@VXMLAttr@xercesc_2_8@@@xercesc_2_8@@UAE@XZ 12049e9c f i XMLScanner.obj
 0001:00048ea3       ?setElementAt@?$BaseRefVectorOf@VXMLAttr@xercesc_2_8@@@xercesc_2_8@@UAEXQAVXMLAttr@2@I@Z 12049ea3 f i XMLScanner.obj
 0001:00048f06       ?removeAllElements@?$BaseRefVectorOf@VXMLAttr@xercesc_2_8@@@xercesc_2_8@@UAEXXZ 12049f06 f i XMLScanner.obj
 0001:00048f45       ?removeElementAt@?$BaseRefVectorOf@VXMLAttr@xercesc_2_8@@@xercesc_2_8@@UAEXI@Z 12049f45 f i XMLScanner.obj
 0001:00048fdb       ?removeLastElement@?$BaseRefVectorOf@VXMLAttr@xercesc_2_8@@@xercesc_2_8@@UAEXXZ 12049fdb f i XMLScanner.obj
 0001:00049007       ?cleanup@?$BaseRefVectorOf@VXMLAttr@xercesc_2_8@@@xercesc_2_8@@UAEXXZ 1204a007 f i XMLScanner.obj
 0001:00049046       ??0?$RefHashTableOfEnumerator@VXMLRefInfo@xercesc_2_8@@@xercesc_2_8@@QAE@QAV?$RefHashTableOf@VXMLRefInfo@xercesc_2_8@@@1@_NQAVMemoryManager@1@@Z 1204a046 f i XMLScanner.obj
 0001:000490ab       ??1?$RefHashTableOfEnumerator@VXMLRefInfo@xercesc_2_8@@@xercesc_2_8@@UAE@XZ 1204a0ab f i XMLScanner.obj
 0001:000490e4       ??_E?$RefVectorOf@VXMLAttr@xercesc_2_8@@@xercesc_2_8@@UAEPAXI@Z 1204a0e4 f i  CIL library: CIL module
 0001:000490e4       ??_G?$RefVectorOf@VXMLAttr@xercesc_2_8@@@xercesc_2_8@@UAEPAXI@Z 1204a0e4 f i XMLScanner.obj
 0001:00049155       ??_G?$BaseRefVectorOf@VXMLAttr@xercesc_2_8@@@xercesc_2_8@@UAEPAXI@Z 1204a155 f i XMLScanner.obj
 0001:00049155       ??_E?$BaseRefVectorOf@VXMLAttr@xercesc_2_8@@@xercesc_2_8@@UAEPAXI@Z 1204a155 f i  CIL library: CIL module
 0001:00049172       ??_E?$RefHashTableOfEnumerator@VXMLRefInfo@xercesc_2_8@@@xercesc_2_8@@UAEPAXI@Z 1204a172 f i  CIL library: CIL module
 0001:00049172       ??_G?$RefHashTableOfEnumerator@VXMLRefInfo@xercesc_2_8@@@xercesc_2_8@@UAEPAXI@Z 1204a172 f i XMLScanner.obj
 0001:0004918e       ?findNext@?$RefHashTableOfEnumerator@VXMLAttDef@xercesc_2_8@@@xercesc_2_8@@AAEXXZ 1204a18e f i XSModel.obj
 0001:0004918e       ?findNext@?$RefHashTableOfEnumerator@VXSAnnotation@xercesc_2_8@@@xercesc_2_8@@AAEXXZ 1204a18e f i XTemplateSerializer.obj
 0001:0004918e       ?findNext@?$RefHashTableOfEnumerator@VDTDAttDef@xercesc_2_8@@@xercesc_2_8@@AAEXXZ 1204a18e f i XTemplateSerializer.obj
 0001:0004918e       ?findNext@?$RefHashTableOfEnumerator@_W@xercesc_2_8@@AAEXXZ 1204a18e f i DOMNormalizer.obj
 0001:0004918e       ?findNext@?$RefHashTableOfEnumerator@VValueStore@xercesc_2_8@@@xercesc_2_8@@AAEXXZ 1204a18e f i ValueStoreCache.obj
 0001:0004918e       ?findNext@?$RefHashTableOfEnumerator@VComplexTypeInfo@xercesc_2_8@@@xercesc_2_8@@AAEXXZ 1204a18e f i XSModel.obj
 0001:0004918e       ?findNext@?$RefHashTableOfEnumerator@VXercesGroupInfo@xercesc_2_8@@@xercesc_2_8@@AAEXXZ 1204a18e f i XSModel.obj
 0001:0004918e       ?findNext@?$RefHashTableOfEnumerator@VKVStringPair@xercesc_2_8@@@xercesc_2_8@@AAEXXZ 1204a18e f i XSObjectFactory.obj
 0001:0004918e       ?findNext@?$RefHashTableOfEnumerator@VXMLRefInfo@xercesc_2_8@@@xercesc_2_8@@AAEXXZ 1204a18e f i XMLScanner.obj
 0001:0004918e       ?findNext@?$RefHashTableOfEnumerator@VXercesAttGroupInfo@xercesc_2_8@@@xercesc_2_8@@AAEXXZ 1204a18e f i XSModel.obj
 0001:0004918e       ?findNext@?$RefHashTableOfEnumerator@VDatatypeValidator@xercesc_2_8@@@xercesc_2_8@@AAEXXZ 1204a18e f i XSModel.obj
 0001:0004918e       ?findNext@?$RefHashTableOfEnumerator@VGrammar@xercesc_2_8@@@xercesc_2_8@@AAEXXZ 1204a18e f i XSModel.obj
 0001:000491dc       ?getDefaultScanner@XMLScannerResolver@xercesc_2_8@@SAPAVXMLScanner@2@QAVXMLValidator@2@QAVGrammarResolver@2@QAVMemoryManager@2@@Z 1204a1dc f   XMLScannerResolver.obj
 0001:00049219       ?resolveScanner@XMLScannerResolver@xercesc_2_8@@SAPAVXMLScanner@2@QB_WQAVXMLValidator@2@QAVGrammarResolver@2@QAVMemoryManager@2@@Z 1204a219 f   XMLScannerResolver.obj
 0001:0004933b       ?resolveScanner@XMLScannerResolver@xercesc_2_8@@SAPAVXMLScanner@2@QB_WQAVXMLDocumentHandler@2@QAVDocTypeHandler@2@QAVXMLEntityHandler@2@QAVXMLErrorReporter@2@QAVXMLValidator@2@QAVGrammarResolver@2@QAVMemoryManager@2@@Z 1204a33b f   XMLScannerResolver.obj
 0001:0004948d       ?store@XProtoType@xercesc_2_8@@QBEXAAVXSerializeEngine@2@@Z 1204a48d f   XProtoType.obj
 0001:000494b6       ?load@XProtoType@xercesc_2_8@@SAXAAVXSerializeEngine@2@QAEQAVMemoryManager@2@@Z 1204a4b6 f   XProtoType.obj
 0001:0004962e       ??_EXSAXMLScanner@xercesc_2_8@@UAEPAXI@Z 1204a62e f i XSAXMLScanner.obj
 0001:00049680       ?getName@XSAXMLScanner@xercesc_2_8@@UBEPB_WXZ 1204a680 f i XSAXMLScanner.obj
 0001:00049686       ??0XSAXMLScanner@xercesc_2_8@@IAE@QAVGrammarResolver@1@QAVXMLStringPool@1@QAVSchemaGrammar@1@QAVMemoryManager@1@@Z 1204a686 f   XSAXMLScanner.obj
 0001:000496cb       ??1XSAXMLScanner@xercesc_2_8@@UAE@XZ 1204a6cb f   XSAXMLScanner.obj
 0001:000496d6       ?scanEndTag@XSAXMLScanner@xercesc_2_8@@MAEXAA_N@Z 1204a6d6 f   XSAXMLScanner.obj
 0001:00049915       ?scanStartTag@XSAXMLScanner@xercesc_2_8@@MAE_NAA_N@Z 1204a915 f   XSAXMLScanner.obj
 0001:00049efd       ?scanReset@XSAXMLScanner@xercesc_2_8@@MAEXABVInputSource@2@@Z 1204aefd f   XSAXMLScanner.obj
 0001:0004a0dd       ?scanRawAttrListforNameSpaces@XSAXMLScanner@xercesc_2_8@@AAEXH@Z 1204b0dd f   XSAXMLScanner.obj
 0001:0004a31c       ?switchGrammar@XSAXMLScanner@xercesc_2_8@@AAEXQB_W_N@Z 1204b31c f   XSAXMLScanner.obj
 0001:0004a39c       ??1XSerializeEngine@xercesc_2_8@@QAE@XZ 1204b39c f   XSerializeEngine.obj
 0001:0004a3ea       ??0XSerializeEngine@xercesc_2_8@@QAE@PAVBinInputStream@1@QAVXMLGrammarPool@1@K@Z 1204b3ea f   XSerializeEngine.obj
 0001:0004a47a       ??0XSerializeEngine@xercesc_2_8@@QAE@PAVBinOutputStream@1@QAVXMLGrammarPool@1@K@Z 1204b47a f   XSerializeEngine.obj
 0001:0004a54e       ??0XSerializeEngine@xercesc_2_8@@QAE@PAVBinInputStream@1@QAVMemoryManager@1@K@Z 1204b54e f   XSerializeEngine.obj
 0001:0004a5d6       ??0XSerializeEngine@xercesc_2_8@@QAE@PAVBinOutputStream@1@QAVMemoryManager@1@K@Z 1204b5d6 f   XSerializeEngine.obj
 0001:0004a691       ?flush@XSerializeEngine@xercesc_2_8@@QAEXXZ 1204b691 f   XSerializeEngine.obj
 0001:0004a69d       ?write@XSerializeEngine@xercesc_2_8@@QAEXQAVXSerializable@2@@Z 1204b69d f   XSerializeEngine.obj
 0001:0004a6eb       ?write@XSerializeEngine@xercesc_2_8@@QAEXQAVXProtoType@2@@Z 1204b6eb f   XSerializeEngine.obj
 0001:0004a737       ?write@XSerializeEngine@xercesc_2_8@@QAEXQB_WH@Z 1204b737 f   XSerializeEngine.obj
 0001:0004a74a       ?write@XSerializeEngine@xercesc_2_8@@QAEXQBEH@Z 1204b74a f   XSerializeEngine.obj
 0001:0004a7ec       ?writeString@XSerializeEngine@xercesc_2_8@@QAEXQB_WH_N@Z 1204b7ec f   XSerializeEngine.obj
 0001:0004a836       ?writeString@XSerializeEngine@xercesc_2_8@@QAEXQBEH_N@Z 1204b836 f   XSerializeEngine.obj
 0001:0004a87e       ?read@XSerializeEngine@xercesc_2_8@@QAEPAVXSerializable@2@QAVXProtoType@2@@Z 1204b87e f   XSerializeEngine.obj
 0001:0004a8f3       ?read@XSerializeEngine@xercesc_2_8@@QAE_NQAVXProtoType@2@PAI@Z 1204b8f3 f   XSerializeEngine.obj
 0001:0004aa06       ?read@XSerializeEngine@xercesc_2_8@@QAEXQA_WH@Z 1204ba06 f   XSerializeEngine.obj
 0001:0004aa19       ?read@XSerializeEngine@xercesc_2_8@@QAEXQAEH@Z 1204ba19 f   XSerializeEngine.obj
 0001:0004aac7       ?readString@XSerializeEngine@xercesc_2_8@@QAEXAAPA_WAAH1_N@Z 1204bac7 f   XSerializeEngine.obj
 0001:0004ab3a       ?readString@XSerializeEngine@xercesc_2_8@@QAEXAAPAEAAH1_N@Z 1204bb3a f   XSerializeEngine.obj
 0001:0004aba7       ??5XSerializeEngine@xercesc_2_8@@QAEAAV01@AAF@Z 1204bba7 f   XSerializeEngine.obj
 0001:0004aba7       ??5XSerializeEngine@xercesc_2_8@@QAEAAV01@AA_W@Z 1204bba7 f   XSerializeEngine.obj
 0001:0004abe7       ??6XSerializeEngine@xercesc_2_8@@QAEAAV01@_N@Z 1204bbe7 f   XSerializeEngine.obj
 0001:0004abe7       ??6XSerializeEngine@xercesc_2_8@@QAEAAV01@E@Z 1204bbe7 f   XSerializeEngine.obj
 0001:0004ac03       ??5XSerializeEngine@xercesc_2_8@@QAEAAV01@AAE@Z 1204bc03 f   XSerializeEngine.obj
 0001:0004ac03       ??5XSerializeEngine@xercesc_2_8@@QAEAAV01@AA_N@Z 1204bc03 f   XSerializeEngine.obj
 0001:0004ac21       ??6XSerializeEngine@xercesc_2_8@@QAEAAV01@D@Z 1204bc21 f   XSerializeEngine.obj
 0001:0004ac26       ??5XSerializeEngine@xercesc_2_8@@QAEAAV01@AAD@Z 1204bc26 f   XSerializeEngine.obj
 0001:0004ac2b       ??6XSerializeEngine@xercesc_2_8@@QAEAAV01@F@Z 1204bc2b f   XSerializeEngine.obj
 0001:0004ac2b       ??6XSerializeEngine@xercesc_2_8@@QAEAAV01@_W@Z 1204bc2b f   XSerializeEngine.obj
 0001:0004ac69       ??5XSerializeEngine@xercesc_2_8@@QAEAAV01@AAK@Z 1204bc69 f   XSerializeEngine.obj
 0001:0004ac69       ??5XSerializeEngine@xercesc_2_8@@QAEAAV01@AAI@Z 1204bc69 f   XSerializeEngine.obj
 0001:0004ac69       ??5XSerializeEngine@xercesc_2_8@@QAEAAV01@AAJ@Z 1204bc69 f   XSerializeEngine.obj
 0001:0004ac69       ??5XSerializeEngine@xercesc_2_8@@QAEAAV01@AAH@Z 1204bc69 f   XSerializeEngine.obj
 0001:0004aca8       ??6XSerializeEngine@xercesc_2_8@@QAEAAV01@I@Z 1204bca8 f   XSerializeEngine.obj
 0001:0004aca8       ??6XSerializeEngine@xercesc_2_8@@QAEAAV01@H@Z 1204bca8 f   XSerializeEngine.obj
 0001:0004aca8       ??6XSerializeEngine@xercesc_2_8@@QAEAAV01@J@Z 1204bca8 f   XSerializeEngine.obj
 0001:0004aca8       ??6XSerializeEngine@xercesc_2_8@@QAEAAV01@K@Z 1204bca8 f   XSerializeEngine.obj
 0001:0004ace5       ??6XSerializeEngine@xercesc_2_8@@QAEAAV01@M@Z 1204bce5 f   XSerializeEngine.obj
 0001:0004ad22       ??5XSerializeEngine@xercesc_2_8@@QAEAAV01@AAM@Z 1204bd22 f   XSerializeEngine.obj
 0001:0004ad61       ??6XSerializeEngine@xercesc_2_8@@QAEAAV01@N@Z 1204bd61 f   XSerializeEngine.obj
 0001:0004ad9e       ??5XSerializeEngine@xercesc_2_8@@QAEAAV01@AAN@Z 1204bd9e f   XSerializeEngine.obj
 0001:0004addd       ?lookupStorePool@XSerializeEngine@xercesc_2_8@@ABEIQAX@Z 1204bddd f   XSerializeEngine.obj
 0001:0004ae07       ?addStorePool@XSerializeEngine@xercesc_2_8@@AAEXQAX@Z 1204be07 f   XSerializeEngine.obj
 0001:0004ae3e       ?lookupLoadPool@XSerializeEngine@xercesc_2_8@@ABEPAVXSerializable@2@I@Z 1204be3e f   XSerializeEngine.obj
 0001:0004af05       ?addLoadPool@XSerializeEngine@xercesc_2_8@@AAEXQAX@Z 1204bf05 f   XSerializeEngine.obj
 0001:0004afbe       ?pumpCount@XSerializeEngine@xercesc_2_8@@AAEXXZ 1204bfbe f   XSerializeEngine.obj
 0001:0004b066       ?fillBuffer@XSerializeEngine@xercesc_2_8@@AAEXXZ 1204c066 f   XSerializeEngine.obj
 0001:0004b1b8       ?flushBuffer@XSerializeEngine@xercesc_2_8@@AAEXXZ 1204c1b8 f   XSerializeEngine.obj
 0001:0004b1ff       ?checkAndFlushBuffer@XSerializeEngine@xercesc_2_8@@AAEXH@Z 1204c1ff f i XSerializeEngine.obj
 0001:0004b292       ?checkAndFillBuffer@XSerializeEngine@xercesc_2_8@@AAEXH@Z 1204c292 f i XSerializeEngine.obj
 0001:0004b325       ?ensureStoreBuffer@XSerializeEngine@xercesc_2_8@@ABEXXZ 1204c325 f i XSerializeEngine.obj
 0001:0004b3d4       ?ensureLoadBuffer@XSerializeEngine@xercesc_2_8@@ABEXXZ 1204c3d4 f i XSerializeEngine.obj
 0001:0004b483       ?ensurePointer@XSerializeEngine@xercesc_2_8@@ABEXQAX@Z 1204c483 f i XSerializeEngine.obj
 0001:0004b504       ?ensureBufferLen@XSerializeEngine@xercesc_2_8@@ABEXH@Z 1204c504 f i XSerializeEngine.obj
 0001:0004b587       ?resetBuffer@XSerializeEngine@xercesc_2_8@@AAEXXZ 1204c587 f i XSerializeEngine.obj
 0001:0004b598       ?needToStoreObject@XSerializeEngine@xercesc_2_8@@QAE_NQAX@Z 1204c598 f   XSerializeEngine.obj
 0001:0004b5da       ?needToLoadObject@XSerializeEngine@xercesc_2_8@@QAE_NPAPAX@Z 1204c5da f   XSerializeEngine.obj
 0001:0004b612       ?registerObject@XSerializeEngine@xercesc_2_8@@QAEXQAX@Z 1204c612 f   XSerializeEngine.obj
 0001:0004b62b       ?getStringPool@XSerializeEngine@xercesc_2_8@@QBEPAVXMLStringPool@2@XZ 1204c62b f   XSerializeEngine.obj
 0001:0004b633       ?getMemoryManager@XSerializeEngine@xercesc_2_8@@QBEPAVMemoryManager@2@XZ 1204c633 f   XSerializeEngine.obj
 0001:0004b644       ?alignAdjust@XSerializeEngine@xercesc_2_8@@ABEKK@Z 1204c644 f i XSerializeEngine.obj
 0001:0004b65c       ?alignBufCur@XSerializeEngine@xercesc_2_8@@AAEXK@Z 1204c65c f i XSerializeEngine.obj
 0001:0004b67f       ?calBytesNeeded@XSerializeEngine@xercesc_2_8@@ABEKK@Z 1204c67f f i XSerializeEngine.obj
 0001:0004b69b       ?put@?$RefHashTableOf@VXSerializedObjectId@xercesc_2_8@@@xercesc_2_8@@QAEXPAXQAVXSerializedObjectId@2@@Z 1204c69b f i XSerializeEngine.obj
 0001:0004b719       ?rehash@?$RefHashTableOf@VXSerializedObjectId@xercesc_2_8@@@xercesc_2_8@@AAEXXZ 1204c719 f i XSerializeEngine.obj
 0001:0004b7c2       ??0XSObjectFactory@xercesc_2_8@@QAE@QAVMemoryManager@1@@Z 1204c7c2 f   XSObjectFactory.obj
 0001:0004b877       ??1XSObjectFactory@xercesc_2_8@@QAE@XZ 1204c877 f   XSObjectFactory.obj
 0001:0004b89e       ?createModelGroupParticle@XSObjectFactory@xercesc_2_8@@AAEPAVXSParticle@2@QBVContentSpecNode@2@QAVXSModel@2@@Z 1204c89e f   XSObjectFactory.obj
 0001:0004b9fe       ?buildAllParticles@XSObjectFactory@xercesc_2_8@@AAEXQBVContentSpecNode@2@QAV?$RefVectorOf@VXSParticle@xercesc_2_8@@@2@QAVXSModel@2@@Z 1204c9fe f   XSObjectFactory.obj
 0001:0004ba50       ?buildChoiceSequenceParticles@XSObjectFactory@xercesc_2_8@@AAEXQBVContentSpecNode@2@QAV?$RefVectorOf@VXSParticle@xercesc_2_8@@@2@QAVXSModel@2@@Z 1204ca50 f   XSObjectFactory.obj
 0001:0004bad8       ?createElementParticle@XSObjectFactory@xercesc_2_8@@AAEPAVXSParticle@2@QBVContentSpecNode@2@QAVXSModel@2@@Z 1204cad8 f   XSObjectFactory.obj
 0001:0004bb3e       ?createWildcardParticle@XSObjectFactory@xercesc_2_8@@AAEPAVXSParticle@2@QBVContentSpecNode@2@QAVXSModel@2@@Z 1204cb3e f   XSObjectFactory.obj
 0001:0004bb9b       ?addOrFind@XSObjectFactory@xercesc_2_8@@AAEPAVXSAttributeDeclaration@2@QAVSchemaAttDef@2@QAVXSModel@2@QAVXSComplexTypeDefinition@2@@Z 1204cb9b f   XSObjectFactory.obj
 0001:0004bc6c       ?addOrFind@XSObjectFactory@xercesc_2_8@@AAEPAVXSSimpleTypeDefinition@2@QAVDatatypeValidator@2@QAVXSModel@2@_N@Z 1204cc6c f   XSObjectFactory.obj
 0001:0004be8a       ?addOrFind@XSObjectFactory@xercesc_2_8@@AAEPAVXSElementDeclaration@2@QAVSchemaElementDecl@2@QAVXSModel@2@QAVXSComplexTypeDefinition@2@@Z 1204ce8a f   XSObjectFactory.obj
 0001:0004c090       ?addOrFind@XSObjectFactory@xercesc_2_8@@AAEPAVXSComplexTypeDefinition@2@QAVComplexTypeInfo@2@QAVXSModel@2@@Z 1204d090 f   XSObjectFactory.obj
 0001:0004c2fc       ?addOrFind@XSObjectFactory@xercesc_2_8@@AAEPAVXSIDCDefinition@2@QAVIdentityConstraint@2@QAVXSModel@2@@Z 1204d2fc f   XSObjectFactory.obj
 0001:0004c41e       ?addOrFind@XSObjectFactory@xercesc_2_8@@AAEPAVXSNotationDeclaration@2@QAVXMLNotationDecl@2@QAVXSModel@2@@Z 1204d41e f   XSObjectFactory.obj
 0001:0004c48c       ?createXSAttributeUse@XSObjectFactory@xercesc_2_8@@AAEPAVXSAttributeUse@2@QAVXSAttributeDeclaration@2@QAVXSModel@2@@Z 1204d48c f   XSObjectFactory.obj
 0001:0004c4dc       ?createXSWildcard@XSObjectFactory@xercesc_2_8@@AAEPAVXSWildcard@2@QAVSchemaAttDef@2@QAVXSModel@2@@Z 1204d4dc f   XSObjectFactory.obj
 0001:0004c546       ?createXSWildcard@XSObjectFactory@xercesc_2_8@@AAEPAVXSWildcard@2@QBVContentSpecNode@2@QAVXSModel@2@@Z 1204d546 f   XSObjectFactory.obj
 0001:0004c5a5       ?createXSModelGroupDefinition@XSObjectFactory@xercesc_2_8@@AAEPAVXSModelGroupDefinition@2@QAVXercesGroupInfo@2@QAVXSModel@2@@Z 1204d5a5 f   XSObjectFactory.obj
 0001:0004c650       ?createXSAttGroupDefinition@XSObjectFactory@xercesc_2_8@@AAEPAVXSAttributeGroupDefinition@2@QAVXercesAttGroupInfo@2@QAVXSModel@2@@Z 1204d650 f   XSObjectFactory.obj
 0001:0004c787       ?getAnnotationFromModel@XSObjectFactory@xercesc_2_8@@AAEPAVXSAnnotation@2@QAVXSModel@2@QBX@Z 1204d787 f   XSObjectFactory.obj
 0001:0004c7ee       ?putObjectInMap@XSObjectFactory@xercesc_2_8@@AAEXPAXQAVXSObject@2@@Z 1204d7ee f   XSObjectFactory.obj
 0001:0004c813       ?processFacets@XSObjectFactory@xercesc_2_8@@AAEXQAVDatatypeValidator@2@QAVXSModel@2@QAVXSSimpleTypeDefinition@2@@Z 1204d813 f   XSObjectFactory.obj
 0001:0004cd76       ?processAttUse@XSObjectFactory@xercesc_2_8@@AAEXQAVSchemaAttDef@2@QAVXSAttributeUse@2@@Z 1204dd76 f   XSObjectFactory.obj
 0001:0004cdb6       ?isMultiValueFacetDefined@XSObjectFactory@xercesc_2_8@@AAE_NQAVDatatypeValidator@2@@Z 1204ddb6 f   XSObjectFactory.obj
 0001:0004cdd2       ??1?$XMLEnumerator@VKVStringPair@xercesc_2_8@@@xercesc_2_8@@UAE@XZ 1204ddd2 f i XSObjectFactory.obj
 0001:0004cdd9       ??_G?$XMLEnumerator@VKVStringPair@xercesc_2_8@@@xercesc_2_8@@UAEPAXI@Z 1204ddd9 f i XSObjectFactory.obj
 0001:0004cdd9       ??_E?$XMLEnumerator@VKVStringPair@xercesc_2_8@@@xercesc_2_8@@UAEPAXI@Z 1204ddd9 f i  CIL library: CIL module
 0001:0004cdf6       ??0?$RefVectorOf@VXSAttributeUse@xercesc_2_8@@@xercesc_2_8@@QAE@I_NQAVMemoryManager@1@@Z 1204ddf6 f i XSObjectFactory.obj
 0001:0004ce37       ??0?$RefVectorOf@VXSFacet@xercesc_2_8@@@xercesc_2_8@@QAE@I_NQAVMemoryManager@1@@Z 1204de37 f i XSObjectFactory.obj
 0001:0004ce77       ??0?$RefVectorOf@VXSMultiValueFacet@xercesc_2_8@@@xercesc_2_8@@QAE@I_NQAVMemoryManager@1@@Z 1204de77 f i XSObjectFactory.obj
 0001:0004ceb7       ??0?$RefVectorOf@VXSParticle@xercesc_2_8@@@xercesc_2_8@@QAE@I_NQAVMemoryManager@1@@Z 1204deb7 f i XSObjectFactory.obj
 0001:0004cef7       ??0?$RefVectorOf@VXSSimpleTypeDefinition@xercesc_2_8@@@xercesc_2_8@@QAE@I_NQAVMemoryManager@1@@Z 1204def7 f i XSObjectFactory.obj
 0001:0004cf38       ??0?$XSNamedMap@VXSIDCDefinition@xercesc_2_8@@@xercesc_2_8@@QAE@IIPAVXMLStringPool@1@_NQAVMemoryManager@1@@Z 1204df38 f i XSObjectFactory.obj
 0001:0004cfad       ??1?$BaseRefVectorOf@VXSParticle@xercesc_2_8@@@xercesc_2_8@@UAE@XZ 1204dfad f i XSObjectFactory.obj
 0001:0004cfb4       ??1?$BaseRefVectorOf@VXSSimpleTypeDefinition@xercesc_2_8@@@xercesc_2_8@@UAE@XZ 1204dfb4 f i XSObjectFactory.obj
 0001:0004cfbb       ??1?$BaseRefVectorOf@VXSAttributeUse@xercesc_2_8@@@xercesc_2_8@@UAE@XZ 1204dfbb f i XSObjectFactory.obj
 0001:0004cfc2       ??1?$BaseRefVectorOf@VXSFacet@xercesc_2_8@@@xercesc_2_8@@UAE@XZ 1204dfc2 f i XSObjectFactory.obj
 0001:0004cfc9       ??1?$BaseRefVectorOf@VXSMultiValueFacet@xercesc_2_8@@@xercesc_2_8@@UAE@XZ 1204dfc9 f i XSObjectFactory.obj
 0001:0004cfd0       ?removeAllElements@?$BaseRefVectorOf@VSchemaAttDef@xercesc_2_8@@@xercesc_2_8@@UAEXXZ 1204dfd0 f i XSAttributeGroupDefinition.obj
 0001:0004cfd0       ?removeAllElements@?$BaseRefVectorOf@VXSAttributeUse@xercesc_2_8@@@xercesc_2_8@@UAEXXZ 1204dfd0 f i XSObjectFactory.obj
 0001:0004cfd0       ?removeAllElements@?$BaseRefVectorOf@VXMLElementDecl@xercesc_2_8@@@xercesc_2_8@@UAEXXZ 1204dfd0 f i WFXMLScanner.obj
 0001:0004cfd0       ?removeAllElements@?$BaseRefVectorOf@VOp@xercesc_2_8@@@xercesc_2_8@@UAEXXZ 1204dfd0 f i Op.obj
 0001:0004cfd0       ?removeAllElements@?$BaseRefVectorOf@VXMLNumber@xercesc_2_8@@@xercesc_2_8@@UAEXXZ 1204dfd0 f i XTemplateSerializer.obj
 0001:0004cfd0       ?removeAllElements@?$BaseRefVectorOf@VXPathMatcher@xercesc_2_8@@@xercesc_2_8@@UAEXXZ 1204dfd0 f i XPathMatcherStack.obj
 0001:0004cfd0       ?removeAllElements@?$BaseRefVectorOf@VXSAnnotation@xercesc_2_8@@@xercesc_2_8@@UAEXXZ 1204dfd0 f i XSComplexTypeDefinition.obj
 0001:0004cfd0       ?removeAllElements@?$BaseRefVectorOf@VIdentityConstraint@xercesc_2_8@@@xercesc_2_8@@UAEXXZ 1204dfd0 f i XMLElementDecl.obj
 0001:0004cfd0       ?removeAllElements@?$BaseRefVectorOf@VToken@xercesc_2_8@@@xercesc_2_8@@UAEXXZ 1204dfd0 f i TokenFactory.obj
 0001:0004cfd0       ?removeAllElements@?$BaseRefVectorOf@VKVStringPair@xercesc_2_8@@@xercesc_2_8@@UAEXXZ 1204dfd0 f i IGXMLScanner.obj
 0001:0004cfd0       ?removeAllElements@?$BaseRefVectorOf@VDOMRangeImpl@xercesc_2_8@@@xercesc_2_8@@UAEXXZ 1204dfd0 f i DOMDocumentImpl.obj
 0001:0004cfd0       ?removeAllElements@?$BaseRefVectorOf@VXercesStep@xercesc_2_8@@@xercesc_2_8@@UAEXXZ 1204dfd0 f i XTemplateSerializer.obj
 0001:0004cfd0       ?removeAllElements@?$BaseRefVectorOf@VContentSpecNode@xercesc_2_8@@@xercesc_2_8@@UAEXXZ 1204dfd0 f i XTemplateSerializer.obj
 0001:0004cfd0       ?removeAllElements@?$BaseRefVectorOf@VSchemaElementDecl@xercesc_2_8@@@xercesc_2_8@@UAEXXZ 1204dfd0 f i XMLElementDecl.obj
 0001:0004cfd0       ?removeAllElements@?$BaseRefVectorOf@VIC_Field@xercesc_2_8@@@xercesc_2_8@@UAEXXZ 1204dfd0 f i XMLElementDecl.obj
 0001:0004cfd0       ?removeAllElements@?$BaseRefVectorOf@VDOMImplementationSource@xercesc_2_8@@@xercesc_2_8@@UAEXXZ 1204dfd0 f i DOMImplementationRegistry.obj
 0001:0004cfd0       ?removeAllElements@?$BaseRefVectorOf@VXSIDCDefinition@xercesc_2_8@@@xercesc_2_8@@UAEXXZ 1204dfd0 f i XSObjectFactory.obj
 0001:0004cfd0       ?removeAllElements@?$BaseRefVectorOf@VENameMap@xercesc_2_8@@@xercesc_2_8@@UAEXXZ 1204dfd0 f i TransService.obj
 0001:0004cfd0       ?removeAllElements@?$BaseRefVectorOf@VPSVIAttribute@xercesc_2_8@@@xercesc_2_8@@UAEXXZ 1204dfd0 f i PSVIAttributeList.obj
 0001:0004cfd0       ?removeAllElements@?$BaseRefVectorOf@VXMLEntityDecl@xercesc_2_8@@@xercesc_2_8@@UAEXXZ 1204dfd0 f i ReaderMgr.obj
 0001:0004cfd0       ?removeAllElements@?$BaseRefVectorOf@VXSFacet@xercesc_2_8@@@xercesc_2_8@@UAEXXZ 1204dfd0 f i XSObjectFactory.obj
 0001:0004cfd0       ?removeAllElements@?$BaseRefVectorOf@VXercesLocationPath@xercesc_2_8@@@xercesc_2_8@@UAEXXZ 1204dfd0 f i XTemplateSerializer.obj
 0001:0004cfd0       ?removeAllElements@?$BaseRefVectorOf@VXSParticle@xercesc_2_8@@@xercesc_2_8@@UAEXXZ 1204dfd0 f i XSObjectFactory.obj
 0001:0004cfd0       ?removeAllElements@?$BaseRefVectorOf@VDOMDocumentImpl@xercesc_2_8@@@xercesc_2_8@@UAEXXZ 1204dfd0 f i AbstractDOMParser.obj
 0001:0004cfd0       ?removeAllElements@?$BaseRefVectorOf@VXSSimpleTypeDefinition@xercesc_2_8@@@xercesc_2_8@@UAEXXZ 1204dfd0 f i XSObjectFactory.obj
 0001:0004cfd0       ?removeAllElements@?$BaseRefVectorOf@VDatatypeValidator@xercesc_2_8@@@xercesc_2_8@@UAEXXZ 1204dfd0 f i XTemplateSerializer.obj
 0001:0004cfd0       ?removeAllElements@?$BaseRefVectorOf@VXSObject@xercesc_2_8@@@xercesc_2_8@@UAEXXZ 1204dfd0 f i XSModel.obj
 0001:0004cfd0       ?removeAllElements@?$BaseRefVectorOf@VXSMultiValueFacet@xercesc_2_8@@@xercesc_2_8@@UAEXXZ 1204dfd0 f i XSObjectFactory.obj
 0001:0004cfd0       ?removeAllElements@?$BaseRefVectorOf@VMatch@xercesc_2_8@@@xercesc_2_8@@UAEXXZ 1204dfd0 f i RegularExpression.obj
 0001:0004cfd0       ?removeAllElements@?$BaseRefVectorOf@VDOMNode@xercesc_2_8@@@xercesc_2_8@@UAEXXZ 1204dfd0 f i DOMDocumentImpl.obj
 0001:0004cfd0       ?removeAllElements@?$BaseRefVectorOf@VDOMNodeIteratorImpl@xercesc_2_8@@@xercesc_2_8@@UAEXXZ 1204dfd0 f i DOMDocumentImpl.obj
 0001:0004d005       ??0?$RefHashTableOfEnumerator@VKVStringPair@xercesc_2_8@@@xercesc_2_8@@QAE@QAV?$RefHashTableOf@VKVStringPair@xercesc_2_8@@@1@_NQAVMemoryManager@1@@Z 1204e005 f i XSObjectFactory.obj
 0001:0004d06a       ??1?$RefHashTableOfEnumerator@VKVStringPair@xercesc_2_8@@@xercesc_2_8@@UAE@XZ 1204e06a f i XSObjectFactory.obj
 0001:0004d0aa       ??_G?$RefVectorOf@VXSAttributeUse@xercesc_2_8@@@xercesc_2_8@@UAEPAXI@Z 1204e0aa f i XSObjectFactory.obj
 0001:0004d0aa       ??_E?$RefVectorOf@VXSAttributeUse@xercesc_2_8@@@xercesc_2_8@@UAEPAXI@Z 1204e0aa f i  CIL library: CIL module
 0001:0004d114       ??_G?$RefVectorOf@VXSFacet@xercesc_2_8@@@xercesc_2_8@@UAEPAXI@Z 1204e114 f i XSObjectFactory.obj
 0001:0004d114       ??_E?$RefVectorOf@VXSFacet@xercesc_2_8@@@xercesc_2_8@@UAEPAXI@Z 1204e114 f i  CIL library: CIL module
 0001:0004d17e       ??_E?$RefVectorOf@VXSMultiValueFacet@xercesc_2_8@@@xercesc_2_8@@UAEPAXI@Z 1204e17e f i  CIL library: CIL module
 0001:0004d17e       ??_G?$RefVectorOf@VXSMultiValueFacet@xercesc_2_8@@@xercesc_2_8@@UAEPAXI@Z 1204e17e f i XSObjectFactory.obj
 0001:0004d1e8       ??_E?$RefVectorOf@VXSParticle@xercesc_2_8@@@xercesc_2_8@@UAEPAXI@Z 1204e1e8 f i  CIL library: CIL module
 0001:0004d1e8       ??_G?$RefVectorOf@VXSParticle@xercesc_2_8@@@xercesc_2_8@@UAEPAXI@Z 1204e1e8 f i XSObjectFactory.obj
 0001:0004d252       ??_G?$RefVectorOf@VXSSimpleTypeDefinition@xercesc_2_8@@@xercesc_2_8@@UAEPAXI@Z 1204e252 f i XSObjectFactory.obj
 0001:0004d252       ??_E?$RefVectorOf@VXSSimpleTypeDefinition@xercesc_2_8@@@xercesc_2_8@@UAEPAXI@Z 1204e252 f i  CIL library: CIL module
 0001:0004d2bc       ??_E?$BaseRefVectorOf@VXSParticle@xercesc_2_8@@@xercesc_2_8@@UAEPAXI@Z 1204e2bc f i  CIL library: CIL module
 0001:0004d2bc       ??_G?$BaseRefVectorOf@VXSParticle@xercesc_2_8@@@xercesc_2_8@@UAEPAXI@Z 1204e2bc f i XSObjectFactory.obj
 0001:0004d2d9       ??_E?$BaseRefVectorOf@VXSSimpleTypeDefinition@xercesc_2_8@@@xercesc_2_8@@UAEPAXI@Z 1204e2d9 f i  CIL library: CIL module
 0001:0004d2d9       ??_G?$BaseRefVectorOf@VXSSimpleTypeDefinition@xercesc_2_8@@@xercesc_2_8@@UAEPAXI@Z 1204e2d9 f i XSObjectFactory.obj
 0001:0004d2f6       ??_G?$BaseRefVectorOf@VXSAttributeUse@xercesc_2_8@@@xercesc_2_8@@UAEPAXI@Z 1204e2f6 f i XSObjectFactory.obj
 0001:0004d2f6       ??_E?$BaseRefVectorOf@VXSAttributeUse@xercesc_2_8@@@xercesc_2_8@@UAEPAXI@Z 1204e2f6 f i  CIL library: CIL module
 0001:0004d313       ??_G?$BaseRefVectorOf@VXSFacet@xercesc_2_8@@@xercesc_2_8@@UAEPAXI@Z 1204e313 f i XSObjectFactory.obj
 0001:0004d313       ??_E?$BaseRefVectorOf@VXSFacet@xercesc_2_8@@@xercesc_2_8@@UAEPAXI@Z 1204e313 f i  CIL library: CIL module
 0001:0004d330       ??_E?$BaseRefVectorOf@VXSMultiValueFacet@xercesc_2_8@@@xercesc_2_8@@UAEPAXI@Z 1204e330 f i  CIL library: CIL module
 0001:0004d330       ??_G?$BaseRefVectorOf@VXSMultiValueFacet@xercesc_2_8@@@xercesc_2_8@@UAEPAXI@Z 1204e330 f i XSObjectFactory.obj
 0001:0004d34d       ??_G?$RefHashTableOfEnumerator@VKVStringPair@xercesc_2_8@@@xercesc_2_8@@UAEPAXI@Z 1204e34d f i XSObjectFactory.obj
 0001:0004d34d       ??_E?$RefHashTableOfEnumerator@VKVStringPair@xercesc_2_8@@@xercesc_2_8@@UAEPAXI@Z 1204e34d f i  CIL library: CIL module
 0001:0004d369       ??0?$RefVectorOf@VXSIDCDefinition@xercesc_2_8@@@xercesc_2_8@@QAE@I_NQAVMemoryManager@1@@Z 1204e369 f i XSObjectFactory.obj
 0001:0004d3aa       ??0?$RefHash2KeysTableOf@VXSIDCDefinition@xercesc_2_8@@@xercesc_2_8@@QAE@I_NQAVMemoryManager@1@@Z 1204e3aa f i XSObjectFactory.obj
 0001:0004d3aa       ??0?$RefHash2KeysTableOf@VIdentityConstraint@xercesc_2_8@@@xercesc_2_8@@QAE@I_NQAVMemoryManager@1@@Z 1204e3aa f i TraverseSchema.obj
 0001:0004d3aa       ??0?$RefHash2KeysTableOf@VXSObject@xercesc_2_8@@@xercesc_2_8@@QAE@I_NQAVMemoryManager@1@@Z 1204e3aa f i XSModel.obj
 0001:0004d3fb       ?put@?$RefHash2KeysTableOf@VXSIDCDefinition@xercesc_2_8@@@xercesc_2_8@@QAEXPAXHQAVXSIDCDefinition@2@@Z 1204e3fb f i XSObjectFactory.obj
 0001:0004d4b2       ??1?$BaseRefVectorOf@VXSIDCDefinition@xercesc_2_8@@@xercesc_2_8@@UAE@XZ 1204e4b2 f i XSObjectFactory.obj
 0001:0004d4b9       ??_G?$RefVectorOf@VXSIDCDefinition@xercesc_2_8@@@xercesc_2_8@@UAEPAXI@Z 1204e4b9 f i XSObjectFactory.obj
 0001:0004d4b9       ??_E?$RefVectorOf@VXSIDCDefinition@xercesc_2_8@@@xercesc_2_8@@UAEPAXI@Z 1204e4b9 f i  CIL library: CIL module
 0001:0004d523       ??_E?$BaseRefVectorOf@VXSIDCDefinition@xercesc_2_8@@@xercesc_2_8@@UAEPAXI@Z 1204e523 f i  CIL library: CIL module
 0001:0004d523       ??_G?$BaseRefVectorOf@VXSIDCDefinition@xercesc_2_8@@@xercesc_2_8@@UAEPAXI@Z 1204e523 f i XSObjectFactory.obj
 0001:0004d540       ?rehash@?$RefHash2KeysTableOf@VXSIDCDefinition@xercesc_2_8@@@xercesc_2_8@@AAEXXZ 1204e540 f i XSObjectFactory.obj
